
 Start         Length     Name                   Class
 0001:00000000 0007C60CH .text                   CODE
 0002:00000000 00006518H .data                   DATA
 0002:00006518 000045DDH .bss                    BSS


Detailed map of segments

 0001:00000000 000003DE C=CODE     S=.text    G=(none)   M=System   ACBP=A9
 0001:000003E0 0000022C C=CODE     S=.text    G=(none)   M=SysInit  ACBP=A9
 0001:0000060C 00000720 C=CODE     S=.text    G=(none)   M=Windows  ACBP=A9
 0001:00000D2C 0000000E C=CODE     S=.text    G=(none)   M=Types    ACBP=A9
 0001:00000D3C 00000038 C=CODE     S=.text    G=(none)   M=Messages ACBP=A9
 0001:00000D74 0000020E C=CODE     S=.text    G=(none)   M=SysUtils ACBP=A9
 0001:00000F84 0000000E C=CODE     S=.text    G=(none)   M=SysConst ACBP=A9
 0001:00000F94 00000216 C=CODE     S=.text    G=(none)   M=Classes  ACBP=A9
 0001:000011AC 0000000E C=CODE     S=.text    G=(none)   M=ActiveX  ACBP=A9
 0001:000011BC 0000003E C=CODE     S=.text    G=(none)   M=TypInfo  ACBP=A9
 0001:000011FC 0000004E C=CODE     S=.text    G=(none)   M=Variants ACBP=A9
 0001:0000124C 0000000E C=CODE     S=.text    G=(none)   M=VarUtils ACBP=A9
 0001:0000125C 0000000E C=CODE     S=.text    G=(none)   M=RTLConsts ACBP=A9
 0001:0000126C 0000006E C=CODE     S=.text    G=(none)   M=Graphics ACBP=A9
 0001:000012DC 0000000E C=CODE     S=.text    G=(none)   M=Consts   ACBP=A9
 0001:000012EC 0000013E C=CODE     S=.text    G=(none)   M=Controls ACBP=A9
 0001:0000142C 0000000E C=CODE     S=.text    G=(none)   M=ActnList ACBP=A9
 0001:0000143C 0000000E C=CODE     S=.text    G=(none)   M=Contnrs  ACBP=A9
 0001:0000144C 0000000E C=CODE     S=.text    G=(none)   M=Math     ACBP=A9
 0001:0000145C 00000016 C=CODE     S=.text    G=(none)   M=ImgList  ACBP=A9
 0001:00001474 00000038 C=CODE     S=.text    G=(none)   M=CommCtrl ACBP=A9
 0001:000014AC 0000014E C=CODE     S=.text    G=(none)   M=Forms    ACBP=A9
 0001:000015FC 0000000E C=CODE     S=.text    G=(none)   M=HelpIntfs ACBP=A9
 0001:0000160C 0000000E C=CODE     S=.text    G=(none)   M=MultiMon ACBP=A9
 0001:0000161C 00000038 C=CODE     S=.text    G=(none)   M=Imm      ACBP=A9
 0001:00001654 0000005E C=CODE     S=.text    G=(none)   M=Menus    ACBP=A9
 0001:000016B4 0000000E C=CODE     S=.text    G=(none)   M=Themes   ACBP=A9
 0001:000016C4 0000000E C=CODE     S=.text    G=(none)   M=UxTheme  ACBP=A9
 0001:000016D4 0000000E C=CODE     S=.text    G=(none)   M=SyncObjs ACBP=A9
 0001:000016E4 0000009E C=CODE     S=.text    G=(none)   M=ComCtrls ACBP=A9
 0001:00001784 00000038 C=CODE     S=.text    G=(none)   M=ShlObj   ACBP=A9
 0001:000017BC 00000038 C=CODE     S=.text    G=(none)   M=UrlMon   ACBP=A9
 0001:000017F4 00000038 C=CODE     S=.text    G=(none)   M=WinInet  ACBP=A9
 0001:0000182C 00000038 C=CODE     S=.text    G=(none)   M=RegStr   ACBP=A9
 0001:00001864 00000040 C=CODE     S=.text    G=(none)   M=ShellAPI ACBP=A9
 0001:000018A4 0000000E C=CODE     S=.text    G=(none)   M=ListActns ACBP=A9
 0001:000018B4 00000036 C=CODE     S=.text    G=(none)   M=ExtCtrls ACBP=A9
 0001:000018EC 00000016 C=CODE     S=.text    G=(none)   M=StdCtrls ACBP=A9
 0001:00001904 0000000E C=CODE     S=.text    G=(none)   M=WinHelpViewer ACBP=A9
 0001:00001914 0000000E C=CODE     S=.text    G=(none)   M=StdActns ACBP=A9
 0001:00001924 0000001E C=CODE     S=.text    G=(none)   M=Dialogs  ACBP=A9
 0001:00001944 0000000E C=CODE     S=.text    G=(none)   M=Printers ACBP=A9
 0001:00001954 00000058 C=CODE     S=.text    G=(none)   M=WinSpool ACBP=A9
 0001:000019AC 00000038 C=CODE     S=.text    G=(none)   M=CommDlg  ACBP=A9
 0001:000019E4 00000038 C=CODE     S=.text    G=(none)   M=Dlgs     ACBP=A9
 0001:00001A1C 0000000E C=CODE     S=.text    G=(none)   M=StrUtils ACBP=A9
 0001:00001A2C 0000001E C=CODE     S=.text    G=(none)   M=Clipbrd  ACBP=A9
 0001:00001A4C 0000000E C=CODE     S=.text    G=(none)   M=FlatSB   ACBP=A9
 0001:00001A5C 0000000E C=CODE     S=.text    G=(none)   M=ToolWin  ACBP=A9
 0001:00001A6C 00000038 C=CODE     S=.text    G=(none)   M=RichEdit ACBP=A9
 0001:00001AA4 0000000E C=CODE     S=.text    G=(none)   M=ExtActns ACBP=A9
 0001:00001AB4 0000000E C=CODE     S=.text    G=(none)   M=Registry ACBP=A9
 0001:00001AC4 00000086 C=CODE     S=.text    G=(none)   M=IniFiles ACBP=A9
 0001:00001B4C 0000000E C=CODE     S=.text    G=(none)   M=ExtDlgs  ACBP=A9
 0001:00001B5C 0000000E C=CODE     S=.text    G=(none)   M=Buttons  ACBP=A9
 0001:00001B6C 0000000E C=CODE     S=.text    G=(none)   M=Mapi     ACBP=A9
 0001:00001B7C 0000000E C=CODE     S=.text    G=(none)   M=ComStrs  ACBP=A9
 0001:00001B8C 00001A83 C=CODE     S=.text    G=(none)   M=ELeaks   ACBP=A9
 0001:00003610 00001008 C=CODE     S=.text    G=(none)   M=ETypes   ACBP=A9
 0001:00004618 00002360 C=CODE     S=.text    G=(none)   M=EConsts  ACBP=A9
 0001:00006978 00005794 C=CODE     S=.text    G=(none)   M=ECore    ACBP=A9
 0001:0000C10C 00004FC8 C=CODE     S=.text    G=(none)   M=EDebug   ACBP=A9
 0001:000110D4 000000A0 C=CODE     S=.text    G=(none)   M=WinSock  ACBP=A9
 0001:00011174 0000154C C=CODE     S=.text    G=(none)   M=EHook    ACBP=A9
 0001:000126C0 000000E8 C=CODE     S=.text    G=(none)   M=ELang    ACBP=A9
 0001:000127A8 000016D0 C=CODE     S=.text    G=(none)   M=ESockets ACBP=A9
 0001:00013E78 0000A32C C=CODE     S=.text    G=(none)   M=EZlib    ACBP=A9
 0001:0001E1A4 00000AFC C=CODE     S=.text    G=(none)   M=EHash    ACBP=A9
 0001:0001ECA0 00000400 C=CODE     S=.text    G=(none)   M=EEncrypt ACBP=A9
 0001:0001F0A0 000002DC C=CODE     S=.text    G=(none)   M=EBase64  ACBP=A9
 0001:0001F37C 000002B8 C=CODE     S=.text    G=(none)   M=EZip     ACBP=A9
 0001:0001F634 000074AC C=CODE     S=.text    G=(none)   M=EWebTools ACBP=A9
 0001:00026AE0 00000700 C=CODE     S=.text    G=(none)   M=EXMLBuilder ACBP=A9
 0001:000271E0 00004314 C=CODE     S=.text    G=(none)   M=ELogManager ACBP=A9
 0001:0002B4F4 000013B4 C=CODE     S=.text    G=(none)   M=EListView ACBP=A9
 0001:0002C8A8 000074A4 C=CODE     S=.text    G=(none)   M=EDisAsm  ACBP=A9
 0001:00033D4C 000289A8 C=CODE     S=.text    G=(none)   M=ExceptionLog ACBP=A9
 0001:0005C6F4 00000788 C=CODE     S=.text    G=(none)   M=EDesign  ACBP=A9
 0001:0005CE7C 0000000E C=CODE     S=.text    G=(none)   M=Grids    ACBP=A9
 0001:0005CE8C 0000000E C=CODE     S=.text    G=(none)   M=Mask     ACBP=A9
 0001:0005CE9C 0000000E C=CODE     S=.text    G=(none)   M=MaskUtils ACBP=A9
 0001:0005CEAC 00000016 C=CODE     S=.text    G=(none)   M=FileCtrl ACBP=A9
 0001:0005CEC4 0000160B C=CODE     S=.text    G=(none)   M=EBorlandDebug ACBP=A9
 0001:0005E4D0 0000243C C=CODE     S=.text    G=(none)   M=EResource ACBP=A9
 0001:0006090C 0000BA28 C=CODE     S=.text    G=(none)   M=EBaseModule ACBP=A9
 0001:0006C334 0000000E C=CODE     S=.text    G=(none)   M=ToolsAPI ACBP=A9
 0001:0006C344 0000001E C=CODE     S=.text    G=(none)   M=DesignIntf ACBP=A9
 0001:0006C364 0000000E C=CODE     S=.text    G=(none)   M=DesignMenus ACBP=A9
 0001:0006C374 00000284 C=CODE     S=.text    G=(none)   M=EWait    ACBP=A9
 0001:0006C5F8 0000041C C=CODE     S=.text    G=(none)   M=EVariables ACBP=A9
 0001:0006CA14 0000000E C=CODE     S=.text    G=(none)   M=ToolIntf ACBP=A9
 0001:0006CA24 0000000E C=CODE     S=.text    G=(none)   M=FileIntf ACBP=A9
 0001:0006CA34 0000000E C=CODE     S=.text    G=(none)   M=VirtIntf ACBP=A9
 0001:0006CA44 0000000E C=CODE     S=.text    G=(none)   M=EditIntf ACBP=A9
 0001:0006CA54 00000504 C=CODE     S=.text    G=(none)   M=EIDEOptions ACBP=A9
 0001:0006CF58 00000754 C=CODE     S=.text    G=(none)   M=EAbout   ACBP=A9
 0001:0006D6AC 0000217C C=CODE     S=.text    G=(none)   M=ECommon  ACBP=A9
 0001:0006F828 00008F1C C=CODE     S=.text    G=(none)   M=EOption  ACBP=A9
 0001:00078744 00000694 C=CODE     S=.text    G=(none)   M=EMessages ACBP=A9
 0001:00078DD8 00000DB4 C=CODE     S=.text    G=(none)   M=EParser  ACBP=A9
 0001:00079B8C 00002494 C=CODE     S=.text    G=(none)   M=EToolsAPI ACBP=A9
 0001:0007C020 00000284 C=CODE     S=.text    G=(none)   M=EMain    ACBP=A9
 0001:0007C2A4 00000365 C=CODE     S=.text    G=(none)   M=ExceptionExpert7 ACBP=A9
 0002:00000000 00000030 C=DATA     S=.data    G=DGROUP   M=SysInit  ACBP=A9
 0002:00000030 00000014 C=DATA     S=.data    G=DGROUP   M=ELeaks   ACBP=A9
 0002:00000044 00000908 C=DATA     S=.data    G=DGROUP   M=EConsts  ACBP=A9
 0002:0000094C 00000024 C=DATA     S=.data    G=DGROUP   M=ECore    ACBP=A9
 0002:00000970 0000004C C=DATA     S=.data    G=DGROUP   M=EDebug   ACBP=A9
 0002:000009BC 000001A0 C=DATA     S=.data    G=DGROUP   M=EHook    ACBP=A9
 0002:00000B5C 00000001 C=DATA     S=.data    G=DGROUP   M=ESockets ACBP=A9
 0002:00000B60 00000FCC C=DATA     S=.data    G=DGROUP   M=EZlib    ACBP=A9
 0002:00001B2C 00000212 C=DATA     S=.data    G=DGROUP   M=EHash    ACBP=A9
 0002:00001D40 000000C0 C=DATA     S=.data    G=DGROUP   M=EBase64  ACBP=A9
 0002:00001E00 00002B88 C=DATA     S=.data    G=DGROUP   M=EWebTools ACBP=A9
 0002:00004988 00000020 C=DATA     S=.data    G=DGROUP   M=EXMLBuilder ACBP=A9
 0002:000049A8 00000020 C=DATA     S=.data    G=DGROUP   M=ELogManager ACBP=A9
 0002:000049C8 000012D5 C=DATA     S=.data    G=DGROUP   M=EDisAsm  ACBP=A9
 0002:00005CA0 00000558 C=DATA     S=.data    G=DGROUP   M=ExceptionLog ACBP=A9
 0002:000061F8 000001BC C=DATA     S=.data    G=DGROUP   M=EBaseModule ACBP=A9
 0002:000063B4 00000008 C=DATA     S=.data    G=DGROUP   M=ECommon  ACBP=A9
 0002:000063BC 00000048 C=DATA     S=.data    G=DGROUP   M=EOption  ACBP=A9
 0002:00006404 00000028 C=DATA     S=.data    G=DGROUP   M=EParser  ACBP=A9
 0002:0000642C 00000020 C=DATA     S=.data    G=DGROUP   M=EToolsAPI ACBP=A9
 0002:00007000 00000010 C=BSS      S=.bss     G=DGROUP   M=SysInit  ACBP=A9
 0002:00007010 00000004 C=BSS      S=.bss     G=DGROUP   M=Windows  ACBP=A9
 0002:00007014 00000004 C=BSS      S=.bss     G=DGROUP   M=Messages ACBP=A9
 0002:00007018 00000004 C=BSS      S=.bss     G=DGROUP   M=CommCtrl ACBP=A9
 0002:0000701C 00000004 C=BSS      S=.bss     G=DGROUP   M=Imm      ACBP=A9
 0002:00007020 00000004 C=BSS      S=.bss     G=DGROUP   M=ShlObj   ACBP=A9
 0002:00007024 00000004 C=BSS      S=.bss     G=DGROUP   M=UrlMon   ACBP=A9
 0002:00007028 00000004 C=BSS      S=.bss     G=DGROUP   M=WinInet  ACBP=A9
 0002:0000702C 00000004 C=BSS      S=.bss     G=DGROUP   M=RegStr   ACBP=A9
 0002:00007030 00000004 C=BSS      S=.bss     G=DGROUP   M=ShellAPI ACBP=A9
 0002:00007034 00000004 C=BSS      S=.bss     G=DGROUP   M=WinSpool ACBP=A9
 0002:00007038 00000004 C=BSS      S=.bss     G=DGROUP   M=CommDlg  ACBP=A9
 0002:0000703C 00000004 C=BSS      S=.bss     G=DGROUP   M=Dlgs     ACBP=A9
 0002:00007040 00000004 C=BSS      S=.bss     G=DGROUP   M=RichEdit ACBP=A9
 0002:00007044 0000004C C=BSS      S=.bss     G=DGROUP   M=ELeaks   ACBP=A9
 0002:00007090 00000004 C=BSS      S=.bss     G=DGROUP   M=ETypes   ACBP=A9
 0002:00007094 00000004 C=BSS      S=.bss     G=DGROUP   M=EConsts  ACBP=A9
 0002:00007098 00000009 C=BSS      S=.bss     G=DGROUP   M=ECore    ACBP=A9
 0002:000070A4 00000004 C=BSS      S=.bss     G=DGROUP   M=EDebug   ACBP=A9
 0002:000070A8 00000004 C=BSS      S=.bss     G=DGROUP   M=WinSock  ACBP=A9
 0002:000070AC 00000010 C=BSS      S=.bss     G=DGROUP   M=EHook    ACBP=A9
 0002:000070BC 00000004 C=BSS      S=.bss     G=DGROUP   M=ELang    ACBP=A9
 0002:000070C0 00000004 C=BSS      S=.bss     G=DGROUP   M=ESockets ACBP=A9
 0002:000070C4 0000311C C=BSS      S=.bss     G=DGROUP   M=EZlib    ACBP=A9
 0002:0000A1E0 00000404 C=BSS      S=.bss     G=DGROUP   M=EHash    ACBP=A9
 0002:0000A5E4 0000001C C=BSS      S=.bss     G=DGROUP   M=EEncrypt ACBP=A9
 0002:0000A600 00000004 C=BSS      S=.bss     G=DGROUP   M=EBase64  ACBP=A9
 0002:0000A604 00000004 C=BSS      S=.bss     G=DGROUP   M=EZip     ACBP=A9
 0002:0000A608 00000044 C=BSS      S=.bss     G=DGROUP   M=EWebTools ACBP=A9
 0002:0000A64C 00000004 C=BSS      S=.bss     G=DGROUP   M=EXMLBuilder ACBP=A9
 0002:0000A650 00000004 C=BSS      S=.bss     G=DGROUP   M=ELogManager ACBP=A9
 0002:0000A654 00000004 C=BSS      S=.bss     G=DGROUP   M=EListView ACBP=A9
 0002:0000A658 00000004 C=BSS      S=.bss     G=DGROUP   M=EDisAsm  ACBP=A9
 0002:0000A65C 00000E5C C=BSS      S=.bss     G=DGROUP   M=ExceptionLog ACBP=A9
 0002:0000B4B8 00000004 C=BSS      S=.bss     G=DGROUP   M=EDesign  ACBP=A9
 0002:0000B4BC 0000003C C=BSS      S=.bss     G=DGROUP   M=EBorlandDebug ACBP=A9
 0002:0000B4F8 00000004 C=BSS      S=.bss     G=DGROUP   M=EResource ACBP=A9
 0002:0000B4FC 00000018 C=BSS      S=.bss     G=DGROUP   M=EBaseModule ACBP=A9
 0002:0000B514 00000008 C=BSS      S=.bss     G=DGROUP   M=EWait    ACBP=A9
 0002:0000B51C 00000008 C=BSS      S=.bss     G=DGROUP   M=EVariables ACBP=A9
 0002:0000B524 00000008 C=BSS      S=.bss     G=DGROUP   M=EIDEOptions ACBP=A9
 0002:0000B52C 00000008 C=BSS      S=.bss     G=DGROUP   M=EAbout   ACBP=A9
 0002:0000B534 0000002C C=BSS      S=.bss     G=DGROUP   M=ECommon  ACBP=A9
 0002:0000B560 0000000C C=BSS      S=.bss     G=DGROUP   M=EOption  ACBP=A9
 0002:0000B56C 00000008 C=BSS      S=.bss     G=DGROUP   M=EMessages ACBP=A9
 0002:0000B574 00000051 C=BSS      S=.bss     G=DGROUP   M=EParser  ACBP=A9
 0002:0000B5C8 0000000C C=BSS      S=.bss     G=DGROUP   M=EToolsAPI ACBP=A9
 0002:0000B5D4 00000008 C=BSS      S=.bss     G=DGROUP   M=EMain    ACBP=A9


  Address         Publics by Name

 0002:00000E24       ..
 0002:00000C3C       ..
 0002:000010C0       ..
 0001:000173AC       ..
 0001:000177B8       ..
 0001:00015EEC       ..
 0002:00000DD4       ..
 0002:00000CBC       ..
 0002:00000C68       ..
 0002:000090C8       ..
 0001:000149D8       ..
 0002:00000C50       ..
 0002:00000B88       ..
 0002:00000BE4       ..
 0002:00000F94       ..
 0001:0001C328       ..
 0002:00000C48       ..
 0001:00017880       ..
 0002:00009954       ..
 0002:000070C8       ..
 0002:00007018       .1
 0002:0000B574       .1
 0002:00007008       .1
 0002:00007030       .1
 0002:0000B4BC       .1
 0002:0000A5E4       .1
 0002:0000A600       .1
 0002:000070BC       .1
 0002:00007038       .1
 0002:0000703C       .1
 0002:00007040       .1
 0002:00007014       .1
 0002:0000705C       .1
 0002:0000B5C8       .1
 0002:000070AC       .1
 0002:000070A8       .1
 0002:00007090       .1
 0002:0000B4B8       .1
 0002:0000A1E0       .1
 0002:0000702C       .1
 0002:00007028       .1
 0002:00007024       .1
 0002:00007020       .1
 0002:0000701C       .1
 0002:0000B5D4       .1
 0002:000070C4       .2
 0002:0000B570       .2
 0002:0000B518       .2
 0002:0000B520       .2
 0002:0000B528       .2
 0002:0000A654       .2
 0002:0000A658       .2
 0002:0000B530       .2
 0002:0000A680       .21
 0002:0000B538       .3
 0002:00007010       .3
 0002:0000A604       .3
 0002:0000A650       .3
 0002:0000A64C       .3
 0002:00007034       .3
 0002:000070C0       .4
 0002:0000709C       .4
 0002:00007094       .5
 0002:0000A608       .7
 0002:0000B560       .7
 0002:0000B4F8       .8
 0002:0000B510       .8
 0002:000070A4       .92
 0001:0001822C       @deflateInit2_
 0001:00017478       @fill_fopen_filefunc
 0001:0007C5E4       @GetPackageInfoTable
 0001:000004E8       @GetTls
 0001:000179B0       @get_crc_table
 0001:0001A960       @inflateInit2_
 0001:0001A3A8       @inflate_fast
 0001:0001BEB8       @inflate_table
 0001:00000558       @InitPkg
 0001:0007C5EC       @PackageLoad
 0001:000005BC       @PackageLoad
 0001:000005C8       @PackageUnload
 0001:0007C5F8       @PackageUnload
 0001:0001D528       @_tr_align
 0001:0001D7F4       @_tr_flush_block
 0001:0001C32C       @_tr_init
 0001:0001D46C       @_tr_stored_block
 0001:0006EC24       AboutBox
 0001:0004E8AC       AccessViolationModuleInLongFormat
 0001:00045520       ActicatePage
 0002:000063DC       ActionValues
 0002:0000B52C       ActivateDelay
 0002:0000A7F8       ActivateEurekaLog
 0001:0006E094       Add
 0001:0002120C       AddAuthenticationToURL
 0001:00054704       AddCallerCallStack
 0001:0004934C       AddColor
 0001:000411C0       AddCustomHeadersToLog
 0001:00041064       AddCustomHeaderToLog
 0001:0001358C       AddDNS
 0002:00007058       AddLeak
 0001:0007A97C       AddMenuItem
 0001:0003FF30       AddModule
 0001:0006E2A4       AddModulePath
 0001:0003A098       AddNewProcess
 0001:0003A460       AddNewProcessEx
 0001:0001173C       AddrSize
 0001:0004D704       AddStr
 0001:000400B4       AddToStack
 0001:000289B4       AddValueField
 0001:00014518       AddZipFile
 0001:00045470       AdjustDialog
 0001:00063C84       AdjustDir
 0001:00042958       AdjustFlatStyle
 0001:0005C910       AdjustFontLanguage
 0001:0005C8A8       AdjustXPThemeSupport
 0001:000174B0       adler32
 0001:00049F14       AfterScreenshot
 0001:00049C2C       AfterScreenshotToStream
 0002:00007074       AllocatedList_End
 0002:0000706C       AllocatedList_Lock
 0002:00007070       AllocatedList_Start
 0001:00000418       AllocTlsBuffer
 0002:00004968       AlphaNumerics
 0001:000406F4       ApplicationRestore
 0001:00002554       AreTheSameLeak
 0001:0003EF50       ASMAssigned
 0002:00000A5C       AsmConst
 0001:00043EF8       AssemblerDialogProc
 0001:00036428       AssemblerToRTF
 0001:00047948       AssignOnCloseData
 0001:000419C8       AssignPriority
 0001:000477A8       AssignRequestData
 0001:00010F6C       AssignValidDebugInfo
 0001:0004AD88       AttachedFile
 0001:0004AFE4       AttachedFiles
 0002:0000A674       AttachedFilesRequest
 0001:00050454       AttrToString
 0002:0000A800       AutoCloseTimer
 0001:00040F38       AutoCloseTimerProc
 0001:0001F1C0       Base64Decode
 0001:0001F2A0       Base64DecodeStr
 0001:0001F308       Base64DecodeString
 0001:0001F104       Base64Encode
 0001:0004A960       Base64EncodeFromFile
 0001:0001F254       Base64EncodeStr
 0001:0001F300       Base64EncodeString
 0001:0001F310       Base64EncodeToString
 0001:0005C92C       BaseDir
 0001:00000A4C       BeginPaint
 0002:0000B5BC       BeginWord
 0001:0000A110       BinToStr
 0001:0000094C       BitBlt
 0001:0004D294       BlockingSendInternetMessage
 0002:00000034       BlockOverFoot
 0002:00000030       BlockOverHead
 0001:0003A6F4       BuildListPS
 0001:0003A5BC       BuildListTH
 0002:00005C88       ByteRegs1
 0002:00005C8C       ByteRegs2
 0001:000494B4       BytesPerScanline
 0001:00048F28       BytesSwap
 0002:0000A9EC       Cached_LogFile
 0001:00058100       CalcAddr
 0001:00048F58       CalcCRC
 0001:00065364       CalcCrc32
 0001:0001F0CC       CalcDecodedSize
 0001:0003D0D0       CalcDuplicatedException
 0001:0001F0A0       CalcEncodedSize
 0001:00011A98       CalculateRelocatedAsmSize
 0001:0003E1E8       CallAttachedFilesRequest
 0001:0003E258       CallAttachedFilesRequestEvents
 0001:0003E3AC       CallCustomButtonClickEvent
 0001:0003E418       CallCustomButtonClickEvents
 0001:0003E108       CallCustomDataRequest
 0001:0003E178       CallCustomDataRequestEvents
 0001:0003E2CC       CallCustomWebFieldsRequest
 0001:0003E33C       CallCustomWebFieldsRequestEvents
 0001:00001C40       CallerOfReallocMem
 0001:00058398       CallEurekaLogFromActiveX
 0001:0003DDF0       CallExceptionActionNotify
 0001:00050BCC       CallExceptionActionNotify_atSavedLogFile
 0001:00050BA8       CallExceptionActionNotify_atSavingLogFile
 0001:0004C304       CallExceptionActionNotify_atSendingEmail
 0001:0004C34C       CallExceptionActionNotify_atSendingWebMessage
 0001:0004C328       CallExceptionActionNotify_atSentEmail
 0001:0004C370       CallExceptionActionNotify_atSentWebMessage
 0001:00050E8C       CallExceptionActionNotify_atShowedExceptionInfo
 0001:00050E68       CallExceptionActionNotify_atShowingExceptionInfo
 0001:00048898       CallExceptionActionNotify_atTerminating
 0001:0003DF70       CallExceptionErrorNotify
 0001:00050BF0       CallExceptionErrorNotify_atSavedLogFile
 0001:0004C394       CallExceptionErrorNotify_atSentEmail
 0001:0004C3B8       CallExceptionErrorNotify_atSentWebMessage
 0001:0003DBDC       CallExceptionNotify
 0001:0003DC48       CallExceptionNotifyEvents
 0001:0003DCBC       CallHandledExceptionNotify
 0001:0003DD28       CallHandledExceptionNotifyEvents
 0001:0003DD34       CallModuleEvent_ExceptionActionNotify
 0001:0003DEB8       CallModuleEvent_ExceptionErrorNotify
 0001:0003E184       CallModule_AttachedFilesRequest
 0001:0003E348       CallModule_CustomButtonClickNotify
 0001:0003E0A4       CallModule_CustomDataRequest
 0001:0003E264       CallModule_CustomWebFieldsRequest
 0001:0003DB7C       CallModule_ExceptionNotify
 0001:0003DC54       CallModule_HandledExceptionNotify
 0001:0003E424       CallModule_PasswordRequestEvent
 0001:00000A54       CallNextHookEx
 0001:0003E038       CallPasswordRequest
 0001:00040384       CallStackByAddresses
 0001:000443C4       CallStackDialogProc
 0001:00058638       CallStackToStrings
 0001:00050EB0       CallWriteIntraWebText
 0001:00056C50       Call_HookedExceptionObject
 0001:00056A38       Call_HookedRaise
 0001:00056C7C       Call_HookedRtlUnwind
 0001:00048AE0       CalsCoordinates
 0002:0000A7B1       CanAttachScreenshot
 0002:0000A7AD       CanAttachScreenshot_Show
 0001:00057FC4       CanCallUnhandledException
 0002:0000A7B2       CanCopy
 0002:0000A7AE       CanCopy_Show
 0001:0003ED3C       CanExit
 0002:0000A775       CanHookLibraries
 0001:0007A03C       CanIncludeInPackage
 0002:0000619C       CannotProcessMessagesExceptions
 0002:0000A980       CannotUseThread
 0001:00054778       CanPauseThisThread
 0002:0000A7AC       CanSendError_Show
 0002:0000A7B0       CanSendMessage
 0002:0000A7AF       CanSupport_Show
 0002:0000AA1C       CaptionFontName
 0002:0000AC44       CAPTION_HEIGHT
 0002:0000B5C4       CaseSensitive
 0002:00001D80       cBase64Codec
 0002:00001D40       cBase64Codec
 0001:000423D4       CenterOnActiveWndMonitor
 0002:0000A730       CGIHandleException
 0002:0000A6DC       CGIOutputFile
 0001:0005C85C       ChangeCharset
 0001:0005B0BC       ChangeFinalizationOrder
 0001:000478BC       ChangeLogUserEmail
 0001:0007918C       CharPosToLineNo
 0002:000049A8       chars
 0002:0000623C       CheckCompiler
 0001:0005B974       CheckCrc32
 0001:00008F20       CheckDirectoryExists
 0001:00021178       CheckError
 0001:00012034       CheckFail
 0001:0005AEC4       CheckForMemoryLeaks
 0001:0003BBE4       CheckForResult
 0001:0002571C       CheckInternetConnection
 0001:00008D6C       CheckIntoIDE
 0001:000352D0       CheckMagicCode
 0001:0007B680       CheckName
 0001:00061068       CheckOptionFile
 0001:0000229C       CheckOurPointer
 0001:00072CC8       CheckValidURL
 0001:00072F40       CheckWebTrakerData
 0001:00038BB8       ClearInternalError
 0002:0000ABC1       ClickLinkActive
 0001:0002BE2C       ClickOnSign
 0001:00037450       CloneObject
 0001:00000A5C       CloseClipboard
 0001:0000065C       CloseHandle
 0001:0003D0B4       CloseLogFile
 0001:00001954       ClosePrinter
 0001:0004ACAC       CloseSendDialog
 0001:000110D4       closesocket
 0001:000146D8       CloseZipFile
 0002:0000A738       CLXHandleException
 0002:0000A73C       CLXShowException
 0002:000061E0       ColIdx
 0002:0000ABF4       ColWidths
 0001:00000954       CombineRgn
 0001:000014A4       CommCtrl
 0001:000019DC       CommDlg
 0002:0000B578       CommentsNumber
 0001:00049B70       CommonSaveToStream
 0001:0005EE48       CompareDetails
 0001:0003F114       CompareEurekaFunctions
 0001:00039B2C       CompareModulesFunctions
 0001:00039EB8       CompareProcessesFunctions
 0001:000790B4       CompareWord
 0002:000063F4       CompilationProject
 0002:0000B500       Compiled
 0001:0004F2D8       CompleteIP
 0001:0005DEDC       CompleteMapFile
 0001:00022DD4       CompleteNumber
 0001:00027C04       CompleteStr
 0001:00035A34       CompleteStr
 0001:000504A8       CompleteString
 0001:0006F1C8       CompleteVersion
 0001:0001E2AC       Compress
 0001:0001786C       compressBound
 0001:00036DC4       ComputerName
 0001:0000BD48       ComputerName
 0001:000110DC       connect
 0001:000082A8       ConvertAddress
 0001:00001ECC       ConvertAddress
 0001:00027418       ConvertNotDosText
 0001:0001FC68       ConvertSpecialHTMLChars
 0001:00000CA4       CopyMemory
 0001:00000A64       CopyRect
 0001:0003E684       CopyStrings
 0001:00002AD8       CountAllLeaks
 0001:00045244       CPUDialogProc
 0001:000367C4       CPUToRTF
 0002:00001B2C       Crc16Tab
 0001:000179C4       crc32
 0002:0000A1E4       crc_table
 0002:00001D2C       crc_table_computed
 0001:000496C8       Create8bitBitmap
 0001:0000095C       CreateBitmap
 0001:00000964       CreateCompatibleBitmap
 0001:0000096C       CreateCompatibleDC
 0001:00000CDC       CreateDialog
 0001:00040BCC       CreateDialogFonts
 0001:00000A6C       CreateDialogParam
 0001:00000974       CreateDIBSection
 0001:00041C7C       CreateExceptionReport
 0001:00000664       CreateFile
 0001:0000066C       CreateFileMapping
 0001:0000097C       CreateFont
 0001:00000984       CreateFontIndirect
 0001:00050EBC       CreateGeneralText
 0001:0003AFD4       CreateHTMLByLayout
 0001:0003D7E0       CreateHTMLFile
 0001:00041F4C       CreateLeakReport
 0001:0005213C       CreateLogText
 0001:00000674       CreateMailslot
 0001:000139B0       CreateMXQuery
 0001:000492E8       CreateOctreeNode
 0001:0000098C       CreatePalette
 0001:0000067C       CreateProcess
 0001:00000994       CreateRectRgn
 0001:0000099C       CreateRectRgnIndirect
 0001:000009A4       CreateSolidBrush
 0001:0003B3AC       CreateTemplateFile
 0001:000420EC       CreateThreadStr
 0001:0004BE04       CreateTmpLogFile
 0001:00036F48       CreateVirtualFile
 0001:0003D8AC       CreateXMLLogCopy
 0001:0004C3DC       CreateZIPFile
 0001:00014484       CreateZipFile
 0001:0005A3B0       Create_EurekaLogUnitsList
 0002:0000094C       CriticalError
 0002:000061C0       CriticalExceptObject
 0002:0000A764       CurrentAsmErrorLine
 0002:0000A76C       CurrentAsmErrorText
 0002:0000A770       CurrentCPUErrorText
 0002:0000A804       CurrentDialog
 0001:00058174       CurrentEurekaLogOptions
 0002:0000A768       CurrentGeneralErrorText
 0002:0000A6D8       CurrentOptions
 0002:0000B50C       CurrentPersonality
 0002:0000A81C       CurrentProcessWindowsList
 0002:0000A7D0       CurrentRequestValue
 0002:000061AC       CurrentStackList
 0002:0000A67C       CustomButtonClickNotify
 0002:0000A670       CustomDataRequest
 0002:0000A79C       CustomExceptMessage
 0002:0000A678       CustomWebFieldsRequest
 0002:0000A5E8       CV
 0002:0000A818       DbgSection
 0002:0000A958       DebugHook_Assigned
 0001:00064ECC       DebugNotFoundProcedure
 0001:0004D754       DebugToStr
 0001:0000E578       DecodeNameString
 0001:0001EFA4       Decrypt
 0001:00063A10       DefaultOptionFile
 0001:000187FC       deflate
 0001:00018AC0       deflateEnd
 0001:00013F64       DeflateInit
 0001:00018210       deflateInit_
 0001:00000A74       DefWindowProc
 0001:00000684       DeleteCriticalSection
 0001:000009AC       DeleteDC
 0001:0004C54C       DeleteExtraFiles
 0001:0000068C       DeleteFile
 0001:00062200       DeleteLine
 0001:000009B4       DeleteObject
 0001:000491FC       DeleteTree
 0001:000370D4       DeleteVirtualFile
 0002:0000B5CC       DesignNotifier
 0001:00040E14       DestroyDialogFonts
 0001:00000A7C       DestroyWindow
 0002:0000AC34       DetailsActive
 0001:00042998       DetailsState
 0001:00000A84       DialogBoxParam
 0002:0000AC40       DialogHeight
 0002:0000A968       DialogType
 0002:000063BC       DialogValues
 0001:0003B388       DirectoryExists
 0001:0000342C       DisableMemoryLeaksCheck
 0001:00000A8C       DispatchMessage
 0001:00001A14       Dlgs
 0001:00040884       DlgTemplate
 0001:0005DF88       DllFullPath
 0002:0000B4F4       DllHandle
 0002:000070B4       DllList
 0001:00062DA8       DLLNameFromThunkData
 0001:00014908       DoExtract
 0001:00014700       DoExtractCurrentFile
 0001:0007C200       Done
 0001:0005C280       Done
 0001:0006C214       Done
 0001:00013DE4       Done
 0001:0007BF40       Done
 0001:0000C084       Done
 0001:0006F130       Done
 0001:0005E47C       Done
 0001:0000353C       Done
 0001:00012594       Done
 0001:000785C8       Done
 0001:00059B34       DoneCheckFreeze
 0002:0000A72C       DoneExcept
 0001:0005B070       DoneExceptAddr
 0001:00020C8C       DoneLib
 0001:0007AE6C       DoneMenu
 0001:0007AF88       DoneNotifier
 0001:0002B5F0       DrawBmp
 0001:0002C174       DrawBottom
 0001:000476D8       DrawButton
 0001:0004756C       DrawClickHere
 0001:000474E8       DrawControl
 0001:0002C100       DrawFrame
 0001:00000A94       DrawIconEx
 0001:0002C21C       DrawItem
 0001:0002C1C8       DrawLine
 0001:00045800       DrawSupportLink
 0001:00000A9C       DrawText
 0002:0000A7B3       DuplicatedException
 0001:00000694       DuplicateHandle
 0001:0006D6A4       EAbout
 0001:0001F374       EBase64
 0001:0006C2FC       EBaseModule
 0001:0005E4C0       EBorlandDebug
 0001:0006F7D0       ECommon
 0001:00006970       EConsts
 0001:0000C0DC       ECore
 0001:000110CC       EDebug
 0001:0005CE74       EDesign
 0001:00033D44       EDisAsm
 0001:0001F098       EEncrypt
 0001:0001EC98       EHash
 0001:00012690       EHook
 0001:0006CF50       EIDEOptions
 0001:000630E0       ElaborateParameter
 0001:00027894       ElaborateString
 0001:00062860       ElaborateText
 0001:00021434       ElaborateURL
 0001:00021594       ElaborateWebPage
 0001:000127A0       ELang
 0001:000035FC       ELeaks
 0001:0002C8A0       EListView
 0001:0002B4EC       ELogManager
 0001:0007C274       EMain
 0001:00078DD0       EMessages
 0001:00000AA4       EmptyClipboard
 0002:0000004C       EMsgs
 0001:000032A0       EnableMemoryLeaksCheck
 0001:00000AAC       EnableWindow
 0001:00049120       Encode
 0002:00004988       EncodedChars
 0001:0004BF68       EncodeURL
 0001:0001EEF8       Encrypt
 0001:00058E34       EndAntiFreeze
 0002:00006328       EndChars0
 0002:00006348       EndChars1
 0002:0000B58C       EndComments
 0002:00006208       EndComments
 0001:00000AB4       EndDialog
 0001:0007BEF8       EndKeyHook
 0001:00000ABC       EndPaint
 0002:00006404       EndProcWord
 0002:0000B5C0       EndWord
 0001:0000069C       EnterCriticalSection
 0001:00078FAC       EnumerateWord
 0001:000009BC       EnumFontFamiliesEx
 0001:0005C6F4       EnumFontFamProc
 0001:0000195C       EnumPrinters
 0001:000006A4       EnumSystemLocales
 0001:00000AC4       EnumWindows
 0001:00038EF4       EnumWindowsProc
 0001:00038DE4       EnumWindowsProc
 0001:00038D8C       EnumWindowsProc
 0001:00063B38       EnvironmentStringsToList
 0001:00007788       EnvironmentVariable
 0001:0000D874       Eof
 0001:00078710       EOption
 0001:00079B84       EParser
 0001:00060904       EResource
 0001:0004A010       Error
 0001:00072C7C       Error
 0001:0005D2BC       ErrorType
 0002:00000824       EShowOptions
 0001:00013E44       ESockets
 0001:0007BFC8       EToolsAPI
 0001:00004610       ETypes
 0001:00063AD8       EurekaDefaultOptionFile
 0002:00000044       EurekaLogCurrentVersion
 0001:000639E0       EurekaLogFirstLine
 0002:0000643C       EurekaLogItem
 0001:000639F8       EurekaLogLastLine
 0002:0000A7CC       EurekaLogList
 0001:0006E7CC       EurekaLogPath
 0001:00079F78       EurekaLogRequiredFileName
 0001:0004A8BC       EurekaLogSendEmail
 0001:00008C38       EurekaLogType
 0002:00005CA4       EurekaLogUnits
 0002:0000A7F4       EurekaLogUnitsList
 0001:0003EB50       EurekaLog_AttachedFilesRequestEvent
 0001:000572B0       EurekaLog_CallCreateThread
 0001:00056B38       EurekaLog_CallExceptObject
 0001:000573E8       EurekaLog_CallExitThread
 0001:00056A04       EurekaLog_CallGeneralRaise
 0001:00057344       EurekaLog_CallResumeThread
 0001:0003EC98       EurekaLog_CustomButtonClickEvent
 0001:0003EAAC       EurekaLog_CustomDataRequestEventEx
 0001:0003EBF4       EurekaLog_CustomWebFieldsRequestEvent
 0001:0003E964       EurekaLog_ExceptionActionNotifyEvent
 0001:0003EA08       EurekaLog_ExceptionErrorNotifyEvent
 0001:0003E81C       EurekaLog_ExceptionNotifyEvent
 0001:0003E8C0       EurekaLog_HandledExceptionNotifyEvent
 0001:0003E708       EurekaLog_PasswordRequestEvent
 0001:0003E74C       EurekaLog_PasswordRequestEventEx
 0001:0007791C       EurekaUnitExists
 0001:0007785C       EurekaUnitFullPath
 0002:000005AC       EVals
 0001:0006CA0C       EVariables
 0002:000008E4       EVariablesOptions
 0001:0006C5F0       EWait
 0001:00026AD8       EWebTools
 0002:0000A664       ExceptionActionNotify
 0002:0000A6AC       ExceptionCriticalSection
 0002:0000A668       ExceptionErrorNotify
 0001:0007C604       ExceptionExpert7
 0001:000381BC       ExceptionLine
 0001:0005C688       ExceptionLog
 0001:00058E90       ExceptionManager
 0002:0000A65C       ExceptionNotify
 0002:0000A6E4       ExceptionNumber
 0002:0000A80C       ExceptionsTime
 0002:0000A810       ExceptionTime
 0001:0003B910       ExceptionTypeByAddr
 0001:000560B8       ExceptNotify
 0001:0004D57C       ExceptNotifyAfter1
 0001:0004D678       ExceptNotifyAfter2
 0001:0004D68C       ExceptNotifyAfter3
 0001:000004C4       ExitProcessTLS
 0001:000006AC       ExitThread
 0001:0000049C       ExitThreadTLS
 0001:000271D8       EXMLBuilder
 0001:000006B4       ExpandEnvironmentStrings
 0001:000076AC       ExpandEnvVar
 0001:0003F198       ExportedFunctions
 0002:00006418       ExternalWord
 0001:0003CB7C       ExtractDebugData
 0001:00001BCC       ExtractFileName
 0001:0005D27C       ExtractFileNameEx
 0001:00059314       ExtractGZipStream
 0001:0003D224       ExtractList
 0001:00064550       ExtractProcName
 0001:0005D0E4       ExtractProcName
 0001:0003C624       ExtractStr
 0001:0005CF6C       ExtractStr
 0001:0000875C       ExtractStringsEx
 0001:00041AB0       ExtractThreadByList
 0001:00064624       ExtractUnitName
 0001:00028ECC       ExtractValue
 0001:00014974       ExtractZipFiles
 0001:0001F62C       EZip
 0001:0001E19C       EZlib
 0002:0000A9F8       fActive
 0002:000061D8       fActivePage
 0001:00059F74       FastMM_LogStackTrace
 0002:0000AA14       fBigFont
 0002:0000A9FC       fCaptionFont
 0002:0000A9F0       fDlgBack
 0001:000507E8       FetchStr
 0002:0000AA04       fFixedFont1
 0002:0000AA08       fFixedFont2
 0001:000006BC       FileTimeToDosDateTime
 0001:000006C4       FileTimeToLocalFileTime
 0001:0003DA38       FillAttachedList
 0001:00000ACC       FillRect
 0001:00039FAC       FillThreadsCount
 0001:0007BF5C       Finalization
 0001:0000186C       Finalization
 0001:000608D4       Finalization
 0001:0006F764       Finalization
 0001:0001113C       Finalization
 0001:0006CF20       Finalization
 0001:0005CE44       Finalization
 0001:00033CA8       Finalization
 0001:00026A88       Finalization
 0001:0001F068       Finalization
 0001:00011030       Finalization
 0001:0006D674       Finalization
 0001:0006C9DC       Finalization
 0001:00012770       Finalization
 0001:0002C870       Finalization
 0001:0005C4D8       Finalization
 0001:0001EC68       Finalization
 0001:0000182C       Finalization
 0001:000271A8       Finalization
 0001:0001263C       Finalization
 0001:000017F4       Finalization
 0001:0002B4BC       Finalization
 0001:000017BC       Finalization
 0001:0001E16C       Finalization
 0001:00079AC0       Finalization
 0001:000068EC       Finalization
 0001:0006C228       Finalization
 0001:0005E488       Finalization
 0001:000045E0       Finalization
 0001:000005D4       Finalization
 0001:00001784       Finalization
 0001:0000161C       Finalization
 0001:000035C4       Finalization
 0001:00078638       Finalization
 0001:00001474       Finalization
 0001:00000D3C       Finalization
 0001:00000CF4       Finalization
 0001:0001F5FC       Finalization
 0001:0001F344       Finalization
 0001:00078DA0       Finalization
 0001:0000C088       Finalization
 0001:0006C5C0       Finalization
 0001:00001974       Finalization
 0001:000019AC       Finalization
 0001:0007C220       Finalization
 0001:000019E4       Finalization
 0001:00001A6C       Finalization
 0001:00013DEC       Finalization
 0002:0000704C       FinalizationProc
 0002:00006410       FinalizationWord
 0001:000006CC       FindClose
 0001:0004BD84       FindEOFLine
 0001:00021068       FindErrorMessage
 0001:00050E14       FindException
 0001:000006D4       FindFirstFile
 0001:00064838       FindFirstLine
 0001:0007B718       FindFullPath
 0001:0003A250       FindFullPath
 0001:0003CADC       FindFunction
 0001:000352E4       FindHandled
 0001:00002620       FindLeakAddress
 0001:00002830       FindLeakClassName
 0001:00002578       FindLeakSons
 0001:0005B8B0       FindMainInstance
 0001:00071B1C       FindModuleInterface
 0001:000392E8       FindModuleType
 0001:000024D4       FindNextValidLeak
 0001:0000D9E4       FindParam
 0001:00064BF0       FindProcByAddr
 0001:00039EF8       FindProcess
 0001:000793C0       FindProcStartIdx
 0001:000799B8       FindProcStartLineCppBuilder
 0001:00079870       FindProcStartLineDelphi
 0001:000006DC       FindResource
 0001:0002B130       FindSection
 0001:00020804       FindSelected
 0001:00064B48       FindUnit
 0001:000669B4       FindUnits
 0001:00000AD4       FindWindow
 0001:0007926C       FindWord
 0002:0000AA20       FixedFontName1
 0002:0000AA24       FixedFontName2
 0002:0000AA18       FixedFontSize
 0002:0000AC48       FixedTmpOptionsFile
 0002:0000AA0C       fLinkFont
 0002:0000AA10       fLinkFont2
 0002:0000AB9C       fListViewItems
 0002:00005388       FloatingPointOpcodes
 0001:000006E4       FlushInstructionCache
 0002:0000A9F4       fMemoBack
 0002:0000AB7C       fMonitor
 0002:0000AB84       fMonitorInfo
 0001:0005C70C       FontFamily
 0001:000584CC       ForceApplicationTermination
 0001:00050AE8       FormatComplete
 0001:00010A2C       FormatProcName
 0002:00006414       ForwardWord
 0001:00000ADC       FrameRect
 0001:00002AAC       FreeAllLeaks
 0001:00037484       FreeClonedObject
 0001:000006EC       FreeEnvironmentStrings
 0001:0007AE34       FreeItem
 0001:000006F4       FreeLibrary
 0001:000003E0       FreeLibrary
 0001:00035554       FreeOutOfMemoryCache
 0001:00049FA4       FreeScreenshot
 0002:0000A778       FreezeThread
 0002:0000AB80       fSendBmp
 0002:0000A638       FtpOpenFile
 0001:000262EC       FTPUploadFiles
 0001:00071930       FullEnaled
 0002:0000AA00       fVariableFont
 0001:0004503C       GeneralDialogProc
 0001:000568A0       GeneralRaise
 0001:00035FE8       GeneralToRTF
 0001:0003B264       GenerateHTML
 0001:00021CD4       GenerateMultipartBoundary
 0001:00025794       GenerateMultipartBoundary
 0001:000258C4       GenerateRequestBody
 0001:00021E28       GenerateRequestBody
 0001:000006FC       GetACP
 0001:0004E470       GetActiveControlClass
 0001:0004E488       GetActiveControlText
 0001:0004E390       GetActiveFormClass
 0001:00071E0C       GetActiveFormClass
 0001:0004E3DC       GetActiveFormText
 0001:00042154       GetActiveMonitorData
 0001:00077ED8       GetActiveProjectFileName
 0001:0004F414       GetAdapterInfo
 0001:0005EAC4       GetAlign
 0001:00039F78       GetAllocatedMemory
 0001:0004EFA4       GetApplicationName
 0001:00038E5C       GetApplicationRect
 0001:0004E370       GetApplicationUpTime
 0001:000118A4       GetAsmSize
 0001:00056628       GetBaseOfStack
 0001:00047650       GetBottonWidth
 0001:00000CD8       GetBValue
 0001:00040644       GetCallStackByAddresses
 0001:000585DC       GetCallStackByLevels
 0001:00037EA8       GetCallStackDump
 0001:00000AE4       GetClassName
 0001:0002C6F0       GetColumnAlign
 0001:0002C6C4       GetColumnCount
 0001:00000704       GetCommandLine
 0001:000506C0       GetCompanyName
 0001:0004E314       GetCompilationDate
 0001:00058E3C       GetCompilationDate
 0001:00035ABC       GetCompleteTimeStr
 0001:0000070C       GetComputerName
 0001:00055BE8       GetControlClass
 0001:00055C40       GetControlText
 0001:0006AEAC       GetCppBuilderModuleInfo
 0001:00062A30       GetCppFileOptionValue
 0001:0001E248       GetCRC16
 0001:0001E200       GetCRC32
 0001:0005852C       GetCurrentCallStack
 0001:00077F30       GetCurrentModuleName
 0001:0006BC40       GetCurrentModuleName
 0002:0000B504       GetCurrentModuleNameProc
 0001:000009C4       GetCurrentObject
 0001:0005091C       GetCurrentPrinterHandle
 0001:00000714       GetCurrentProcess
 0001:0000071C       GetCurrentProcessId
 0001:00071BE8       GetCurrentProject
 0001:00071CFC       GetCurrentProjectName
 0001:00058E88       GetCurrentStackPointer
 0001:00056630       GetCurrentStackPointer
 0001:00058310       GetCurrentStackPointer
 0001:00000724       GetCurrentThread
 0001:0000072C       GetCurrentThreadId
 0001:000374A4       GetCurrentTopOfStack
 0001:000504E8       GetCurrentUserPrivileges
 0001:00000AEC       GetCursor
 0001:00000AF4       GetCursorPos
 0001:0007A92C       GetCustomMenu
 0001:0007A8DC       GetCustomMenuIndex
 0001:000023A4       GetDataCaller
 0001:00000AFC       GetDC
 0001:0005D3C4       GetDebugData
 0001:00040074       GetDebugDetail
 0001:0004D7F4       GetDebugInfoEx
 0001:0003CF40       GetDebugInfosByAddr
 0001:0003C8B0       GetDebugPartialInfo
 0001:0005081C       GetDefaultPrinter
 0001:0006ABD4       GetDelphiModuleInfo
 0001:00000B04       GetDesktopWindow
 0001:000009D4       GetDeviceCaps
 0001:0004544C       GetDialogState
 0001:000009CC       GetDIBits
 0001:0006A5B4       GetDirectiveValue
 0001:0004ED68       GetDiskInfo
 0001:000503FC       GetDisplayDPI
 0001:0004F238       GetDisplayMode
 0001:00000B0C       GetDlgItem
 0001:000135B0       GetDNSList
 0001:0001376C       GetDomain
 0001:000138D8       GetDomainName
 0001:00051E24       GetDump
 0001:00051B64       GetEAX
 0001:00051BBC       GetEBX
 0001:00051C14       GetECX
 0001:00051D1C       GetEDI
 0001:00047740       GetEditText
 0001:00051C6C       GetEDX
 0001:0003EF48       GetEF
 0001:000326C4       GetEffectiveAddress
 0001:00051DCC       GetEIP
 0001:00052094       GetEmptySection
 0001:00000734       GetEnvironmentStrings
 0001:0000073C       GetEnvironmentVariable
 0001:00051CC4       GetESI
 0001:00037E98       GetESP
 0001:00051D74       GetESP
 0001:00008CF8       GetEurekaLogLabel
 0001:0003F654       GetEurekaLogModuleVersion
 0001:0004E6B8       GetExceptionAddress
 0001:0004E6A0       GetExceptionDate
 0001:0004EB78       GetExceptionMessage
 0001:0004E6EC       GetExceptionModuleName
 0001:0004E7A8       GetExceptionModuleVersion
 0001:0004E808       GetExceptionType
 0001:00040794       GetExceptMessage
 0001:00000744       GetExitCodeProcess
 0001:0000074C       GetExitCodeThread
 0001:000200A4       GetFieldValue
 0001:00000754       GetFileAttributes
 0001:00020FFC       GetFileContents
 0001:00025858       GetFileContents
 0001:000262B0       GetFileSize
 0001:00039AF8       GetFileSize
 0001:000144DC       GetFileSize
 0001:0000075C       GetFileTime
 0001:0004F8E0       GetFileVersionEx
 0001:00000934       GetFileVersionInfo
 0001:0000093C       GetFileVersionInfoSize
 0001:00000B14       GetFocus
 0001:00000B1C       GetForegroundWindow
 0001:00001F44       GetFramesCallStackDump
 0001:0004EE4C       GetFreeDisk
 0001:0004ECD8       GetFreeMemory
 0001:0004DABC       GetFunctionAsm
 0001:000119DC       GetFunctionSize
 0001:00008BCC       GetGMT
 0001:00008C0C       GetGMTDateTime
 0001:00000CD4       GetGValue
 0001:00000764       GetHandleInformation
 0001:0001110C       gethostbyname
 0001:00011114       gethostname
 0001:0002675C       GetHTMLPage
 0001:00025B98       GetHTTPResponse
 0001:0002164C       GetHTTPResponse
 0001:00000B24       GetIconInfo
 0001:00062D0C       GetImageData
 0001:0005EA34       GetImageNtHeaders
 0001:00010D54       GetImageNtHeaders
 0001:0004FAD4       GetIndexKeyName
 0001:0005646C       GetIntraWebExceptionType
 0001:0002B5C8       GetItemRect
 0001:00044378       GetItemText
 0001:0004E654       GetLanguageString
 0001:00000B2C       GetLastActivePopup
 0001:0000076C       GetLastError
 0001:00058510       GetLastEurekaLogErrorCode
 0001:00058518       GetLastEurekaLogErrorMsg
 0001:0003DB54       GetLastExceptionAddress
 0001:00058554       GetLastExceptionCallStack
 0001:0003DB5C       GetLastExceptionObject
 0001:000025D4       GetLeakCount
 0001:00020A10       GetListDefault
 0001:00020690       GetListValue
 0001:0004E528       GetLocaleDataA
 0001:0004E4E8       GetLocaleDataW
 0001:0000077C       GetLocaleInfo
 0001:00000784       GetLocaleInfoA
 0001:0000078C       GetLocaleInfoW
 0001:00000774       GetLocalTime
 0001:00008384       GetLongNameFromShort
 0001:00000794       GetMailslotInfo
 0001:0007A868       GetMainMenu
 0001:00038DC4       GetMainWindow
 0001:000009DC       GetMapMode
 0001:0001EB68       GetMD5
 0001:00014380       GetModifiedDate
 0001:000082E0       GetModifiedDate
 0001:000396B8       GetModuleDescriptionAndVersion
 0001:0000079C       GetModuleFileName
 0001:000007A4       GetModuleHandle
 0001:000394AC       GetModulePath
 0001:00039588       GetModuleSize
 0001:00039E28       GetModulesList
 0001:00039C98       GetModulesWin9X
 0001:00039B34       GetModulesWinNT
 0001:00039618       GetModuleVer
 0001:000423B0       GetMonitorWorkAreaFromActiveWnd
 0001:0004238C       GetMonitorWorkAreaFromWnd
 0001:000422A8       GetMonitorWorkAreaFromWndEx
 0001:00008990       GetMultiConfigurationString
 0001:00013AD8       GetMXBestRecord
 0001:00013A38       GetMXRecord
 0001:00013BC8       GetMXServerFromEmail
 0001:0005CF28       GetName
 0001:0005FB68       GetNameTableSize
 0001:0004F75C       GetNetworkData
 0001:000009E4       GetObject
 0001:000023B8       GetObjectCaller
 0001:00049658       GetOptimizedPalette
 0001:0006B28C       GetOptionFromCfgFile
 0001:000208EC       GetOptionsDefault
 0001:000031BC       GetOptionsFromExeFile
 0001:00020490       GetOptionsValue
 0001:0004E4A0       GetOSBuild
 0001:0004E688       GetOSCharset
 0001:0004E67C       GetOSLanguage
 0001:00037878       GetOSType
 0001:0004E4D4       GetOSUpdate
 0001:00035538       GetOutOfMemoryCache
 0001:00049238       GetPaletteColors
 0001:0004E270       GetParameters
 0001:0003F9A0       GetPassword
 0001:000009EC       GetPixel
 0001:00001964       GetPrinterDriver
 0001:00050980       GetPrinterStr
 0001:000007AC       GetPriorityClass
 0001:000007B4       GetPrivateProfileString
 0001:000007BC       GetProcAddress
 0001:00064C94       GetProcedureBySymbol
 0001:0003A754       GetProcessesList
 0001:0004F058       GetProcessor
 0001:00039A64       GetProcessThreads
 0001:00007BE0       GetProfileFolder
 0001:000007C4       GetProfileString
 0001:0007A95C       GetProjectMenu
 0001:00001FBC       GetRawCallStackDump
 0001:00003120       GetRawOptions
 0001:00008208       GetReadableSize
 0001:00001C54       GetReadableSize
 0001:0003D348       GetRealFileName
 0001:0003206C       GetRefAddress
 0001:000321CC       GetRegName
 0001:0005F914       GetResource
 0001:0003B9F4       GetResourceData
 0001:000030D8       GetResourceData
 0001:0005EA84       GetResourceSecNo
 0001:0005F8D4       GetResourceStr
 0001:00000CD0       GetRValue
 0001:0003BD40       GetSourceInfoByAddr
 0001:00052004       GetStack
 0001:0004EF8C       GetStartDate
 0001:000007CC       GetStartupInfo
 0001:000009F4       GetStockObject
 0001:0003C4B0       GetSymbolAddr
 0001:00000B34       GetSysColor
 0001:000007D4       GetSystemDefaultLangID
 0001:00000B3C       GetSystemMetrics
 0001:000009FC       GetSystemPaletteEntries
 0001:000007DC       GetSystemTime
 0001:0004F1FC       GetSystemUpTime
 0001:0001FE58       GetTagValue
 0001:000007E4       GetTempPath
 0001:00020284       GetTextAreaValue
 0001:00000A04       GetTextExtentPoint32
 0001:00041374       GetTextHeight
 0001:000414CC       GetTextWidth
 0001:000007EC       GetThreadContext
 0001:00041B4C       GetThreadData
 0001:000563F4       GetThreadParams
 0001:000007F4       GetThreadPriority
 0001:000007FC       GetTickCount
 0001:00000424       GetTlsSize
 0001:0000060C       GetTokenInformation
 0001:00037EA0       GetTopOfStack
 0001:0004EEEC       GetTotalDisk
 0001:0004EC48       GetTotalMemory
 0001:000506AC       GetUserEmail
 0001:00000614       GetUserName
 0001:00007C9C       GetUserPath
 0001:00021D98       GetValueFromIndex
 0001:00039A9C       GetVersionNumber
 0001:0004FCA4       GetVideoCardStr
 0001:000114A8       GetVirtualMethod
 0001:00000B44       GetWindowDC
 0001:00000B4C       GetWindowLong
 0001:00000B54       GetWindowPlacement
 0001:00000B5C       GetWindowRect
 0001:00000804       GetWindowsDirectory
 0001:00000B64       GetWindowText
 0001:00000B6C       GetWindowThreadProcessId
 0001:00008F60       GetWorkingFile
 0001:0000080C       GlobalAlloc
 0001:00000814       GlobalFree
 0001:0000081C       GlobalLock
 0001:00000824       GlobalMemoryStatus
 0002:0000B048       GlobalSendValues
 0001:0000082C       GlobalUnlock
 0002:0000A9D4       Global_AttachedFiles
 0002:0000A98B       Global_CloseDialog
 0002:0000A9C8       Global_CurrentEvent
 0002:0000A9DC       Global_DataFields
 0002:0000A9A8       Global_ExceptionRecord
 0002:0000A988       Global_Execute
 0002:0000A989       Global_Handled
 0002:000061D0       Global_IntoHandleException
 0002:0000A9E4       Global_IntraWebText
 0002:0000A9D0       Global_LastInitPassword
 0002:0000A9E0       Global_Module
 0002:0000A9CC       Global_Password
 0002:0000A98A       Global_Retry
 0002:0000A9D8       Global_WebFields
 0002:0000A9E8       Global_WebTextID
 0001:0005673C       GoNotify
 0001:000646F8       GoToNextLine
 0001:0006474C       GotoSection
 0002:000051C8       GroupsOpcodes
 0002:00005308       GroupsOperands
 0001:0005AF6C       HandleAnyExceptionAddr
 0002:0000A6E8       HandleAnyExceptionAddr_Variable
 0001:00002B00       HandleAnyLeak
 0001:0005B010       HandleAutoExceptionAddr
 0002:0000A6F0       HandleAutoExceptionAddr_Variable
 0001:0002C08C       HandleBackgroundState
 0002:0000A850       HandledCache
 0002:0000A84C       HandledCacheCount
 0002:0000A940       HandledCacheCriticalSection
 0002:0000A660       HandledExceptionNotify
 0001:0000237C       HandleError
 0001:0005AFB8       HandleOnExceptionAddr
 0002:0000A6EC       HandleOnExceptionAddr_Variable
 0002:000063D0       HandleValues
 0001:00038CC8       HasWindowASize
 0001:0005CC48       HelpPath
 0002:00006448       HelpTime
 0002:00007004       HInstance
 0001:00000CA0       HiWord
 0001:00062D2C       hModule
 0001:0006D94C       HookApplicationOnException
 0001:0003EEAC       HookBPLProcedureByAddr
 0001:0003EF20       HookBPLProcedureBySymbol
 0001:0001208C       HookDllProcedure
 0001:00012490       HookDllProcedureEx
 0001:00057408       HookedCreateThread
 0001:00056C58       HookedExceptionObject
 0001:00056E28       HookedExceptProc
 0001:00057880       HookedExitThread
 0002:000062D4       HookedFunctions
 0001:00057968       HookedHttpExtensionProc
 0002:000070B8       HookedMethodsList
 0002:000070B0       HookedProcedures
 0001:00056B18       HookedRaise
 0001:00057664       HookedResumeThread
 0001:0005704C       HookedRTLThreadProc
 0001:00056D70       HookedRtlUnwind
 0001:00056EF4       HookedThreadExecute
 0001:0005717C       HookedThreadProc
 0001:00057934       HookedWriteClientProc
 0001:00056D98       HookedWriteFile
 0001:00058FC8       Hooked_CGIHandleServerException
 0001:000590DC       Hooked_CLXHandleException
 0001:0005910C       Hooked_CLXShowException
 0001:000597A8       Hooked_DoneExcept
 0001:00059778       Hooked_IndyThreadHandleException
 0001:00059160       Hooked_IntraWebCreateServer
 0001:0005945C       Hooked_IntraWebSendResponse
 0001:00058FF8       Hooked_ISAPIHandleServerException
 0001:000596C4       Hooked_NTServiceLogMessage
 0001:00059028       Hooked_VCLHandleException
 0001:0005909C       Hooked_VCLShowException
 0001:0005B880       HookingModuleName
 0001:0005B8A4       HookingRTLModuleName
 0002:0000B5D0       HookKey
 0001:0005B268       HookLastFInit
 0001:0005B1E0       HookLastInit
 0001:00011CB8       HookProcedure
 0001:00011DCC       HookProcedureEx
 0001:0003EE14       HookSymbolProcedure
 0001:000114F4       HookVirtualMethod
 0001:0005B278       Hook_InitializationAndFinalization
 0001:0005B40C       Hook_OnExceptionEvents
 0001:0004ACE8       HostName
 0002:00003844       HTMLChars
 0002:00003544       HTMLDelimiters
 0001:000110E4       htons
 0002:0000A618       HttpAddRequestHeaders
 0002:0000A628       HttpEndRequest
 0002:0000A614       HttpOpenRequest
 0002:0000A62C       HttpQueryInfo
 0002:0000A61C       HttpSendRequest
 0002:0000A620       HttpSendRequestEx
 0001:00025DF8       HTTPUploadFiles
 0002:000061E8       IDATHeader
 0001:000490D8       IDATWrite
 0002:0000A97C       IDC_CURSOR
 0001:0006DA08       IDECatchEnabled
 0002:0000B534       IDEManager
 0002:0000B524       IDEOptionsForm
 0002:00006440       IDE_Idx
 0001:00035884       ifelseStr
 0001:000358FC       ifStr
 0002:000061F4       iLevel
 0001:0002B880       ImageList_Add
 0001:0002B878       ImageList_Create
 0001:0002B888       ImageList_Destroy
 0001:0000164C       Imm
 0001:0004D95C       ImmidiateDataProc
 0002:00006408       ImplementationWord
 0002:0000A7F0       InactiveThreads
 0001:000626B4       IncludeLastBackslash
 0001:0000BB5C       IncludeLastBackslash
 0002:0000A820       IndyHooked
 0002:0000A728       IndyThread_HandleException
 0002:0000A70C       Indy_OnException
 0001:0001AC64       inflate
 0001:00019550       inflateBack
 0001:0001A37C       inflateBackEnd
 0001:00019368       inflateBackInit_
 0001:0001BB1C       inflateEnd
 0001:00013F7C       InflateInit
 0001:0001AA2C       inflateInit_
 0001:0001A8A4       inflateReset
 0001:00007D1C       IniDir
 0001:0000346C       Init
 0001:00012560       Init
 0001:0007C198       Init
 0001:0005E144       Init
 0001:000785A4       Init
 0001:0000C078       Init
 0001:0006EFF4       Init
 0001:00013DDC       Init
 0001:0005BA78       Init
 0001:0007BF04       Init
 0001:0006C1C8       Init
 0001:00059A88       InitCheckFreeze
 0001:00048FDC       InitDeflate
 0001:0007AE30       InitDelayedMenu
 0002:0000640C       InitializationWord
 0001:00000834       InitializeCriticalSection
 0002:000061B4       Initialized
 0002:00000B5C       Initialized
 0001:00000528       InitializeModule
 0001:0001EE58       InitKey
 0001:00020CA4       InitLib
 0001:0007AA7C       InitMenu
 0001:0007AEDC       InitNotifier
 0001:00000470       InitProcessTLS
 0001:00049810       InitScreenshot
 0001:0000042C       InitThreadTLS
 0001:00042428       InsertColumn
 0001:0003543C       InsertHandled
 0001:0006C004       InstalledPackage
 0002:00007088       InstallNewMemoryManager
 0001:0005B898       InstanceModuleName
 0001:0007C0D0       InternalActionNotify
 0001:00060F98       InternalCheckCompiler
 0001:00012A68       InternalCleanup
 0001:00038340       InternalCriticalError
 0002:0000A7C4       InternalErrorCode
 0002:0000A7C8       InternalErrorMsg
 0001:000549D4       InternalExceptNotify
 0001:0003A970       InternalFileExists
 0001:000794B0       InternalFindProcStartLineDelphi
 0001:0007859C       InternalGetCurrentPersonality
 0001:0006C1C0       InternalGetCurrentPersonality
 0001:0006EDCC       InternalHookDllProcedureEx
 0002:000070A0       InternalIntoIDE
 0001:00078464       InternalIsAcceptableProject
 0001:00062BE8       InternalIsAcceptableProject
 0001:0004A01C       InternalSendMail
 0001:00012A38       InternalStartup
 0001:0005A798       Internal_AddLeak
 0001:00002940       Internal_AddLeak
 0001:0005AEB8       Internal_Finalization
 0001:0005AEA0       Internal_MultiFreeProc
 0001:0005AE88       Internal_OverrunProc
 0001:0000292C       Internal_ResetLeaks
 0001:0005A42C       Internal_ResetLeaks
 0001:000029F0       Internal_ShowLeaks
 0001:0005A918       Internal_ShowLeaks
 0002:0000A630       InternetCloseHandle
 0002:0000A610       InternetConnect
 0002:0000A648       InternetGetConnectedState
 0002:0000A63C       InternetGetLastResponseInfo
 0002:0000A60C       InternetOpen
 0002:0000A640       InternetOpenUrl
 0002:0000A644       InternetReadFile
 0002:0000A634       InternetSetOption
 0002:0000A624       InternetWriteFile
 0002:0000A749       IntoFinalization
 0001:00008D64       IntoIDE
 0002:0000A748       IntoInitialization
 0002:0000A750       IntraWebApplication
 0002:0000A758       IntraWebCompressedPage
 0002:0000A754       IntraWebServerController
 0001:0005B32C       IntraWeb_BPL
 0002:0000A700       IntraWeb_CreateServer
 0002:0000A760       IntraWeb_NewEvent
 0001:000565D0       IntraWeb_OnExceptionEvent
 0001:00056550       IntraWeb_OnExceptionEvent_New
 0001:000564C8       IntraWeb_OnExceptionEvent_Old
 0002:0000A708       IntraWeb_OnException_New
 0002:0000A704       IntraWeb_OnException_Old
 0002:0000A718       IntraWeb_SendResponse
 0002:0000A714       IntraWeb_ShowMessage
 0002:0000A75C       IntraWeb_Version
 0001:00000B74       InvalidateRect
 0001:00000B7C       InvalidateRgn
 0001:000110EC       ioctlsocket
 0002:0000B508       IsAcceptableProject
 0001:000024E4       IsALeakChild
 0001:00038EDC       IsANewProcessWindow
 0001:00037648       IsAParent
 0001:00037538       IsAParentClassStr
 0001:00001E00       IsAParentClassStr
 0001:0003770C       IsAParentClassStr_Unsafe
 0001:000376B8       IsAParents
 0001:00037620       IsAParentStr
 0001:000377EC       IsAParentStr_Unsafe
 0002:0000A734       ISAPIHandleException
 0002:0000A69C       ISAPI_HttpExtensionProc
 0002:0000A6A4       ISAPI_Proc
 0002:000061A0       ISAPI_SendError
 0002:0000A6A0       ISAPI_WriteClientProc
 0001:0000083C       IsBadReadPtr
 0001:0005474C       IsBorlandThread
 0001:0003A93C       IsCGI
 0001:00050D7C       IsCompatibleException
 0001:0003B8FC       IsCompiledWithPackages
 0001:00003288       IsCompiledWithPackages
 0001:00060F9C       IsConvertingOldOptionsFile
 0001:00038EC4       IsCurrentProcessWindow
 0001:00037350       IsDebugged
 0001:0000D888       IsDecDigit
 0001:00037E84       IsDelphiException
 0002:0000AC3C       IsDialogShowed
 0001:00061AEC       IsEncoded
 0001:0001FDC4       IsEnd
 0001:00058E24       IsEurekaLogActive
 0001:00058D48       IsEurekaLogActiveInThread
 0001:0003F620       IsEurekaLogCompatibleModule
 0001:0005816C       IsEurekaLogInstalled
 0001:0003F5FC       IsEurekaLogModule
 0001:0003F56C       IsEurekaLogModule_New
 0001:0003F458       IsEurekaLogModule_Old
 0001:00061164       IsEurekaLogOptionsFile
 0001:00060FA0       IsEurekaLogPackage
 0001:0003EF58       IsExceptionHandled
 0001:00008F44       IsFileOK
 0002:0000A969       IsFilterDialog
 0001:0006F34C       IsGreaterVersion
 0001:0003ABB0       IsGUI
 0001:00056044       IsHandledSafeCallException
 0001:00059294       IsHTMLPage
 0001:00000B84       IsIconic
 0001:00002FF4       IsIntoIDE
 0001:0003AB78       IsIntraWeb
 0001:0003AB3C       IsISAPI
 0001:0003B8A0       IsLocalStorageProc
 0001:0005473C       IsMainThread
 0001:00038D04       IsMainWindow
 0001:00037808       IsManageableObject
 0002:00007080       IsMemoryManagerOwner
 0001:00039208       IsModuleLibrary
 0001:00001C10       IsObjectCreation
 0001:00041028       ISODateTime
 0001:00059F08       IsOKDebugInfo
 0001:00008EE8       IsReadableFile
 0001:00020FE0       IsRealFile
 0001:0003B8F0       IsRTLCompiledWithStackFrames
 0001:0003B8C0       IsStackFramesProc
 0001:00008290       IsValidBlockAddr
 0001:00001CDC       IsValidBlockAddr
 0001:00061ADC       IsValidChar
 0001:00001DB0       IsValidClass
 0001:000374AC       IsValidClass
 0001:00013524       IsValidDNS
 0001:00072C38       IsValidEmail
 0001:00047878       IsValidEmail
 0001:000373C0       IsValidHandle
 0001:0003565C       IsValidModule
 0001:0003750C       IsValidObject
 0001:00037420       IsValidRunningThread
 0001:0006F3E8       IsValidVersionString
 0001:0003AB84       IsWeb
 0001:00037840       IsWin95
 0001:00011FD4       IsWin9xDebugThunk
 0001:0003A9E0       IsWinCGI
 0001:00000B8C       IsWindow
 0001:00054768       IsWindowsThread
 0001:00000B94       IsWindowVisible
 0001:0003785C       IsWinNT
 0001:00039EC0       IsWinNT4
 0001:00039EDC       IsWinVista
 0001:0000BC0C       IsWinVista
 0001:00008E50       IsWritableFile
 0001:00062778       IsXMLText
 0001:0003B95C       Is_HandleOnException_Handled
 0001:000116EC       JumpToMem
 0002:0000A68C       Kernel_CreateThread
 0002:0000A694       Kernel_ExitThread
 0002:0000A684       Kernel_RaiseException
 0002:0000A690       Kernel_ResumeThread
 0002:0000A688       Kernel_RtlUnwind
 0002:0000A698       Kernel_WriteFile
 0001:00000C8C       keybd_event
 0002:0000A5F0       KeyData
 0001:00039024       KillApplication
 0001:00063220       KillInutilChars
 0001:00078E78       KillInutilChars
 0001:00000B9C       KillTimer
 0002:0000A6E0       LanguageStr
 0002:000063FC       LastActiveOption
 0002:00006400       LastActiveProject
 0002:0000A964       LastBugID
 0002:0000A794       LastDelphiException
 0002:0000A824       LastDumpCriticalSection
 0002:00007098       LastEurekaVersion
 0002:0000A784       LastExceptAddr
 0002:000061B8       LastExceptionAddress
 0002:0000A840       LastExceptionCallStackAddress
 0002:0000A848       LastExceptionCallStackDump
 0002:0000A844       LastExceptionCallStackSize
 0002:0000A7A4       LastExceptionLog
 0002:0000A960       LastExceptionMessage
 0002:000061BC       LastExceptionObject
 0002:0000A7A0       LastExceptionRecord
 0002:0000A83C       LastExceptionThreadID
 0002:0000A95C       LastExceptionType
 0002:0000A798       LastExceptMessage
 0002:0000A790       LastExceptObject
 0002:0000A78C       LastExceptThreadID
 0002:0000A6FC       LastFinalizationPtr
 0002:0000A740       LastHTMLPage
 0002:0000A6F8       LastInitializationPtr
 0002:0000A744       LastInitPointer
 0002:0000B564       LastItem
 0002:0000A7A8       LastLog
 0002:000063B4       LastOpenedOptionFile
 0002:0000B568       LastOption
 0002:0000A974       LeakAddr
 0001:00002B88       LeaksCheck
 0002:0000708A       LeaksOptions
 0002:000061B0       LeaksStackList
 0002:0000A970       LeakTotalCount
 0002:0000A96C       LeakTotalSize
 0001:00000844       LeaveCriticalSection
 0002:0000ABE8       LeftButton
 0001:00071980       ListAllCollections
 0002:0000ABE0       ListHeight
 0001:00066B48       ListLen
 0002:0000ABDC       ListWidth
 0001:00035D7C       Load
 0001:00000BA4       LoadBitmap
 0001:00000BAC       LoadCursor
 0001:0003FA30       LoadData
 0001:0003F830       LoadData_Old
 0001:0003FE4C       LoadDebugInformation
 0001:0005B920       LoadFromFile
 0001:0000084C       LoadLibrary
 0001:00000854       LoadLibraryEx
 0001:0000085C       LoadResource
 0001:0003D9A0       LoadTextFile
 0001:000720E4       LoadTextsFromFile
 0001:000003E8       LocalAlloc
 0001:0004E56C       LocalesCallback
 0001:000003F0       LocalFree
 0001:00001F08       LockCheck
 0001:00056730       LockCheck
 0001:00000864       LockResource
 0001:00001F14       LockVariable
 0001:0004BF14       LogFileMessage
 0001:0004AD20       LoggedUserName
 0001:0003A930       LogicToPhysicAddr
 0001:0000061C       LookupPrivilegeName
 0001:0001E294       LRot32
 0001:0006DD34       MailSlotCreate
 0002:0000B548       MailSlotName
 0002:0000B540       MailSlotOK
 0001:0006DDE4       MailSlotRead
 0001:00044100       MailSlotSend
 0002:0000B53C       MailSlotSrv
 0002:0000B544       MailSlotTimer
 0002:0000AC38       MainDialog
 0002:0000A77C       MainThreadHandle
 0002:0000A780       MainThreadTopOfStack
 0001:00000C94       MakeLong
 0001:0001E1A4       make_crc_table
 0002:0000A978       ManualAntiFreeze
 0001:00064A50       MapError
 0001:0003E500       MappedExceptionObject
 0001:0000086C       MapViewOfFile
 0001:00000BB4       MapVirtualKey
 0002:000061EC       Mask
 0002:00006238       MasterOptionsFile
 0001:0000D440       Max
 0002:00001E00       MaxBugOccurrences
 0001:0003F11C       MaxReadableSize
 0002:000061CC       MemoryOverrunExceptionText
 0002:0000708C       MemoryPages
 0001:00000BBC       MessageBeep
 0001:00000BC4       MessageBox
 0002:0000B56C       MessageForm
 0001:00000D6C       Messages
 0001:0000D448       Min
 0002:00007084       MMWindow
 0001:00062E54       ModifyImportFunction
 0001:00032174       ModRM
 0001:00011768       ModRMByte
 0002:00000008       Module
 0001:00042F00       ModuleBmp
 0001:00035570       ModuleFileName
 0001:00010E24       ModuleFileName
 0001:0001170C       ModuleFileName
 0001:0005EA38       ModuleHnd
 0001:000391F4       ModuleInfoByAddr
 0001:00039138       ModuleInfoByHandle
 0002:0000A7FC       ModuleInfoData
 0002:000061C4       ModuleInfoHandle
 0001:0003A920       ModuleInitTable
 0002:00007000       ModuleIsLib
 0002:00007001       ModuleIsPackage
 0001:00003200       ModuleName
 0002:0000B4FC       ModuleOptions
 0002:000061A4       ModulesList
 0001:00042FF8       ModulesListDialogProc
 0001:00000874       MoveFile
 0001:0005EA48       MoveResourceData
 0001:00000BCC       MoveWindow
 0001:0000087C       MulDiv
 0002:000061C8       MultiFreeExceptionText
 0002:00007048       MultiFreeProc
 0002:0000A9C4       MustFreeGlobalMappedObject
 0001:000547B8       MustPauseThisThread
 0001:0005460C       MustRestoreApplication
 0001:000545CC       MustSendMessage
 0001:0007BE24       MyKeyHook
 0002:0000B59C       NameSet
 0002:00006218       NameSet
 0001:000273E4       NeedConvertNotDosText
 0002:00003534       NetLib
 0001:0006EE48       NewCreateFile
 0001:000458DC       NewDialogProc
 0001:00041590       NewDialogProc
 0001:00048BCC       NewDialogProc
 0001:00002430       NewFreeMem
 0001:000023C4       NewGetMem
 0001:0006EF34       NewLoadLibrary
 0002:00000038       NewMemoryManager
 0001:00047B48       NewMSDialogProc
 0001:00002464       NewReallocMem
 0001:000401F4       NextItem
 0002:00000950       NoChars
 0002:0000AA28       NonClientMetrics
 0001:0002B0B0       NormalizePos
 0002:0000A981       NoSynchronizeEvent
 0002:0000B55C       NotifiersList
 0002:0000A7F9       NotLoadDebugInfo
 0002:0000A724       NTService_LogMessage
 0001:00000BD4       OffsetRect
 0002:00006244       OkChars
 0002:000063F8       OldActiveOption
 0002:0000B558       OldCreateFile
 0002:0000A6D4       OldExceptObjProc
 0002:0000A6C4       OldExceptProc
 0002:0000A98C       OldGlobal_ExceptionRecord
 0002:0000B554       OldLoadLibrary
 0002:00007060       OldMemoryManager
 0002:0000B54C       OldOnException
 0001:000639C8       OldOptionFileExt
 0001:0004D844       OnCallInstr
 0002:000049C8       OneByteOpcodes
 0001:00008128       OneString
 0001:0003597C       OneString
 0002:0000A774       OnlySafeCallExceptions
 0001:0004D954       OnRefProc
 0002:00000A1C       OpCodeLongJump1Byte
 0002:00000A3C       OpCodeLongJump2Bytes
 0002:000009BC       OpCodePrefixes
 0002:000009FC       OpCodeReturn
 0002:000009DC       OpCodeShortJump
 0001:00000BDC       OpenClipboard
 0002:000061D4       Opened_LogFile_Name
 0001:000441F8       OpenIDEEditor
 0001:0003CFE8       OpenLogFile
 0001:0000196C       OpenPrinter
 0001:00000884       OpenProcess
 0001:00000624       OpenProcessToken
 0001:00025C50       OpenRequest
 0001:00032C34       Operand
 0001:000639B0       OptionFileExt
 0002:00006430       OptItem
 0002:00006438       OptItemBmp
 0002:00006434       OptView
 0002:0000ABC8       OriginalHeight
 0002:0000A74C       OriginalThreadProc
 0002:0000ABC4       OriginalWidth
 0001:0004FAA0       OSSupportDisplayAPI
 0002:0000A984       OutOfMemoryCache
 0001:0000088C       OutputDebugString
 0002:00007044       OverrunProc
 0002:00001D30       p
 0001:0005CA64       PackagePath
 0001:00020B7C       ParserHTML
 0002:0000A66C       PasswordRequest
 0001:00000BE4       PeekMessage
 0001:0000F218       PEInitialize
 0001:0000F178       PeMapImgFindSection
 0001:0000F1D4       PeMapImgNtHeaders
 0001:00011FE8       PeMapImgNtHeaders
 0001:0000F164       PeMapImgSections
 0002:0000B4AC       PNG_Bitmap
 0002:0000B064       PNG_ColoursCount
 0002:0000B090       PNG_CRCList
 0002:000061DC       PNG_CRCListed
 0002:0000B4A0       PNG_Cursor
 0002:0000B074       PNG_Data
 0002:0000B06C       PNG_DataSize
 0002:0000B4A8       PNG_DCCompatible
 0002:0000B4A4       PNG_DCScreen
 0002:0000B08C       PNG_Encode_Data
 0002:0000B088       PNG_Encode_Filter
 0002:0000B49C       PNG_FocusWnd
 0002:0000B078       PNG_HeaderData
 0002:0000B4B4       PNG_Height
 0002:0000B498       PNG_HWindow
 0002:0000B070       PNG_ImgData
 0002:0000B490       PNG_pal
 0002:0000B068       PNG_RowBytes
 0002:0000B494       PNG_UsePal
 0002:0000B4B0       PNG_Width
 0001:00038F24       PopulateCurrentProcessWindows
 0001:000085B0       PosEx
 0001:000627F4       PosEx
 0001:00000BEC       PostMessage
 0001:0004D1D4       PrepareFilesToSend
 0001:00039960       PriorityToString
 0002:0000641C       ProcArray
 0001:0004AAE0       ProcessDialogMessages
 0002:000061A8       ProcessesList
 0001:0004372C       ProcessesListDialogProc
 0001:000494D4       ProcessImage
 0001:00040694       ProcessMessage
 0001:00055F40       ProcessMessages
 0001:000629B0       ProcessText
 0002:0000353C       ProxyPassword
 0002:00003540       ProxyServer
 0002:00003538       ProxyUserName
 0001:00000BF4       PtInRect
 0002:00000004       PtrToNil
 0002:00000990       PublicsByNameHeader
 0002:000009A0       PublicsByValueHeader
 0001:00001FE4       PurgeCallStack
 0001:00040264       PurgeCallStack
 0001:00002A04       PurgeCallStacks
 0001:0001FC34       PurgeHTMLCode
 0001:000028BC       PurgeInvalidLeaks
 0001:00054664       PurgeModulesList
 0001:0002004C       PurgeQuotes
 0001:0004E1A8       PurgeString
 0001:00008648       QuickStringReplace
 0001:00008B18       RADDir
 0001:00008A84       RADRegistryKey
 0002:0000A788       RaisedExceptAddr
 0002:0000ABB0       rClick
 0001:0003F178       ReadAddr
 0001:0000D978       ReadAddress
 0001:00007F30       ReadBool
 0001:0003204C       ReadByte
 0001:0000D8C8       ReadDecValue
 0001:0003200C       ReadDWord
 0001:0004FBBC       ReadDWordKey
 0001:0003BA3C       ReadEncodeString
 0001:00000894       ReadFile
 0001:000643C4       ReadHex
 0001:0000D8FC       ReadHexValue
 0001:00064420       ReadInt
 0001:00007EAC       ReadInteger
 0001:0000887C       ReadKey
 0001:00063818       ReadKeyList
 0001:00009C94       ReadRawStrings
 0001:000322E0       ReadSib
 0001:000424EC       ReadState
 0001:0000A240       ReadString
 0001:00007D94       ReadString
 0001:0000D9B4       ReadString
 0001:00064464       ReadString
 0001:0006363C       ReadStrings
 0001:0000D89C       ReadTextLine
 0001:0003202C       ReadWord
 0001:0005AF58       RealAddr
 0002:0000ABD8       RealHeight
 0002:0000ABCC       RealLeft
 0001:0003A204       RealPriority
 0001:0007B5D4       RealProjectName
 0001:0003D684       RealTmpLastHTMLPage
 0002:0000ABD0       RealTop
 0002:0000ABD4       RealWidth
 0001:000110F4       recv
 0001:0004941C       ReduceTree
 0001:0000062C       RegCloseKey
 0001:00000634       RegEnumKeyEx
 0001:0000063C       RegEnumValue
 0001:0007C168       Register
 0001:00000644       RegOpenKeyEx
 0001:0000064C       RegQueryInfoKey
 0001:00000654       RegQueryValueEx
 0001:0000185C       RegStr
 0001:00000BFC       ReleaseDC
 0001:00011B34       RelocateMemory
 0001:00077A34       RemoveEurekaUnit
 0001:00002904       RemoveExtraLeaks
 0001:0004F6DC       RemoveLastSeparator
 0001:00002A84       RemoveLeaksSons
 0001:00002760       RemoveMemBlock
 0001:00066BCC       RemoveUnit
 0001:000335D0       Replacer
 0001:00040FAC       ResetAutoCloseTimer
 0001:0004AD5C       ResetCounting
 0001:00055F10       ResetGlobalVars
 0002:00007050       ResetLeaks
 0002:000009B0       ResourceFilesHeader
 0001:0005EDFC       ResourceNameToInt
 0001:0005EDA4       ResourceWideCharToStr
 0001:0003E62C       RestoreGlobalExceptionRecord
 0001:0000089C       ResumeThread
 0001:00037AB4       RFCDate
 0001:00000CB4       RGB
 0001:00001A9C       RichEdit
 0001:0003EDF4       RoundMatch
 0001:0003EE0C       RoundMatchPtr
 0002:0000ABA0       rSupport
 0001:00035DC8       RTF_LoadFromStream
 0001:00035DF4       RTF_LoadFromText
 0001:0000BEA4       SafeExec
 0001:0000D4CC       SafeLoadFromFileToStream
 0002:0000B060       SavedLastHTMLPage
 0001:0003D45C       SavedScreenshot
 0001:0003E58C       SaveGlobalExceptionRecord
 0001:00050C14       SaveLogFile
 0001:0005FC24       SaveNode
 0001:00049FE0       SaveScreenshot
 0001:00049FF8       SaveScreenshotToStream
 0001:00042788       SaveState
 0001:00074914       SaveTextsToFile
 0001:0005FEBC       SaveToSection
 0001:00000C04       ScreenToClient
 0001:0000D450       SearchDynArray
 0001:00027A08       SearchItem
 0001:000274F0       SearchNextItem
 0001:0002137C       SearchPort
 0001:000212F0       SearchWord
 0001:0000E174       Search_MapLineNumber
 0001:0000E340       Search_MapProcName
 0001:00062D3C       SecDelta
 0002:00000980       SegmentsHeader
 0002:00006444       SelectedComponent
 0001:00000A0C       SelectObject
 0001:00000A14       SelectPalette
 0001:000110FC       send
 0001:0004B108       SendCommandEx
 0001:0004C6D0       SendEmailMessage
 0001:0004D528       SendInternetMessage
 0001:00000C0C       SendMessage
 0001:00000C14       SendMessageTimeout
 0001:0004D088       SendWebMessage
 0001:000255C0       SendWebTrakerReport
 0002:0000642C       SepItem
 0002:0000A6A8       ServerECB
 0001:00040F68       SetAutoCloseTimer
 0001:00040FF8       SetAutoTopMost
 0001:00000A1C       SetBkColor
 0001:00000A24       SetBkMode
 0001:00000C1C       SetClipboardData
 0001:00038F40       SetClipboardText
 0001:0004AD38       SetCounting
 0001:0005829C       SetCurrentStackPointer
 0001:00000C24       SetCursor
 0001:00040780       SetCustomErrorMessage
 0001:0005B864       SetDebugHook
 0001:0007C0CC       SetDefaultOptions
 0001:00076DEC       SetDefine
 0001:000424A4       SetDialogRect
 0001:00042920       SetDialogState
 0001:00000A2C       SetDIBColorTable
 0001:00074C7C       SetEnum
 0001:000008A4       SetEnvironmentVariable
 0001:00054810       SetEnvVariables
 0001:0004C894       SetError
 0001:00038BCC       SetErrorType
 0001:00058DA0       SetEurekaLogInThread
 0001:00058E1C       SetEurekaLogState
 0001:000372FC       SetEventAddr
 0001:000008AC       SetFileTime
 0001:00000C2C       SetFocus
 0001:00000C34       SetForegroundWindow
 0001:0004CD3C       SetFullURL
 0001:00079890       SetGlobalVariables
 0001:00079720       SetGlobalVariables
 0001:00055FDC       SetHandledWithEurekaLog
 0001:00056EB0       SetIndyEvent
 0001:00040E64       SetInitDialog
 0001:00038A7C       SetInternalError
 0001:000565E4       SetIntraWebEvent
 0001:000353E8       SetItem
 0001:00056B08       SetLastECX
 0001:000008B4       SetLastError
 0001:00040778       SetLastException
 0001:00040750       SetLastExceptionData
 0001:0003DB74       SetLastExceptionObject
 0001:00056638       SetLastExceptStack
 0001:00056AF8       SetLastStackPointer
 0001:0005AF5C       SetMainThreadTopOfStack
 0001:00000A34       SetMapMode
 0001:000021E0       SetOurPointer
 0001:000256F8       SetProxyAuthenticationData
 0001:0002568C       SetProxyServer
 0001:00045734       SetRectangles
 0001:00048B30       SetRectangles
 0001:000407C0       SetRectangles
 0001:00035EA8       SetRTFBackColor
 0001:0004AC78       SetSendDialogBar
 0001:0004AB4C       SetSendDialogLabel
 0001:0004AC40       SetSendDialogSingleLabel
 0001:0005C798       SetSingle
 0001:00000A3C       SetTextColor
 0001:00000C3C       SetTimer
 0001:000114B0       SetVirtualMethod
 0001:0004CD84       SetWebTrakerError
 0001:00000C44       SetWindowLong
 0001:00000C4C       SetWindowPlacement
 0001:00000C54       SetWindowPos
 0001:00000C5C       SetWindowsHookEx
 0002:00006368       SharedUnits
 0001:0000189C       ShellAPI
 0001:00001864       ShellExecute
 0001:0004C04C       ShellSendMail
 0001:00041550       ShiftWndBottom
 0001:000017B4       ShlObj
 0001:00077B60       ShowCompilerProgress
 0001:000488BC       ShowDialog
 0002:00005CA0       ShowEurekaLogUnits
 0001:0005CCB0       ShowHelp
 0002:0000AC35       ShowInDetailsMode
 0001:00058318       ShowLastExceptionData
 0002:00007054       ShowLeaks
 0001:0005CB68       ShowLog
 0001:00041934       ShowRequestDialog
 0001:00048E88       ShowSendDialog
 0001:00048E04       ShowSendDialogThread
 0001:0005CDB8       ShowTutorial
 0001:000546BC       ShowType
 0001:00000C64       ShowWindow
 0001:000321A0       Sib
 0001:00011750       SIDSize
 0001:00031F6C       SignedIntToHex
 0001:00025674       SimpleCheckError
 0001:0000E538       SimpleCryptString
 0001:00064A0C       SimpleUnitName
 0001:00035A74       SimpleWord
 0001:0005CEE4       SixSpaces
 0001:000008BC       SizeofResource
 0001:0000D854       SkipEndLine
 0001:00064724       SkipLines
 0001:00079320       SkipProcedure
 0001:0000D834       SkipWhiteSpace
 0001:000008C4       Sleep
 0001:0004BF54       SMTPSend
 0001:0004B9B4       SMTPSendEmail
 0001:0004B188       SMTPSendSingleEmail
 0001:00011104       socket
 0001:00058340       StandardEurekaError
 0001:000582C8       StandardEurekaNotify
 0001:00058E2C       StartAntiFreeze
 0001:0004DA84       StartComment
 0002:000061F8       StartComments
 0002:0000B57C       StartComments
 0002:0000A7B4       StartDir
 0002:0000A6CC       StartingDate
 0001:0007BED8       StartKeyHook
 0002:0000B5D8       StartTimer
 0001:00066858       StoreUnitNames
 0001:00010928       StringReplace
 0001:00064F44       StripRelocationTable
 0001:0000A1A4       StrToBin
 0001:00013750       StrToWord
 0002:0000ABC0       SupportLinkActive
 0001:000081E0       SupportsEx
 0001:000008CC       SuspendThread
 0001:0001ECC4       SwapDWord
 0002:00006284       SymbolNames
 0001:0003ED48       SynchronizeEvent
 0002:0000A7B8       SynchronizeExcept
 0002:0000A7BC       SynchronizeRaise
 0001:0000DA04       SyncToHeader
 0001:0000DACC       SyncToPrefix
 0001:00000604       SysInit
 0001:00000C6C       SystemParametersInfo
 0002:00000970       TableHeader
 0001:0006D5E8       TAboutForm.BigLabelClick
 0001:0006D584       TAboutForm.EmailClick
 0001:0006D5C8       TAboutForm.FormCloseQuery
 0001:0006D318       TAboutForm.FormCreate
 0001:0006D570       TAboutForm.FormKeyDown
 0001:0006D630       TAboutForm.Label5Click
 0001:0006D2DC       TAboutForm.SiteClick
 0001:0006D5C4       TAboutForm.TimerTimer
 0001:0006D5CC       TAboutForm.WhatBtnClick
 0001:00035284       TActiveXException.Create
 0001:0006C084       TBaseModule.AfterCompile
 0001:0006668C       TBaseModule.Assign
 0001:0006BF44       TBaseModule.BeforeCompile
 0001:0006539C       TBaseModule.BuildMapFile
 0001:000676B4       TBaseModule.Create
 0001:0006AA5C       TBaseModule.DeleteText
 0001:0006A510       TBaseModule.ErrorMessage
 0001:0006BE84       TBaseModule.ExecProgram
 0001:0006B384       TBaseModule.GetCommandLineOption
 0001:0006BAE0       TBaseModule.GetCompiledFile
 0001:0006B4C4       TBaseModule.GetCppBuilderOutputFile
 0001:0006BBEC       TBaseModule.GetMapFile
 0001:0006B208       TBaseModule.GetModuleInfo
 0001:0006B238       TBaseModule.GetModuleType
 0001:0006A990       TBaseModule.GetOptionFile
 0001:0006B8F0       TBaseModule.GetOutputDir
 0001:0006A688       TBaseModule.GetRealFileName
 0001:0006A9EC       TBaseModule.GetText
 0001:0006B990       TBaseModule.GetUnitDirs
 0001:0006AB10       TBaseModule.InsertText
 0001:0006A588       TBaseModule.IsReadOnly
 0001:00069460       TBaseModule.LoadOptions
 0001:000694AC       TBaseModule.LoadOptionsFromDefaultOptionFile
 0001:00067750       TBaseModule.LoadOptionsFromFile
 0001:00066DF4       TBaseModule.MakeLine
 0001:0006A8F8       TBaseModule.SaveOptions
 0001:0006A944       TBaseModule.SaveOptionsToDefaultOptionFile
 0001:000694F8       TBaseModule.SaveOptionsToFile
 0001:0006B994       TBaseModule.SetBplFile
 0001:0006ABD0       TBaseModule.SetDebugOptions
 0001:000666C0       TBaseModule.SetToDefaultOptions
 0001:0006F460       TCheckUpdate.Execute
 0001:000613C0       TCppBuilderWin32Personality.GetOptionValue
 0001:000613BC       TCppBuilderWin32Personality.GetPersonality
 0001:00061220       TCustomPersonality.GetOptionValue
 0001:000612A8       TCustomPersonality.GetPersonality
 0001:00061230       TCustomPersonality.IsOptionEqual
 0001:000612B0       TDelphiWin32Personality.GetOptionValue
 0001:000612AC       TDelphiWin32Personality.GetPersonality
 0001:0007A768       TDesignNotifier.DesignerClosed
 0001:0007A76C       TDesignNotifier.DesignerOpened
 0001:0007A770       TDesignNotifier.ItemDeleted
 0001:0007A774       TDesignNotifier.ItemInserted
 0001:0007A778       TDesignNotifier.ItemsModified
 0001:0007A77C       TDesignNotifier.SelectionChanged
 0001:00033908       TDisAsm.GetInstruction
 0001:0001EDA8       TEA_Decrypt
 0001:0001ECF8       TEA_Encrypt
 0001:0000D584       TELAbstractMapParser.Create
 0001:0000D5E4       TELAbstractMapParser.Destroy
 0001:0000D618       TELAbstractMapParser.GetLinkerBugUnitName
 0001:0000D630       TELAbstractMapParser.MapStringToFileName
 0001:0000D6BC       TELAbstractMapParser.MapStringToStr
 0001:0000DB9C       TELAbstractMapParser.Parse
 0001:0000E718       TELBinDebugScanner.CacheLineNumbers
 0001:0000E7D0       TELBinDebugScanner.CacheProcNames
 0001:0000E8C4       TELBinDebugScanner.CheckFormat
 0001:0000E6C0       TELBinDebugScanner.Create
 0001:0000E960       TELBinDebugScanner.DataToStr
 0001:00010FF0       TELBinDebugScanner.Destroy
 0001:0000E990       TELBinDebugScanner.GetModuleName
 0001:0000E9AC       TELBinDebugScanner.LineNumberFromAddr
 0001:0000EAA0       TELBinDebugScanner.MakePtr
 0001:0000EAAC       TELBinDebugScanner.ModuleNameFromAddr
 0001:0000EB18       TELBinDebugScanner.ModuleStartFromAddr
 0001:0000EB70       TELBinDebugScanner.ProcNameFromAddr
 0001:0000ED1C       TELBinDebugScanner.ReadValue
 0001:0000ED58       TELBinDebugScanner.SourceNameFromAddr
 0001:0000FE34       TELConstantSymbolInfo.Create
 0001:0000FBF0       TELDataSymbolInfo.Create
 0001:0000F030       TELDebugInfoJedy.Destroy
 0001:0000F070       TELDebugInfoJedy.GetLocationInfo
 0001:0000F250       TELDebugInfoJedy.InitializeSource
 0001:0000F348       TELDebugInfoJedy.ValidData
 0001:0000EE6C       TELDebugInfoMap.Destroy
 0001:0000EEA0       TELDebugInfoMap.GetLocationInfo
 0001:0000EF94       TELDebugInfoMap.InitializeSource
 0001:0000F028       TELDebugInfoMap.ValidData
 0001:0000EDE4       TELDebugInfoSource.Create
 0001:0000EE1C       TELDebugInfoSource.GetFileName
 0001:0000EE60       TELDebugInfoSource.VAFromAddr
 0001:0000F35C       TELDebugInfoTD32.Destroy
 0001:0000F390       TELDebugInfoTD32.GetLocationInfo
 0001:0000F48C       TELDebugInfoTD32.InitializeSource
 0001:0000F4E8       TELDebugInfoTD32.ValidData
 0001:0000FD78       TELLabelSymbolInfo.Create
 0001:0000F6A0       TELLineInfo.Create
 0001:0000DE60       TELMapParser.ClassTableItem
 0001:0000DEE0       TELMapParser.LineNumbersItem
 0001:0000DEF8       TELMapParser.LineNumberUnitItem
 0001:0000DF70       TELMapParser.PublicsByNameItem
 0001:0000DFD0       TELMapParser.PublicsByValueItem
 0001:0000E030       TELMapParser.SegmentItem
 0001:0000E16C       TELMapScanner.ClassTableItem
 0001:0000E0B0       TELMapScanner.Create
 0001:0000E114       TELMapScanner.Destroy
 0001:0000E17C       TELMapScanner.LineNumberFromAddr
 0001:0000E1E8       TELMapScanner.LineNumbersItem
 0001:0000E2B0       TELMapScanner.LineNumberUnitItem
 0001:0000E2B4       TELMapScanner.ModuleNameFromAddr
 0001:0000E304       TELMapScanner.ModuleStartFromAddr
 0001:0000E348       TELMapScanner.ProcNameFromAddr
 0001:0000E3C8       TELMapScanner.PublicsByNameItem
 0001:0000E3CC       TELMapScanner.PublicsByValueItem
 0001:0000E428       TELMapScanner.Scan
 0001:0000E470       TELMapScanner.SegmentItem
 0001:0000E4D8       TELMapScanner.SourceNameFromAddr
 0001:0000F550       TELModuleInfo.Create
 0001:0000F608       TELModuleInfo.GetSegment
 0001:0000FB34       TELObjNameSymbolInfo.Create
 0001:00010CD8       TELPeBorTD32Image.CheckDebugData
 0001:00010D28       TELPeBorTD32Image.Clear
 0001:00010D30       TELPeBorTD32Image.ClearDebugData
 0001:00010C58       TELPeBorTD32Image.Create
 0001:00010CB0       TELPeBorTD32Image.Destroy
 0001:00010D58       TELPeBorTD32Image.IsDebugInfoInImage
 0001:00010E6C       TELPeBorTD32Image.IsDebugInfoInTds
 0001:0000FA70       TELProcSymbolInfo.Create
 0001:0000F6E8       TELSourceModuleInfo.Create
 0001:0000F844       TELSourceModuleInfo.Destroy
 0001:0000F924       TELSourceModuleInfo.FindLine
 0001:0000F878       TELSourceModuleInfo.GetLine
 0001:0000F88C       TELSourceModuleInfo.GetLineCount
 0001:0000F894       TELSourceModuleInfo.GetSegment
 0001:0000F9C0       TELSymbolInfo.Create
 0001:000101FC       TELTD32InfoParser.Analyse
 0001:00010368       TELTD32InfoParser.AnalyseAlignSymbols
 0001:000104E8       TELTD32InfoParser.AnalyseModules
 0001:00010338       TELTD32InfoParser.AnalyseNames
 0001:0001050C       TELTD32InfoParser.AnalyseSourceModules
 0001:00010080       TELTD32InfoParser.Create
 0001:000101A0       TELTD32InfoParser.Destroy
 0001:000105D0       TELTD32InfoParser.FindModule
 0001:00010728       TELTD32InfoParser.FindProc
 0001:00010688       TELTD32InfoParser.FindSourceModule
 0001:00010554       TELTD32InfoParser.GetModule
 0001:00010568       TELTD32InfoParser.GetModuleCount
 0001:00010570       TELTD32InfoParser.GetName
 0001:00010590       TELTD32InfoParser.GetNameCount
 0001:00010598       TELTD32InfoParser.GetSourceModule
 0001:000105AC       TELTD32InfoParser.GetSourceModuleCount
 0001:000105B4       TELTD32InfoParser.GetSymbol
 0001:000105C8       TELTD32InfoParser.GetSymbolCount
 0001:000107B0       TELTD32InfoParser.IsTD32DebugInfoValid
 0001:00010884       TELTD32InfoParser.IsTD32Sign
 0001:0001089C       TELTD32InfoParser.LfaToVa
 0001:000108A4       TELTD32InfoScanner.LineNumberFromAddr
 0001:000108F0       TELTD32InfoScanner.ModuleNameFromAddr
 0001:00010B8C       TELTD32InfoScanner.ProcNameFromAddr
 0001:00010C28       TELTD32InfoScanner.SourceNameFromAddr
 0001:0000FEF8       TELUdtSymbolInfo.Create
 0001:0000FFBC       TELVftPathSymbolInfo.Create
 0001:0000FCB4       TELWithSymbolInfo.Create
 0001:00035950       TempPath
 0002:0000A6F4       TerminateApplication
 0001:000008D4       TerminateProcess
 0001:000008DC       TerminateThread
 0001:00028F04       TestDecrypt
 0001:0006DA70       TEurekaApp.ExceptionNotify
 0001:00013334       TEurekaClientSMTP.GetText
 0001:000132F0       TEurekaClientSMTP.Open
 0001:00013410       TEurekaClientSMTP.SendCommand
 0001:00012C78       TEurekaClientSocket.Close
 0001:00012BB4       TEurekaClientSocket.Create
 0001:00012C44       TEurekaClientSocket.Destroy
 0001:00012AD8       TEurekaClientSocket.Error
 0001:00013264       TEurekaClientSocket.GetFullText
 0001:00012A7C       TEurekaClientSocket.LookupName
 0001:00012D38       TEurekaClientSocket.Open
 0001:000130A4       TEurekaClientSocket.ReceiveBuf
 0001:0001329C       TEurekaClientSocket.ReceiveFullText
 0001:0001318C       TEurekaClientSocket.ReceiveText
 0001:00012F24       TEurekaClientSocket.SendBuf
 0001:00012FEC       TEurekaClientSocket.SendText
 0001:000090B4       TEurekaExceptionsFilters.Add
 0001:000090D0       TEurekaExceptionsFilters.Assign
 0001:0000918C       TEurekaExceptionsFilters.Clear
 0001:000091B8       TEurekaExceptionsFilters.Create
 0001:000091F0       TEurekaExceptionsFilters.Delete
 0001:00009220       TEurekaExceptionsFilters.Destroy
 0001:0000924C       TEurekaExceptionsFilters.GetItem
 0001:00009260       TEurekaExceptionsFilters.Insert
 0001:00058074       TEurekaFunctionsList.Clear
 0001:00058098       TEurekaFunctionsList.Delete
 0001:000580C0       TEurekaFunctionsList.Destroy
 0001:000580EC       TEurekaFunctionsList.GetItem
 0001:000356BC       TEurekaLog.Create
 0001:00035838       TEurekaLog.Destroy
 0001:000356A8       TEurekaLogList.GetItem
 0001:0000934C       TEurekaModuleOptions.Assign
 0001:00009274       TEurekaModuleOptions.Create
 0001:00009318       TEurekaModuleOptions.Destroy
 0001:0000B03C       TEurekaModuleOptions.DisableSharedDataWrite
 0001:0000B040       TEurekaModuleOptions.EnableSharedDataWrite
 0001:00009714       TEurekaModuleOptions.GetCustomizedExpandedTexts
 0001:000096F8       TEurekaModuleOptions.GetCustomizedTexts
 0001:00009FD8       TEurekaModuleOptions.LoadCustomizedTextsFromFile
 0001:0000A0BC       TEurekaModuleOptions.LoadFromFile
 0001:0000A2B8       TEurekaModuleOptions.LoadFromStream
 0001:0000BC28       TEurekaModuleOptions.OutputFile
 0001:0000BDC4       TEurekaModuleOptions.OutputLogFile
 0001:0000B044       TEurekaModuleOptions.SaveCustomizedTextsToFile
 0001:00009730       TEurekaModuleOptions.SaveToFile
 0001:0000B128       TEurekaModuleOptions.SaveToSharedData
 0001:0000988C       TEurekaModuleOptions.SaveToStream
 0001:0000B74C       TEurekaModuleOptions.SetActivateHandle
 0001:0000B758       TEurekaModuleOptions.SetActivateLog
 0001:0000B6FC       TEurekaModuleOptions.SetActive
 0001:0000B764       TEurekaModuleOptions.SetAppendLogs
 0001:0000BA7C       TEurekaModuleOptions.SetAttachedFiles
 0001:0000BAC0       TEurekaModuleOptions.SetAutoCloseDialogSecs
 0001:0000BACC       TEurekaModuleOptions.SetAutoCrashMinutes
 0001:0000BAD8       TEurekaModuleOptions.SetAutoCrashNumber
 0001:0000BAE4       TEurekaModuleOptions.SetAutoCrashOperation
 0001:0000BB30       TEurekaModuleOptions.SetBehaviourOptions
 0001:0000BB48       TEurekaModuleOptions.SetCallStackOptions
 0001:0000BA50       TEurekaModuleOptions.SetCommonSendOptions
 0001:0000BA68       TEurekaModuleOptions.SetCompiledFileOptions
 0001:0000B6A0       TEurekaModuleOptions.SetCustomizedTexts
 0001:0000B770       TEurekaModuleOptions.SetEMailAddresses
 0001:0000B790       TEurekaModuleOptions.SetEMailMessage
 0001:0000B7B0       TEurekaModuleOptions.SetEMailSendMode
 0001:0000B7BC       TEurekaModuleOptions.SetEMailSubject
 0001:0000B714       TEurekaModuleOptions.SetErrorsNumberToSave
 0001:0000B7DC       TEurekaModuleOptions.SetErrorsNumberToShowTerminateBtn
 0001:0000BA9C       TEurekaModuleOptions.SetExceptionDialogOptions
 0001:0000BAB4       TEurekaModuleOptions.SetExceptionDialogType
 0001:0000B7E8       TEurekaModuleOptions.SetExceptionsFilters
 0001:0000B7F4       TEurekaModuleOptions.SetForegroundTab
 0001:0000B708       TEurekaModuleOptions.SetFreezeActivate
 0001:0000B800       TEurekaModuleOptions.SetFreezeTimeout
 0001:0000BAF0       TEurekaModuleOptions.SetHTMLLayout
 0001:0000B80C       TEurekaModuleOptions.SetLogOptions
 0001:0000B730       TEurekaModuleOptions.SetModuleName
 0001:0000B820       TEurekaModuleOptions.SetOutputPath
 0001:0000B840       TEurekaModuleOptions.SetPostFailureBuildEvent
 0001:0000B85C       TEurekaModuleOptions.SetPostSuccessfulBuildEvent
 0001:0000B878       TEurekaModuleOptions.SetPreBuildEvent
 0001:0000B894       TEurekaModuleOptions.SetProxyPassword
 0001:0000B8B0       TEurekaModuleOptions.SetProxyPort
 0001:0000B8BC       TEurekaModuleOptions.SetProxyURL
 0001:0000B8D8       TEurekaModuleOptions.SetProxyUserID
 0001:0000B8F4       TEurekaModuleOptions.SetSaveLogFile
 0001:0000B900       TEurekaModuleOptions.SetShowOptions
 0001:0000B914       TEurekaModuleOptions.SetSMTPFrom
 0001:0000B930       TEurekaModuleOptions.SetSMTPHost
 0001:0000B94C       TEurekaModuleOptions.SetSMTPPassword
 0001:0000B968       TEurekaModuleOptions.SetSMTPPort
 0001:0000B974       TEurekaModuleOptions.SetSMTPUserID
 0001:0000BB10       TEurekaModuleOptions.SetSupportURL
 0001:0000B990       TEurekaModuleOptions.SetTerminateBtnOperation
 0001:0000B99C       TEurekaModuleOptions.SetTextsCollection
 0001:0000B158       TEurekaModuleOptions.SetToDefaultOptions
 0001:0000B5F8       TEurekaModuleOptions.SetTrakerAssignTo
 0001:0000B614       TEurekaModuleOptions.SetTrakerCategory
 0001:0000B630       TEurekaModuleOptions.SetTrakerPassword
 0001:0000B64C       TEurekaModuleOptions.SetTrakerProject
 0001:0000B668       TEurekaModuleOptions.SetTrakerTrialID
 0001:0000B684       TEurekaModuleOptions.SetTrakerUserID
 0001:0000B9E8       TEurekaModuleOptions.SetWebPassword
 0001:0000BA08       TEurekaModuleOptions.SetWebPort
 0001:0000B9BC       TEurekaModuleOptions.SetWebSendMode
 0001:0000B9C8       TEurekaModuleOptions.SetWebURL
 0001:0000BA14       TEurekaModuleOptions.SetWebUserID
 0001:0000BA34       TEurekaModuleOptions.SetZipPassword
 0001:0000B038       TEurekaModuleOptions.StoreSharedData
 0001:00059B94       TEurekaModuleOptionsEx.SetActive
 0001:00059BDC       TEurekaModuleOptionsEx.SetFreezeActivate
 0001:00059C24       TEurekaModuleOptionsEx.StoreSharedData
 0001:00057AA0       TEurekaModulesList.Clear
 0001:00057AC4       TEurekaModulesList.Delete
 0001:00057B18       TEurekaModulesList.Destroy
 0001:00057B44       TEurekaModulesList.GetItem
 0001:00057B58       TEurekaProcessesList.Clear
 0001:00057B7C       TEurekaProcessesList.Delete
 0001:00057BA4       TEurekaProcessesList.Destroy
 0001:00057BD0       TEurekaProcessesList.GetItem
 0001:000579A4       TEurekaStackList.AddFrom
 0001:00057A14       TEurekaStackList.Clear
 0001:00057A38       TEurekaStackList.Delete
 0001:00057A60       TEurekaStackList.Destroy
 0001:00057A8C       TEurekaStackList.GetItem
 0001:00057E70       TEurekaThreadsList.BeginRead
 0001:00057E88       TEurekaThreadsList.BeginWrite
 0001:00057F4C       TEurekaThreadsList.CallUnhandledException
 0001:00057D08       TEurekaThreadsList.Clear
 0001:00057BE4       TEurekaThreadsList.Create
 0001:00057D2C       TEurekaThreadsList.Delete
 0001:00057CCC       TEurekaThreadsList.Destroy
 0001:00057E7C       TEurekaThreadsList.EndRead
 0001:00057E94       TEurekaThreadsList.EndWrite
 0001:00057DCC       TEurekaThreadsList.FindByThreadHandle
 0001:00057E2C       TEurekaThreadsList.FindByThreadID
 0001:00057DFC       TEurekaThreadsList.FindByThreadObject
 0001:00057E5C       TEurekaThreadsList.GetItem
 0001:00057EA0       TEurekaThreadsList.NewItem
 0001:00057EDC       TEurekaThreadsList.PurgeList
 0001:00057D70       TEurekaThreadsList.RemoveCurrentThread
 0001:00058004       TEurekaThreadsList.SetExceptionType
 0001:00055D5C       TExceptionThread.Create
 0001:00055EA0       TExceptionThread.Execute
 0001:00000A44       TextOut
 0001:00037104       TextToHtml
 0001:00035ED0       TextToRTF
 0002:0000ABE4       TextWidth
 0001:00059800       TFreezeThread.Create
 0001:00059838       TFreezeThread.Execute
 0001:00039084       THModuleStream.Create
 0001:0000F504       THModuleStream.Create
 0001:000390CC       THModuleStream.Destroy
 0001:000390FC       THModuleStream.SecureRead
 0001:0001136C       THookedMethodsList.Create
 0001:000113D8       THookedMethodsList.Delete
 0001:00011400       THookedMethodsList.Destroy
 0001:000113AC       THookedMethodsList.GetItem
 0001:000113C0       THookedMethodsList.Lock
 0001:000113CC       THookedMethodsList.Unlock
 0002:0000A7D8       ThreadsCriticalSection
 0002:0000A6C8       ThreadsList
 0002:0000A7C0       ThreadWrapperAddr
 0001:00023D10       THTTPBugzillaSendReport.PostBug
 0001:00059CF0       THTTPConnection.SetSendState
 0001:000230A8       THTTPConnectionBase.AddBugSummary
 0001:00022B14       THTTPConnectionBase.AddField
 0001:00022C88       THTTPConnectionBase.AddFieldByDefaultList
 0001:00022D0C       THTTPConnectionBase.AddFieldByListTitle
 0001:00022C04       THTTPConnectionBase.AddFieldByTextArea
 0001:00022B80       THTTPConnectionBase.AddFieldValue
 0001:0002314C       THTTPConnectionBase.AddSearchText
 0001:00021C18       THTTPConnectionBase.Close
 0001:00021868       THTTPConnectionBase.Create
 0001:00021A8C       THTTPConnectionBase.Destroy
 0001:00022E6C       THTTPConnectionBase.GetBugCountField
 0001:00022FDC       THTTPConnectionBase.IsSuccessfulSend
 0001:00021AE4       THTTPConnectionBase.Open
 0001:000221A8       THTTPConnectionBase.SendRequest
 0001:00022AE4       THTTPConnectionBase.SetRequest
 0001:00024AAC       THTTPFogBugzSendReport.PostBug
 0001:000231D8       THTTPMantisSendReport.PostBug
 0001:00026974       THTTPResponse.Assign
 0001:00026A50       THTTPResponse.Clear
 0001:00026934       THTTPSendReport.Create
 0001:00026970       THTTPSendReport.SetHTTPConnectionClass
 0001:0006E6CC       TIDEManager.CheckAndInstallNotify
 0001:0006E980       TIDEManager.CheckForConflicts
 0001:0006EBB4       TIDEManager.DeleteText
 0001:0006E6A8       TIDEManager.FindNotifier
 0001:0006E128       TIDEManager.FromPathToList
 0001:0006E1D4       TIDEManager.GetLibraryPath
 0001:0006EBC0       TIDEManager.GetText
 0001:0006EBCC       TIDEManager.InsertText
 0001:0006EBD4       TIDEManager.InstallNotifier
 0001:0006E67C       TIDEManager.InternalInstallNotifier
 0001:0006E68C       TIDEManager.InternalRemoveNotifier
 0001:0006EBD8       TIDEManager.MarkModified
 0001:0006E30C       TIDEManager.PathFromInternalFiles
 0001:0006EBDC       TIDEManager.RemoveNotifier
 0001:0006EBB0       TIDEManager.SaveAllModifiedFiles
 0001:0006E4C0       TIDEManager.SearchDir
 0001:0006EBBC       TIDEManager.SetMenuState
 0001:0006EBE4       TIDEManager.ShowFile
 0001:0006EBE0       TIDEManager.UnloadProjectsList
 0001:0007B504       TIDENewManager.DeleteText
 0001:0007B004       TIDENewManager.GetEditor
 0001:0007B340       TIDENewManager.GetText
 0001:0007B454       TIDENewManager.InsertText
 0001:0007B0F4       TIDENewManager.InstallNotifier
 0001:0007B290       TIDENewManager.MarkModified
 0001:0007B20C       TIDENewManager.RemoveNotifier
 0001:0007BBA0       TIDENewManager.SaveAllModifiedFiles
 0001:0007B5B4       TIDENewManager.SetMenuState
 0001:0007B868       TIDENewManager.ShowFile
 0001:0007BDE0       TIDENewManager.UnloadProjectsList
 0001:00079F74       TIDENotifier.AfterCompile
 0001:0007A340       TIDENotifier.AfterCompile
 0001:00079F60       TIDENotifier.AfterSave
 0001:0007A0B0       TIDENotifier.BeforeCompile
 0001:00079F70       TIDENotifier.BeforeCompile
 0001:00079F64       TIDENotifier.BeforeSave
 0001:00079F68       TIDENotifier.Destroyed
 0001:0007A3F0       TIDENotifier.FileNotification
 0001:00079F6C       TIDENotifier.Modified
 0001:0006CD10       TIDEOptionsForm.CheckUpdatesClick
 0001:0006CD5C       TIDEOptionsForm.FormCreate
 0001:0006CE48       TIDEOptionsForm.OKClick
 0001:00056E70       TIdThread.HandledException
 0001:0005F6BC       TImageSectionRead.Create
 0001:0005F710       TImageSectionWrite.Create
 0001:0005F7A0       TImageSectionWrite.Destroy
 0001:000615E0       TInMemIniFile.AddSection
 0001:0006163C       TInMemIniFile.Clear
 0001:00061518       TInMemIniFile.Create
 0001:00061B84       TInMemIniFile.DecodeData
 0001:000626A0       TInMemIniFile.DeleteKey
 0001:000615A4       TInMemIniFile.Destroy
 0001:00061DF4       TInMemIniFile.EncodeData
 0001:000626A4       TInMemIniFile.EraseSection
 0001:000617BC       TInMemIniFile.GetDataRange
 0001:00061674       TInMemIniFile.GetStrings
 0001:00061980       TInMemIniFile.LoadValues
 0001:000626A8       TInMemIniFile.ReadSection
 0001:000626AC       TInMemIniFile.ReadSections
 0001:000626B0       TInMemIniFile.ReadSectionValues
 0001:00061FB0       TInMemIniFile.ReadString
 0001:00062058       TInMemIniFile.SetStrings
 0001:00062390       TInMemIniFile.UpdateFile
 0001:00062140       TInMemIniFile.WriteString
 0002:00006264       TInvalidChars
 0001:00071DC8       TKeyThread.Create
 0001:00071E58       TKeyThread.Execute
 0001:0002BAE4       TListViewItems.AddRow
 0001:0002C024       TListViewItems.Clear
 0001:0002BE74       TListViewItems.ClickOnItem
 0001:0002B890       TListViewItems.Create
 0001:0002BFE0       TListViewItems.Delete
 0001:0002BE04       TListViewItems.DeleteItem
 0001:0002BA4C       TListViewItems.Destroy
 0001:0002C65C       TListViewItems.DrawItem
 0001:0002C634       TListViewItems.DrawList
 0001:0002C048       TListViewItems.GetItem
 0001:0002C05C       TListViewItems.GetItemParam
 0001:0002C74C       TListViewItems.InitializeData
 0001:0002BCD4       TListViewItems.InsertItem
 0001:0002BE18       TListViewItems.RedrawItems
 0001:0002C85C       TListViewItems.SetRedrawState
 0001:000277E8       TLogFile.Append
 0001:00027888       TLogFile.Clear
 0001:00027308       TLogFile.Create
 0001:00027878       TLogFile.DeleteItem
 0001:000273B4       TLogFile.Destroy
 0001:00027B08       TLogFile.FindItem
 0001:0002AC04       TLogFile.GetCorruptedLog
 0001:00028204       TLogFile.GetCount
 0001:00028224       TLogFile.GetItem
 0001:00027F9C       TLogFile.GetItemValue
 0001:00028654       TLogFile.GetItem_Assembler
 0001:00029ED0       TLogFile.GetItem_AssemblerXML
 0001:00028378       TLogFile.GetItem_CallStack
 0001:00028F3C       TLogFile.GetItem_CallStackXML
 0001:00028738       TLogFile.GetItem_CPU
 0001:0002A15C       TLogFile.GetItem_CPUXML
 0001:000282D4       TLogFile.GetItem_Generals
 0001:00028B18       TLogFile.GetItem_GeneralsXML
 0001:00028410       TLogFile.GetItem_Modules
 0001:00029844       TLogFile.GetItem_ModulesXML
 0001:00028518       TLogFile.GetItem_Processes
 0001:00029B88       TLogFile.GetItem_ProcessesXML
 0001:00028850       TLogFile.GetItem_Reproduce
 0001:0002A708       TLogFile.GetItem_ReproduceXML
 0001:0002A80C       TLogFile.GetItem_XML
 0001:0002AB30       TLogFile.GetLogVersion
 0001:00028210       TLogFile.GetText
 0001:0002A9CC       TLogFile.GetXML
 0001:00027624       TLogFile.LoadFromStream
 0001:00027544       TLogFile.ParseBuffer
 0001:00027BB4       TLogFile.Save
 0001:00027720       TLogFile.SaveToStream
 0001:0002ACEC       TLogFile.SaveXMLCopy
 0001:00028240       TLogFile.SectionIndex
 0001:00027C44       TLogFile.SetItemValue
 0001:0002ADD8       TLogItem.AddHeader
 0001:0002AE50       TLogItem.AddItem
 0001:0002ADC0       TLogItem.Clear
 0001:0002AD88       TLogItem.Create
 0001:0002B2F4       TLogItem.GetString
 0001:000003F8       TlsAlloc
 0002:0000700C       tlsBuffer
 0001:00000400       TlsFree
 0001:00000408       TlsGetValue
 0002:00000000       TlsIndex
 0002:FFB820DB       TlsLast
 0002:00000020       TlsProc
 0001:00000410       TlsSetValue
 0001:0006DE88       TMailSlotTimer.Create
 0001:0006DEE0       TMailSlotTimer.TimerTick
 0001:0006EDC4       TMenuEvents.OnAboutClick
 0001:0006EC50       TMenuEvents.OnHelpOptionsClick
 0001:0006EC58       TMenuEvents.OnIDEOptionsClick
 0001:0006EC7C       TMenuEvents.OnOptionsClick
 0001:0006EDBC       TMenuEvents.OnTutorialClick
 0001:0006ECEC       TMenuEvents.OnViewLogClick
 0001:00078AAC       TMessageForm.ExceptionTypeChange
 0001:00078B04       TMessageForm.FormCreate
 0001:00078C60       TMessageForm.FormShow
 0001:00078CC0       TMessageForm.HandlerTypeCmbChange
 0001:00077C4C       TModule.BuildMapFile
 0001:00077610       TModule.DeleteText
 0001:00077830       TModule.ErrorMessage
 0001:00077628       TModule.GetModuleInfo
 0001:00077D04       TModule.GetOutputDir
 0001:00076B98       TModule.GetRealFileName
 0001:000775E0       TModule.GetText
 0001:00077E28       TModule.GetUnitDirs
 0001:000775F8       TModule.InsertText
 0001:00077AA0       TModule.MakeLine
 0001:00076FBC       TModule.SetDebugOptions
 0001:0007A62C       TModuleNotifier.AfterSave
 0001:0007A6EC       TModuleNotifier.BeforeSave
 0001:0007A760       TModuleNotifier.CheckOverwrite
 0001:0007A4B4       TModuleNotifier.Create
 0001:0007A548       TModuleNotifier.Destroy
 0001:0007A574       TModuleNotifier.Destroyed
 0001:0007A764       TModuleNotifier.Modified
 0001:0007A6A0       TModuleNotifier.ModuleRenamed
 0001:0006BC74       TModules.AddModule
 0001:0006BE5C       TModules.Delete
 0001:0006BCF0       TModules.Destroy
 0001:0006BD34       TModules.FindByName
 0001:0006BDE4       TModules.GetCurrentModule
 0001:0006BE48       TModules.GetItem
 0001:0006BE7C       TModules.SetItem
 0001:0004C4C0       TmpCompressedFileName
 0001:0003D708       TmpLastHTMLPage
 0001:0003D4FC       TmpLogFileName
 0001:0003D5E4       TmpOptionsFileName
 0001:0003D4DC       TmpScreenshot
 0001:0003D728       TmpXMLLogCopy
 0001:0003D57C       TmpZIPFileName
 0002:00007078       TObjectCreate
 0002:0000707C       TObjectNewInstance
 0002:0000ABEC       TopButton
 0001:00040FB4       TopMostTimerProc
 0001:000781A4       TOptionsForm.ActivateAutoTerminationClick
 0001:00077F94       TOptionsForm.ActivateClick
 0001:0007812C       TOptionsForm.Activate_HandleClick
 0001:00071F0C       TOptionsForm.AddBtnClick
 0001:00072058       TOptionsForm.AutoTerminationOperationChange
 0001:00076924       TOptionsForm.CatchLeaksClick
 0001:000769A4       TOptionsForm.ChangeMessageText
 0001:000785D0       TOptionsForm.CheckFileCorruptionClick
 0001:00072248       TOptionsForm.CollectionsListClick
 0001:00072404       TOptionsForm.DeleteCollectionBtnClick
 0001:000725E4       TOptionsForm.DialogTypeCmbChange
 0001:00073CFC       TOptionsForm.ErrorsNumberKeyPress
 0001:00073D10       TOptionsForm.ExceptionsFiltersListDblClick
 0001:00073FD4       TOptionsForm.ExceptionsFiltersListDeletion
 0001:00073FFC       TOptionsForm.ExceptionsFiltersListInsert
 0001:000736B4       TOptionsForm.FlatTimerTimer
 0001:0007388C       TOptionsForm.FormCreate
 0001:00074758       TOptionsForm.FormDestroy
 0001:00072A04       TOptionsForm.FormShow
 0001:00077F3C       TOptionsForm.FreezeActivateChkBoxClick
 0001:00074C2C       TOptionsForm.GetEmailSendType
 0001:00074C54       TOptionsForm.GetWebSendType
 0001:000745A0       TOptionsForm.HelpBtnClick
 0001:000767E8       TOptionsForm.HelpBtnKeyDown
 0001:0007476C       TOptionsForm.LeaksLimitsClick
 0001:00074794       TOptionsForm.LoadBtnClick
 0001:00074CB8       TOptionsForm.LoadModuleFromForm
 0001:000767FC       TOptionsForm.LogSaveLogFileClick
 0001:00076A90       TOptionsForm.MessagesListClick
 0001:00076AAC       TOptionsForm.MessagesListKeyUp
 0001:00076AC4       TOptionsForm.MessagesTextCustomDraw
 0001:000731A0       TOptionsForm.OKBtnClick
 0001:00073468       TOptionsForm.Option1Click
 0001:0007368C       TOptionsForm.Option1MouseMove
 0001:00074518       TOptionsForm.OutputBtnClick
 0001:000785CC       TOptionsForm.Panel49Resize
 0001:00078224       TOptionsForm.PauseBorlandThreadsClick
 0001:00078260       TOptionsForm.PostFailBtnClick
 0001:000782C4       TOptionsForm.PostSuccBtnClick
 0001:00078328       TOptionsForm.PreBuildBtnClick
 0001:00073C54       TOptionsForm.RewriteLogClick
 0001:00074854       TOptionsForm.SaveBtnClick
 0001:00074A74       TOptionsForm.SaveCollectionBtnClick
 0001:00075D78       TOptionsForm.SaveModuleToForm
 0001:00074024       TOptionsForm.SendOptionsClick
 0001:0007845C       TOptionsForm.SendScreenClick
 0001:00074C40       TOptionsForm.SetEmailSendType
 0001:00074C68       TOptionsForm.SetWebSendType
 0001:00072810       TOptionsForm.SubBtnClick
 0001:00072878       TOptionsForm.TerminateOperationEdtChange
 0001:000728E0       TOptionsForm.TextMemoChange
 0001:000729D4       TOptionsForm.TextMemoExit
 0001:000729DC       TOptionsForm.VariableBtnClick
 0001:0007838C       TOptionsForm.WebOptClick
 0001:0005F1D0       TPEModule.Create
 0001:0005F234       TPEModule.Decode
 0001:0005F438       TPEModule.Destroy
 0001:0005F4B8       TPEModule.Encode
 0001:0005F4BC       TPEModule.FindDictionaryEntrySection
 0001:0005F508       TPEModule.GetCOFFHeader
 0001:0005F518       TPEModule.GetDataDictionary
 0001:0005F594       TPEModule.GetDataDictionaryCount
 0001:0005F59C       TPEModule.GetDOSHeader
 0001:0005F5B0       TPEModule.GetImageSection
 0001:0005F5C4       TPEModule.GetImageSectionCount
 0001:0005F5CC       TPEModule.LoadFromFile
 0001:0005F620       TPEModule.LoadFromStream
 0001:0005F644       TPEModule.SaveToFile
 0001:0005F69C       TPEModule.SaveToStream
 0001:000608B8       TPEResourceModule.AddResource
 0001:0005F83C       TPEResourceModule.Create
 0001:0005FAC8       TPEResourceModule.Decode
 0001:0005F7F4       TPEResourceModule.DeleteResource
 0001:0005F880       TPEResourceModule.Destroy
 0001:00060018       TPEResourceModule.Encode
 0001:0005FB34       TPEResourceModule.GetResourceCount
 0001:0005FB3C       TPEResourceModule.GetResourceDetails
 0001:0005F7D0       TPEResourceModule.GetResourceSection
 0001:0005FB50       TPEResourceModule.IndexOfResource
 0001:0005FB5C       TPEResourceModule.InsertResource
 0001:000608C4       TPEResourceModule.SortResources
 0001:000126C0       TranslateCharsetInfo
 0001:00000C74       TranslateMessage
 0001:0005EED8       TResourceDetails.ChangeData
 0001:0005EEF8       TResourceDetails.Create
 0001:0005EF84       TResourceDetails.Destroy
 0001:0005EFB4       TResourceDetails.GetBaseType
 0001:0005EFD4       TResourceDetails.InitNew
 0001:0005EFD8       TResourceDetails.SetResourceName
 0001:0005EFF0       TResourceModule.AddResource
 0001:0005EFF4       TResourceModule.ClearDirty
 0001:0005F024       TResourceModule.DeleteResource
 0001:0005F02C       TResourceModule.GetDirty
 0001:0005F06C       TResourceModule.InsertResource
 0001:0005F070       TResourceModule.LoadFromFile
 0001:0005F0C4       TResourceModule.LoadFromStream
 0001:0005F118       TResourceModule.SaveToFile
 0001:0005F178       TResourceModule.SaveToStream
 0001:0005F1CC       TResourceModule.SortResources
 0001:000602DC       TResourceNode.Add
 0001:000603C4       TResourceNode.AddLang
 0001:000604DC       TResourceNode.AddName
 0001:000602B8       TResourceNode.ChangeSize
 0001:000605BC       TResourceNode.Create
 0001:00060650       TResourceNode.CreateLangNode
 0001:00060704       TResourceNode.CreateNameNode
 0001:00060794       TResourceNode.Destroy
 0001:000607EC       TResourceNode.IsID
 0001:000602AC       TResourceNode.SetInitialSize
 0001:00060288       TResourceNode.SetSize
 0001:00012344       TryHookDllProcedureEx
 0001:00058124       TSafeObject.GetSafeCall
 0001:0004BC58       TSendDialogThread.Create
 0001:0004BCA0       TSendDialogThread.Execute
 0001:0004ACD4       TSendObject.OnSent
 0001:0004D6A8       TSendThread.Execute
 0001:0007C158       TStartTimer.EventTimer
 0002:00006240       TUnhandledModules
 0001:0006C848       TVariableForm.CopyBtnClick
 0001:0006C8C4       TVariableForm.FormCreate
 0001:0006C9BC       TVariableForm.VariablesListClick
 0001:0006C53C       TWaitForm.FormCreate
 0002:00004DC8       TwoByteOpcodes
 0001:00064E8C       TwoDots
 0001:00026CB0       TXMLItem.AddField
 0001:00026D44       TXMLItem.AddItem
 0001:00026F50       TXMLItem.AppendXMLText
 0001:00026D54       TXMLItem.Create
 0001:00026DFC       TXMLItem.Destroy
 0001:00026E2C       TXMLItem.EncodedString
 0001:00027084       TXMLItem.GetXMLText
 0001:0002710C       TXMLItem.SaveXMLToFile
 0001:000270A0       TXMLItem.SetValue
 0001:00026C20       TXMLItems.AddItem
 0001:00026C4C       TXMLItems.Destroy
 0001:00026C9C       TXMLItems.GetItem
 0002:000063E8       TypeValues
 0001:0001F48C       TZipExtractor.Create
 0001:0001F560       TZipWriter.AddFile
 0001:0001F510       TZipWriter.Create
 0001:0001F5CC       TZipWriter.Destroy
 0002:00000048       UnassignedPointer
 0002:0000618C       UnAttachableThreads
 0001:0006D9B0       UnHookApplicationOnException
 0001:00011F64       UnhookProcedure
 0001:000115E8       UnhookVirtualMethod
 0001:00000C7C       UnhookWindowsHookEx
 0001:00000534       UninitializeModule
 0001:00001F40       UnlockVariable
 0001:000008E4       UnmapViewOfFile
 0001:00040F94       UnsetAutoCloseTimer
 0001:00041018       UnsetAutoTopMost
 0001:00017240       unzCloseCurrentFile
 0001:0001683C       unzGetCurrentFileInfo
 0001:000164B0       unzGetGlobalInfo
 0001:000168A0       unzGoToNextFile
 0001:00016474       unzOpen
 0001:00016EDC       unzOpenCurrentFilePassword
 0001:00016F00       unzReadCurrentFile
 0002:000063B8       UpdateThread
 0001:0004CE6C       UploadBugTrakerFiles
 0001:0004CBE4       UploadFTPFiles
 0001:0004CA08       UploadHTTPFiles
 0001:00001B8C       UpperCase
 0001:00021798       URLEncode
 0001:000017EC       UrlMon
 0002:00007089       UseNewMemoryManager
 0001:000126C8       UserCharSet
 0002:0000A7D4       UserEmail
 0001:00036E2C       UserFullName
 0001:00036DF8       UserName
 0002:0000A808       UseTopMost
 0002:00004948       ValidDomainChars
 0002:0000B51C       VariableForm
 0002:0000A71C       VCLHandleException
 0002:0000A720       VCLShowException
 0001:00000944       VerQueryValue
 0001:0003B878       VersionWorkAround
 0001:0005CAE8       ViewerPath
 0001:000008EC       VirtualAlloc
 0001:000008F4       VirtualFree
 0001:000008FC       VirtualProtect
 0001:00000904       VirtualQuery
 0001:00000C84       WaitForInputIdle
 0002:0000B514       WaitForm
 0001:0000090C       WaitForSingleObject
 0001:0004BCAC       WebCallBackProc
 0001:00000914       WideCharToMultiByte
 0001:00000D24       Windows
 0001:00007CEC       WindowsDir
 0002:0000ABF0       WindowState
 0001:00001824       WinInet
 0002:00001E04       WinInet_Error_Text
 0001:0001116C       WinSock
 0001:000019A4       WinSpool
 0002:00005C90       WordRegs1
 0002:00005C98       WordRegs2
 0001:000080CC       WriteBool
 0001:0000091C       WriteFile
 0001:0003ABCC       WriteHTMLToWeb
 0001:00049034       WriteIDAT
 0001:0000805C       WriteInteger
 0001:000116AC       WriteMem
 0001:00000924       WritePrivateProfileSection
 0001:0000092C       WritePrivateProfileString
 0001:00009E84       WriteRawStrings
 0001:0005ECC8       WriteResourceInStream
 0001:0005EAD8       WriteResourceSection
 0001:0006488C       WriteString
 0001:00007F94       WriteString
 0001:00009788       WriteString
 0001:000634FC       WriteStrings
 0001:0003B450       WriteTextToIntraWeb
 0001:0005442C       WriteToWeb
 0001:0001111C       WSAAsyncSelect
 0001:00011134       WSACleanup
 0001:00011124       WSAGetLastError
 0001:0001112C       WSAStartup
 0001:0001ECA0       XorBlock
 0001:00013F50       zcalloc
 0001:00013F5C       zcfree
 0001:00013F94       ZCheck
 0001:00014000       ZCompress
 0001:00014130       ZDecompress
 0001:0006F188       ZeroComplete
 0001:00000CAC       ZeroMemory
 0001:00015D2C       zipClose
 0001:00015D20       zipCloseFileInZip
 0001:00015428       zipOpen
 0001:00015434       zipOpenNewFileInZip3
 0001:00015A44       zipWriteInFileInZip
 0002:0000B4E0       _BorDebugNameIndexToName
 0002:0000B4E8       _BorDebugNextSymbol
 0002:0000B4C0       _BorDebugRegisterFile
 0002:0000B4D0       _BorDebugSrcModule
 0002:0000B4DC       _BorDebugSrcModuleLineNumbers
 0002:0000B4D8       _BorDebugSrcModuleSourceRanges
 0002:0000B4D4       _BorDebugSrcModuleSources
 0002:0000B4E4       _BorDebugStartSymbols
 0002:0000B4CC       _BorDebugSubSection
 0002:0000B4C8       _BorDebugSubSectionCount
 0002:0000B4EC       _BorDebugSymbolGPROC32
 0002:0000B4F0       _BorDebugSymbolGPROCREF
 0002:0000B4C4       _BorDebugUnregisterFile
 0001:00014364       _fclose
 0001:000142C8       _fopen
 0001:000142E8       _fread
 0001:00014280       _free
 0001:00014344       _fseek
 0001:00014330       _ftell
 0001:0001430C       _fwrite
 0001:00014270       _malloc
 0001:0001425C       _memcpy
 0001:00014244       _memset
 0001:000142AC       _rand
 0001:000142B8       _srand
 0001:00014290       _strlen
 0001:000142A0       _time
 0002:00000B60       _z_errmsg
 0002:0000182B       __dist_code
 0002:00001A2B       __length_code


  Address         Publics by Value

 0002:FFB820DB       TlsLast
 0001:000003E0       FreeLibrary
 0001:000003E8       LocalAlloc
 0001:000003F0       LocalFree
 0001:000003F8       TlsAlloc
 0001:00000400       TlsFree
 0001:00000408       TlsGetValue
 0001:00000410       TlsSetValue
 0001:00000418       AllocTlsBuffer
 0001:00000424       GetTlsSize
 0001:0000042C       InitThreadTLS
 0001:00000470       InitProcessTLS
 0001:0000049C       ExitThreadTLS
 0001:000004C4       ExitProcessTLS
 0001:000004E8       @GetTls
 0001:00000528       InitializeModule
 0001:00000534       UninitializeModule
 0001:00000558       @InitPkg
 0001:000005BC       @PackageLoad
 0001:000005C8       @PackageUnload
 0001:000005D4       Finalization
 0001:00000604       SysInit
 0001:0000060C       GetTokenInformation
 0001:00000614       GetUserName
 0001:0000061C       LookupPrivilegeName
 0001:00000624       OpenProcessToken
 0001:0000062C       RegCloseKey
 0001:00000634       RegEnumKeyEx
 0001:0000063C       RegEnumValue
 0001:00000644       RegOpenKeyEx
 0001:0000064C       RegQueryInfoKey
 0001:00000654       RegQueryValueEx
 0001:0000065C       CloseHandle
 0001:00000664       CreateFile
 0001:0000066C       CreateFileMapping
 0001:00000674       CreateMailslot
 0001:0000067C       CreateProcess
 0001:00000684       DeleteCriticalSection
 0001:0000068C       DeleteFile
 0001:00000694       DuplicateHandle
 0001:0000069C       EnterCriticalSection
 0001:000006A4       EnumSystemLocales
 0001:000006AC       ExitThread
 0001:000006B4       ExpandEnvironmentStrings
 0001:000006BC       FileTimeToDosDateTime
 0001:000006C4       FileTimeToLocalFileTime
 0001:000006CC       FindClose
 0001:000006D4       FindFirstFile
 0001:000006DC       FindResource
 0001:000006E4       FlushInstructionCache
 0001:000006EC       FreeEnvironmentStrings
 0001:000006F4       FreeLibrary
 0001:000006FC       GetACP
 0001:00000704       GetCommandLine
 0001:0000070C       GetComputerName
 0001:00000714       GetCurrentProcess
 0001:0000071C       GetCurrentProcessId
 0001:00000724       GetCurrentThread
 0001:0000072C       GetCurrentThreadId
 0001:00000734       GetEnvironmentStrings
 0001:0000073C       GetEnvironmentVariable
 0001:00000744       GetExitCodeProcess
 0001:0000074C       GetExitCodeThread
 0001:00000754       GetFileAttributes
 0001:0000075C       GetFileTime
 0001:00000764       GetHandleInformation
 0001:0000076C       GetLastError
 0001:00000774       GetLocalTime
 0001:0000077C       GetLocaleInfo
 0001:00000784       GetLocaleInfoA
 0001:0000078C       GetLocaleInfoW
 0001:00000794       GetMailslotInfo
 0001:0000079C       GetModuleFileName
 0001:000007A4       GetModuleHandle
 0001:000007AC       GetPriorityClass
 0001:000007B4       GetPrivateProfileString
 0001:000007BC       GetProcAddress
 0001:000007C4       GetProfileString
 0001:000007CC       GetStartupInfo
 0001:000007D4       GetSystemDefaultLangID
 0001:000007DC       GetSystemTime
 0001:000007E4       GetTempPath
 0001:000007EC       GetThreadContext
 0001:000007F4       GetThreadPriority
 0001:000007FC       GetTickCount
 0001:00000804       GetWindowsDirectory
 0001:0000080C       GlobalAlloc
 0001:00000814       GlobalFree
 0001:0000081C       GlobalLock
 0001:00000824       GlobalMemoryStatus
 0001:0000082C       GlobalUnlock
 0001:00000834       InitializeCriticalSection
 0001:0000083C       IsBadReadPtr
 0001:00000844       LeaveCriticalSection
 0001:0000084C       LoadLibrary
 0001:00000854       LoadLibraryEx
 0001:0000085C       LoadResource
 0001:00000864       LockResource
 0001:0000086C       MapViewOfFile
 0001:00000874       MoveFile
 0001:0000087C       MulDiv
 0001:00000884       OpenProcess
 0001:0000088C       OutputDebugString
 0001:00000894       ReadFile
 0001:0000089C       ResumeThread
 0001:000008A4       SetEnvironmentVariable
 0001:000008AC       SetFileTime
 0001:000008B4       SetLastError
 0001:000008BC       SizeofResource
 0001:000008C4       Sleep
 0001:000008CC       SuspendThread
 0001:000008D4       TerminateProcess
 0001:000008DC       TerminateThread
 0001:000008E4       UnmapViewOfFile
 0001:000008EC       VirtualAlloc
 0001:000008F4       VirtualFree
 0001:000008FC       VirtualProtect
 0001:00000904       VirtualQuery
 0001:0000090C       WaitForSingleObject
 0001:00000914       WideCharToMultiByte
 0001:0000091C       WriteFile
 0001:00000924       WritePrivateProfileSection
 0001:0000092C       WritePrivateProfileString
 0001:00000934       GetFileVersionInfo
 0001:0000093C       GetFileVersionInfoSize
 0001:00000944       VerQueryValue
 0001:0000094C       BitBlt
 0001:00000954       CombineRgn
 0001:0000095C       CreateBitmap
 0001:00000964       CreateCompatibleBitmap
 0001:0000096C       CreateCompatibleDC
 0001:00000974       CreateDIBSection
 0001:0000097C       CreateFont
 0001:00000984       CreateFontIndirect
 0001:0000098C       CreatePalette
 0001:00000994       CreateRectRgn
 0001:0000099C       CreateRectRgnIndirect
 0001:000009A4       CreateSolidBrush
 0001:000009AC       DeleteDC
 0001:000009B4       DeleteObject
 0001:000009BC       EnumFontFamiliesEx
 0001:000009C4       GetCurrentObject
 0001:000009CC       GetDIBits
 0001:000009D4       GetDeviceCaps
 0001:000009DC       GetMapMode
 0001:000009E4       GetObject
 0001:000009EC       GetPixel
 0001:000009F4       GetStockObject
 0001:000009FC       GetSystemPaletteEntries
 0001:00000A04       GetTextExtentPoint32
 0001:00000A0C       SelectObject
 0001:00000A14       SelectPalette
 0001:00000A1C       SetBkColor
 0001:00000A24       SetBkMode
 0001:00000A2C       SetDIBColorTable
 0001:00000A34       SetMapMode
 0001:00000A3C       SetTextColor
 0001:00000A44       TextOut
 0001:00000A4C       BeginPaint
 0001:00000A54       CallNextHookEx
 0001:00000A5C       CloseClipboard
 0001:00000A64       CopyRect
 0001:00000A6C       CreateDialogParam
 0001:00000A74       DefWindowProc
 0001:00000A7C       DestroyWindow
 0001:00000A84       DialogBoxParam
 0001:00000A8C       DispatchMessage
 0001:00000A94       DrawIconEx
 0001:00000A9C       DrawText
 0001:00000AA4       EmptyClipboard
 0001:00000AAC       EnableWindow
 0001:00000AB4       EndDialog
 0001:00000ABC       EndPaint
 0001:00000AC4       EnumWindows
 0001:00000ACC       FillRect
 0001:00000AD4       FindWindow
 0001:00000ADC       FrameRect
 0001:00000AE4       GetClassName
 0001:00000AEC       GetCursor
 0001:00000AF4       GetCursorPos
 0001:00000AFC       GetDC
 0001:00000B04       GetDesktopWindow
 0001:00000B0C       GetDlgItem
 0001:00000B14       GetFocus
 0001:00000B1C       GetForegroundWindow
 0001:00000B24       GetIconInfo
 0001:00000B2C       GetLastActivePopup
 0001:00000B34       GetSysColor
 0001:00000B3C       GetSystemMetrics
 0001:00000B44       GetWindowDC
 0001:00000B4C       GetWindowLong
 0001:00000B54       GetWindowPlacement
 0001:00000B5C       GetWindowRect
 0001:00000B64       GetWindowText
 0001:00000B6C       GetWindowThreadProcessId
 0001:00000B74       InvalidateRect
 0001:00000B7C       InvalidateRgn
 0001:00000B84       IsIconic
 0001:00000B8C       IsWindow
 0001:00000B94       IsWindowVisible
 0001:00000B9C       KillTimer
 0001:00000BA4       LoadBitmap
 0001:00000BAC       LoadCursor
 0001:00000BB4       MapVirtualKey
 0001:00000BBC       MessageBeep
 0001:00000BC4       MessageBox
 0001:00000BCC       MoveWindow
 0001:00000BD4       OffsetRect
 0001:00000BDC       OpenClipboard
 0001:00000BE4       PeekMessage
 0001:00000BEC       PostMessage
 0001:00000BF4       PtInRect
 0001:00000BFC       ReleaseDC
 0001:00000C04       ScreenToClient
 0001:00000C0C       SendMessage
 0001:00000C14       SendMessageTimeout
 0001:00000C1C       SetClipboardData
 0001:00000C24       SetCursor
 0001:00000C2C       SetFocus
 0001:00000C34       SetForegroundWindow
 0001:00000C3C       SetTimer
 0001:00000C44       SetWindowLong
 0001:00000C4C       SetWindowPlacement
 0001:00000C54       SetWindowPos
 0001:00000C5C       SetWindowsHookEx
 0001:00000C64       ShowWindow
 0001:00000C6C       SystemParametersInfo
 0001:00000C74       TranslateMessage
 0001:00000C7C       UnhookWindowsHookEx
 0001:00000C84       WaitForInputIdle
 0001:00000C8C       keybd_event
 0001:00000C94       MakeLong
 0001:00000CA0       HiWord
 0001:00000CA4       CopyMemory
 0001:00000CAC       ZeroMemory
 0001:00000CB4       RGB
 0001:00000CD0       GetRValue
 0001:00000CD4       GetGValue
 0001:00000CD8       GetBValue
 0001:00000CDC       CreateDialog
 0001:00000CF4       Finalization
 0001:00000D24       Windows
 0001:00000D3C       Finalization
 0001:00000D6C       Messages
 0001:00001474       Finalization
 0001:000014A4       CommCtrl
 0001:0000161C       Finalization
 0001:0000164C       Imm
 0001:00001784       Finalization
 0001:000017B4       ShlObj
 0001:000017BC       Finalization
 0001:000017EC       UrlMon
 0001:000017F4       Finalization
 0001:00001824       WinInet
 0001:0000182C       Finalization
 0001:0000185C       RegStr
 0001:00001864       ShellExecute
 0001:0000186C       Finalization
 0001:0000189C       ShellAPI
 0001:00001954       ClosePrinter
 0001:0000195C       EnumPrinters
 0001:00001964       GetPrinterDriver
 0001:0000196C       OpenPrinter
 0001:00001974       Finalization
 0001:000019A4       WinSpool
 0001:000019AC       Finalization
 0001:000019DC       CommDlg
 0001:000019E4       Finalization
 0001:00001A14       Dlgs
 0001:00001A6C       Finalization
 0001:00001A9C       RichEdit
 0001:00001B8C       UpperCase
 0001:00001BCC       ExtractFileName
 0001:00001C10       IsObjectCreation
 0001:00001C40       CallerOfReallocMem
 0001:00001C54       GetReadableSize
 0001:00001CDC       IsValidBlockAddr
 0001:00001DB0       IsValidClass
 0001:00001E00       IsAParentClassStr
 0001:00001ECC       ConvertAddress
 0001:00001F08       LockCheck
 0001:00001F14       LockVariable
 0001:00001F40       UnlockVariable
 0001:00001F44       GetFramesCallStackDump
 0001:00001FBC       GetRawCallStackDump
 0001:00001FE4       PurgeCallStack
 0001:000021E0       SetOurPointer
 0001:0000229C       CheckOurPointer
 0001:0000237C       HandleError
 0001:000023A4       GetDataCaller
 0001:000023B8       GetObjectCaller
 0001:000023C4       NewGetMem
 0001:00002430       NewFreeMem
 0001:00002464       NewReallocMem
 0001:000024D4       FindNextValidLeak
 0001:000024E4       IsALeakChild
 0001:00002554       AreTheSameLeak
 0001:00002578       FindLeakSons
 0001:000025D4       GetLeakCount
 0001:00002620       FindLeakAddress
 0001:00002760       RemoveMemBlock
 0001:00002830       FindLeakClassName
 0001:000028BC       PurgeInvalidLeaks
 0001:00002904       RemoveExtraLeaks
 0001:0000292C       Internal_ResetLeaks
 0001:00002940       Internal_AddLeak
 0001:000029F0       Internal_ShowLeaks
 0001:00002A04       PurgeCallStacks
 0001:00002A84       RemoveLeaksSons
 0001:00002AAC       FreeAllLeaks
 0001:00002AD8       CountAllLeaks
 0001:00002B00       HandleAnyLeak
 0001:00002B88       LeaksCheck
 0001:00002FF4       IsIntoIDE
 0001:000030D8       GetResourceData
 0001:00003120       GetRawOptions
 0001:000031BC       GetOptionsFromExeFile
 0001:00003200       ModuleName
 0001:00003288       IsCompiledWithPackages
 0001:000032A0       EnableMemoryLeaksCheck
 0001:0000342C       DisableMemoryLeaksCheck
 0001:0000346C       Init
 0001:0000353C       Done
 0001:000035C4       Finalization
 0001:000035FC       ELeaks
 0001:000045E0       Finalization
 0001:00004610       ETypes
 0001:000068EC       Finalization
 0001:00006970       EConsts
 0001:000076AC       ExpandEnvVar
 0001:00007788       EnvironmentVariable
 0001:00007BE0       GetProfileFolder
 0001:00007C9C       GetUserPath
 0001:00007CEC       WindowsDir
 0001:00007D1C       IniDir
 0001:00007D94       ReadString
 0001:00007EAC       ReadInteger
 0001:00007F30       ReadBool
 0001:00007F94       WriteString
 0001:0000805C       WriteInteger
 0001:000080CC       WriteBool
 0001:00008128       OneString
 0001:000081E0       SupportsEx
 0001:00008208       GetReadableSize
 0001:00008290       IsValidBlockAddr
 0001:000082A8       ConvertAddress
 0001:000082E0       GetModifiedDate
 0001:00008384       GetLongNameFromShort
 0001:000085B0       PosEx
 0001:00008648       QuickStringReplace
 0001:0000875C       ExtractStringsEx
 0001:0000887C       ReadKey
 0001:00008990       GetMultiConfigurationString
 0001:00008A84       RADRegistryKey
 0001:00008B18       RADDir
 0001:00008BCC       GetGMT
 0001:00008C0C       GetGMTDateTime
 0001:00008C38       EurekaLogType
 0001:00008CF8       GetEurekaLogLabel
 0001:00008D64       IntoIDE
 0001:00008D6C       CheckIntoIDE
 0001:00008E50       IsWritableFile
 0001:00008EE8       IsReadableFile
 0001:00008F20       CheckDirectoryExists
 0001:00008F44       IsFileOK
 0001:00008F60       GetWorkingFile
 0001:000090B4       TEurekaExceptionsFilters.Add
 0001:000090D0       TEurekaExceptionsFilters.Assign
 0001:0000918C       TEurekaExceptionsFilters.Clear
 0001:000091B8       TEurekaExceptionsFilters.Create
 0001:000091F0       TEurekaExceptionsFilters.Delete
 0001:00009220       TEurekaExceptionsFilters.Destroy
 0001:0000924C       TEurekaExceptionsFilters.GetItem
 0001:00009260       TEurekaExceptionsFilters.Insert
 0001:00009274       TEurekaModuleOptions.Create
 0001:00009318       TEurekaModuleOptions.Destroy
 0001:0000934C       TEurekaModuleOptions.Assign
 0001:000096F8       TEurekaModuleOptions.GetCustomizedTexts
 0001:00009714       TEurekaModuleOptions.GetCustomizedExpandedTexts
 0001:00009730       TEurekaModuleOptions.SaveToFile
 0001:00009788       WriteString
 0001:0000988C       TEurekaModuleOptions.SaveToStream
 0001:00009C94       ReadRawStrings
 0001:00009E84       WriteRawStrings
 0001:00009FD8       TEurekaModuleOptions.LoadCustomizedTextsFromFile
 0001:0000A0BC       TEurekaModuleOptions.LoadFromFile
 0001:0000A110       BinToStr
 0001:0000A1A4       StrToBin
 0001:0000A240       ReadString
 0001:0000A2B8       TEurekaModuleOptions.LoadFromStream
 0001:0000B038       TEurekaModuleOptions.StoreSharedData
 0001:0000B03C       TEurekaModuleOptions.DisableSharedDataWrite
 0001:0000B040       TEurekaModuleOptions.EnableSharedDataWrite
 0001:0000B044       TEurekaModuleOptions.SaveCustomizedTextsToFile
 0001:0000B128       TEurekaModuleOptions.SaveToSharedData
 0001:0000B158       TEurekaModuleOptions.SetToDefaultOptions
 0001:0000B5F8       TEurekaModuleOptions.SetTrakerAssignTo
 0001:0000B614       TEurekaModuleOptions.SetTrakerCategory
 0001:0000B630       TEurekaModuleOptions.SetTrakerPassword
 0001:0000B64C       TEurekaModuleOptions.SetTrakerProject
 0001:0000B668       TEurekaModuleOptions.SetTrakerTrialID
 0001:0000B684       TEurekaModuleOptions.SetTrakerUserID
 0001:0000B6A0       TEurekaModuleOptions.SetCustomizedTexts
 0001:0000B6FC       TEurekaModuleOptions.SetActive
 0001:0000B708       TEurekaModuleOptions.SetFreezeActivate
 0001:0000B714       TEurekaModuleOptions.SetErrorsNumberToSave
 0001:0000B730       TEurekaModuleOptions.SetModuleName
 0001:0000B74C       TEurekaModuleOptions.SetActivateHandle
 0001:0000B758       TEurekaModuleOptions.SetActivateLog
 0001:0000B764       TEurekaModuleOptions.SetAppendLogs
 0001:0000B770       TEurekaModuleOptions.SetEMailAddresses
 0001:0000B790       TEurekaModuleOptions.SetEMailMessage
 0001:0000B7B0       TEurekaModuleOptions.SetEMailSendMode
 0001:0000B7BC       TEurekaModuleOptions.SetEMailSubject
 0001:0000B7DC       TEurekaModuleOptions.SetErrorsNumberToShowTerminateBtn
 0001:0000B7E8       TEurekaModuleOptions.SetExceptionsFilters
 0001:0000B7F4       TEurekaModuleOptions.SetForegroundTab
 0001:0000B800       TEurekaModuleOptions.SetFreezeTimeout
 0001:0000B80C       TEurekaModuleOptions.SetLogOptions
 0001:0000B820       TEurekaModuleOptions.SetOutputPath
 0001:0000B840       TEurekaModuleOptions.SetPostFailureBuildEvent
 0001:0000B85C       TEurekaModuleOptions.SetPostSuccessfulBuildEvent
 0001:0000B878       TEurekaModuleOptions.SetPreBuildEvent
 0001:0000B894       TEurekaModuleOptions.SetProxyPassword
 0001:0000B8B0       TEurekaModuleOptions.SetProxyPort
 0001:0000B8BC       TEurekaModuleOptions.SetProxyURL
 0001:0000B8D8       TEurekaModuleOptions.SetProxyUserID
 0001:0000B8F4       TEurekaModuleOptions.SetSaveLogFile
 0001:0000B900       TEurekaModuleOptions.SetShowOptions
 0001:0000B914       TEurekaModuleOptions.SetSMTPFrom
 0001:0000B930       TEurekaModuleOptions.SetSMTPHost
 0001:0000B94C       TEurekaModuleOptions.SetSMTPPassword
 0001:0000B968       TEurekaModuleOptions.SetSMTPPort
 0001:0000B974       TEurekaModuleOptions.SetSMTPUserID
 0001:0000B990       TEurekaModuleOptions.SetTerminateBtnOperation
 0001:0000B99C       TEurekaModuleOptions.SetTextsCollection
 0001:0000B9BC       TEurekaModuleOptions.SetWebSendMode
 0001:0000B9C8       TEurekaModuleOptions.SetWebURL
 0001:0000B9E8       TEurekaModuleOptions.SetWebPassword
 0001:0000BA08       TEurekaModuleOptions.SetWebPort
 0001:0000BA14       TEurekaModuleOptions.SetWebUserID
 0001:0000BA34       TEurekaModuleOptions.SetZipPassword
 0001:0000BA50       TEurekaModuleOptions.SetCommonSendOptions
 0001:0000BA68       TEurekaModuleOptions.SetCompiledFileOptions
 0001:0000BA7C       TEurekaModuleOptions.SetAttachedFiles
 0001:0000BA9C       TEurekaModuleOptions.SetExceptionDialogOptions
 0001:0000BAB4       TEurekaModuleOptions.SetExceptionDialogType
 0001:0000BAC0       TEurekaModuleOptions.SetAutoCloseDialogSecs
 0001:0000BACC       TEurekaModuleOptions.SetAutoCrashMinutes
 0001:0000BAD8       TEurekaModuleOptions.SetAutoCrashNumber
 0001:0000BAE4       TEurekaModuleOptions.SetAutoCrashOperation
 0001:0000BAF0       TEurekaModuleOptions.SetHTMLLayout
 0001:0000BB10       TEurekaModuleOptions.SetSupportURL
 0001:0000BB30       TEurekaModuleOptions.SetBehaviourOptions
 0001:0000BB48       TEurekaModuleOptions.SetCallStackOptions
 0001:0000BB5C       IncludeLastBackslash
 0001:0000BC0C       IsWinVista
 0001:0000BC28       TEurekaModuleOptions.OutputFile
 0001:0000BD48       ComputerName
 0001:0000BDC4       TEurekaModuleOptions.OutputLogFile
 0001:0000BEA4       SafeExec
 0001:0000C078       Init
 0001:0000C084       Done
 0001:0000C088       Finalization
 0001:0000C0DC       ECore
 0001:0000D440       Max
 0001:0000D448       Min
 0001:0000D450       SearchDynArray
 0001:0000D4CC       SafeLoadFromFileToStream
 0001:0000D584       TELAbstractMapParser.Create
 0001:0000D5E4       TELAbstractMapParser.Destroy
 0001:0000D618       TELAbstractMapParser.GetLinkerBugUnitName
 0001:0000D630       TELAbstractMapParser.MapStringToFileName
 0001:0000D6BC       TELAbstractMapParser.MapStringToStr
 0001:0000D834       SkipWhiteSpace
 0001:0000D854       SkipEndLine
 0001:0000D874       Eof
 0001:0000D888       IsDecDigit
 0001:0000D89C       ReadTextLine
 0001:0000D8C8       ReadDecValue
 0001:0000D8FC       ReadHexValue
 0001:0000D978       ReadAddress
 0001:0000D9B4       ReadString
 0001:0000D9E4       FindParam
 0001:0000DA04       SyncToHeader
 0001:0000DACC       SyncToPrefix
 0001:0000DB9C       TELAbstractMapParser.Parse
 0001:0000DE60       TELMapParser.ClassTableItem
 0001:0000DEE0       TELMapParser.LineNumbersItem
 0001:0000DEF8       TELMapParser.LineNumberUnitItem
 0001:0000DF70       TELMapParser.PublicsByNameItem
 0001:0000DFD0       TELMapParser.PublicsByValueItem
 0001:0000E030       TELMapParser.SegmentItem
 0001:0000E0B0       TELMapScanner.Create
 0001:0000E114       TELMapScanner.Destroy
 0001:0000E16C       TELMapScanner.ClassTableItem
 0001:0000E174       Search_MapLineNumber
 0001:0000E17C       TELMapScanner.LineNumberFromAddr
 0001:0000E1E8       TELMapScanner.LineNumbersItem
 0001:0000E2B0       TELMapScanner.LineNumberUnitItem
 0001:0000E2B4       TELMapScanner.ModuleNameFromAddr
 0001:0000E304       TELMapScanner.ModuleStartFromAddr
 0001:0000E340       Search_MapProcName
 0001:0000E348       TELMapScanner.ProcNameFromAddr
 0001:0000E3C8       TELMapScanner.PublicsByNameItem
 0001:0000E3CC       TELMapScanner.PublicsByValueItem
 0001:0000E428       TELMapScanner.Scan
 0001:0000E470       TELMapScanner.SegmentItem
 0001:0000E4D8       TELMapScanner.SourceNameFromAddr
 0001:0000E538       SimpleCryptString
 0001:0000E578       DecodeNameString
 0001:0000E6C0       TELBinDebugScanner.Create
 0001:0000E718       TELBinDebugScanner.CacheLineNumbers
 0001:0000E7D0       TELBinDebugScanner.CacheProcNames
 0001:0000E8C4       TELBinDebugScanner.CheckFormat
 0001:0000E960       TELBinDebugScanner.DataToStr
 0001:0000E990       TELBinDebugScanner.GetModuleName
 0001:0000E9AC       TELBinDebugScanner.LineNumberFromAddr
 0001:0000EAA0       TELBinDebugScanner.MakePtr
 0001:0000EAAC       TELBinDebugScanner.ModuleNameFromAddr
 0001:0000EB18       TELBinDebugScanner.ModuleStartFromAddr
 0001:0000EB70       TELBinDebugScanner.ProcNameFromAddr
 0001:0000ED1C       TELBinDebugScanner.ReadValue
 0001:0000ED58       TELBinDebugScanner.SourceNameFromAddr
 0001:0000EDE4       TELDebugInfoSource.Create
 0001:0000EE1C       TELDebugInfoSource.GetFileName
 0001:0000EE60       TELDebugInfoSource.VAFromAddr
 0001:0000EE6C       TELDebugInfoMap.Destroy
 0001:0000EEA0       TELDebugInfoMap.GetLocationInfo
 0001:0000EF94       TELDebugInfoMap.InitializeSource
 0001:0000F028       TELDebugInfoMap.ValidData
 0001:0000F030       TELDebugInfoJedy.Destroy
 0001:0000F070       TELDebugInfoJedy.GetLocationInfo
 0001:0000F164       PeMapImgSections
 0001:0000F178       PeMapImgFindSection
 0001:0000F1D4       PeMapImgNtHeaders
 0001:0000F218       PEInitialize
 0001:0000F250       TELDebugInfoJedy.InitializeSource
 0001:0000F348       TELDebugInfoJedy.ValidData
 0001:0000F35C       TELDebugInfoTD32.Destroy
 0001:0000F390       TELDebugInfoTD32.GetLocationInfo
 0001:0000F48C       TELDebugInfoTD32.InitializeSource
 0001:0000F4E8       TELDebugInfoTD32.ValidData
 0001:0000F504       THModuleStream.Create
 0001:0000F550       TELModuleInfo.Create
 0001:0000F608       TELModuleInfo.GetSegment
 0001:0000F6A0       TELLineInfo.Create
 0001:0000F6E8       TELSourceModuleInfo.Create
 0001:0000F844       TELSourceModuleInfo.Destroy
 0001:0000F878       TELSourceModuleInfo.GetLine
 0001:0000F88C       TELSourceModuleInfo.GetLineCount
 0001:0000F894       TELSourceModuleInfo.GetSegment
 0001:0000F924       TELSourceModuleInfo.FindLine
 0001:0000F9C0       TELSymbolInfo.Create
 0001:0000FA70       TELProcSymbolInfo.Create
 0001:0000FB34       TELObjNameSymbolInfo.Create
 0001:0000FBF0       TELDataSymbolInfo.Create
 0001:0000FCB4       TELWithSymbolInfo.Create
 0001:0000FD78       TELLabelSymbolInfo.Create
 0001:0000FE34       TELConstantSymbolInfo.Create
 0001:0000FEF8       TELUdtSymbolInfo.Create
 0001:0000FFBC       TELVftPathSymbolInfo.Create
 0001:00010080       TELTD32InfoParser.Create
 0001:000101A0       TELTD32InfoParser.Destroy
 0001:000101FC       TELTD32InfoParser.Analyse
 0001:00010338       TELTD32InfoParser.AnalyseNames
 0001:00010368       TELTD32InfoParser.AnalyseAlignSymbols
 0001:000104E8       TELTD32InfoParser.AnalyseModules
 0001:0001050C       TELTD32InfoParser.AnalyseSourceModules
 0001:00010554       TELTD32InfoParser.GetModule
 0001:00010568       TELTD32InfoParser.GetModuleCount
 0001:00010570       TELTD32InfoParser.GetName
 0001:00010590       TELTD32InfoParser.GetNameCount
 0001:00010598       TELTD32InfoParser.GetSourceModule
 0001:000105AC       TELTD32InfoParser.GetSourceModuleCount
 0001:000105B4       TELTD32InfoParser.GetSymbol
 0001:000105C8       TELTD32InfoParser.GetSymbolCount
 0001:000105D0       TELTD32InfoParser.FindModule
 0001:00010688       TELTD32InfoParser.FindSourceModule
 0001:00010728       TELTD32InfoParser.FindProc
 0001:000107B0       TELTD32InfoParser.IsTD32DebugInfoValid
 0001:00010884       TELTD32InfoParser.IsTD32Sign
 0001:0001089C       TELTD32InfoParser.LfaToVa
 0001:000108A4       TELTD32InfoScanner.LineNumberFromAddr
 0001:000108F0       TELTD32InfoScanner.ModuleNameFromAddr
 0001:00010928       StringReplace
 0001:00010A2C       FormatProcName
 0001:00010B8C       TELTD32InfoScanner.ProcNameFromAddr
 0001:00010C28       TELTD32InfoScanner.SourceNameFromAddr
 0001:00010C58       TELPeBorTD32Image.Create
 0001:00010CB0       TELPeBorTD32Image.Destroy
 0001:00010CD8       TELPeBorTD32Image.CheckDebugData
 0001:00010D28       TELPeBorTD32Image.Clear
 0001:00010D30       TELPeBorTD32Image.ClearDebugData
 0001:00010D54       GetImageNtHeaders
 0001:00010D58       TELPeBorTD32Image.IsDebugInfoInImage
 0001:00010E24       ModuleFileName
 0001:00010E6C       TELPeBorTD32Image.IsDebugInfoInTds
 0001:00010F6C       AssignValidDebugInfo
 0001:00010FF0       TELBinDebugScanner.Destroy
 0001:00011030       Finalization
 0001:000110CC       EDebug
 0001:000110D4       closesocket
 0001:000110DC       connect
 0001:000110E4       htons
 0001:000110EC       ioctlsocket
 0001:000110F4       recv
 0001:000110FC       send
 0001:00011104       socket
 0001:0001110C       gethostbyname
 0001:00011114       gethostname
 0001:0001111C       WSAAsyncSelect
 0001:00011124       WSAGetLastError
 0001:0001112C       WSAStartup
 0001:00011134       WSACleanup
 0001:0001113C       Finalization
 0001:0001116C       WinSock
 0001:0001136C       THookedMethodsList.Create
 0001:000113AC       THookedMethodsList.GetItem
 0001:000113C0       THookedMethodsList.Lock
 0001:000113CC       THookedMethodsList.Unlock
 0001:000113D8       THookedMethodsList.Delete
 0001:00011400       THookedMethodsList.Destroy
 0001:000114A8       GetVirtualMethod
 0001:000114B0       SetVirtualMethod
 0001:000114F4       HookVirtualMethod
 0001:000115E8       UnhookVirtualMethod
 0001:000116AC       WriteMem
 0001:000116EC       JumpToMem
 0001:0001170C       ModuleFileName
 0001:0001173C       AddrSize
 0001:00011750       SIDSize
 0001:00011768       ModRMByte
 0001:000118A4       GetAsmSize
 0001:000119DC       GetFunctionSize
 0001:00011A98       CalculateRelocatedAsmSize
 0001:00011B34       RelocateMemory
 0001:00011CB8       HookProcedure
 0001:00011DCC       HookProcedureEx
 0001:00011F64       UnhookProcedure
 0001:00011FD4       IsWin9xDebugThunk
 0001:00011FE8       PeMapImgNtHeaders
 0001:00012034       CheckFail
 0001:0001208C       HookDllProcedure
 0001:00012344       TryHookDllProcedureEx
 0001:00012490       HookDllProcedureEx
 0001:00012560       Init
 0001:00012594       Done
 0001:0001263C       Finalization
 0001:00012690       EHook
 0001:000126C0       TranslateCharsetInfo
 0001:000126C8       UserCharSet
 0001:00012770       Finalization
 0001:000127A0       ELang
 0001:00012A38       InternalStartup
 0001:00012A68       InternalCleanup
 0001:00012A7C       TEurekaClientSocket.LookupName
 0001:00012AD8       TEurekaClientSocket.Error
 0001:00012BB4       TEurekaClientSocket.Create
 0001:00012C44       TEurekaClientSocket.Destroy
 0001:00012C78       TEurekaClientSocket.Close
 0001:00012D38       TEurekaClientSocket.Open
 0001:00012F24       TEurekaClientSocket.SendBuf
 0001:00012FEC       TEurekaClientSocket.SendText
 0001:000130A4       TEurekaClientSocket.ReceiveBuf
 0001:0001318C       TEurekaClientSocket.ReceiveText
 0001:00013264       TEurekaClientSocket.GetFullText
 0001:0001329C       TEurekaClientSocket.ReceiveFullText
 0001:000132F0       TEurekaClientSMTP.Open
 0001:00013334       TEurekaClientSMTP.GetText
 0001:00013410       TEurekaClientSMTP.SendCommand
 0001:00013524       IsValidDNS
 0001:0001358C       AddDNS
 0001:000135B0       GetDNSList
 0001:00013750       StrToWord
 0001:0001376C       GetDomain
 0001:000138D8       GetDomainName
 0001:000139B0       CreateMXQuery
 0001:00013A38       GetMXRecord
 0001:00013AD8       GetMXBestRecord
 0001:00013BC8       GetMXServerFromEmail
 0001:00013DDC       Init
 0001:00013DE4       Done
 0001:00013DEC       Finalization
 0001:00013E44       ESockets
 0001:00013F50       zcalloc
 0001:00013F5C       zcfree
 0001:00013F64       DeflateInit
 0001:00013F7C       InflateInit
 0001:00013F94       ZCheck
 0001:00014000       ZCompress
 0001:00014130       ZDecompress
 0001:00014244       _memset
 0001:0001425C       _memcpy
 0001:00014270       _malloc
 0001:00014280       _free
 0001:00014290       _strlen
 0001:000142A0       _time
 0001:000142AC       _rand
 0001:000142B8       _srand
 0001:000142C8       _fopen
 0001:000142E8       _fread
 0001:0001430C       _fwrite
 0001:00014330       _ftell
 0001:00014344       _fseek
 0001:00014364       _fclose
 0001:00014380       GetModifiedDate
 0001:00014484       CreateZipFile
 0001:000144DC       GetFileSize
 0001:00014518       AddZipFile
 0001:000146D8       CloseZipFile
 0001:00014700       DoExtractCurrentFile
 0001:00014908       DoExtract
 0001:00014974       ExtractZipFiles
 0001:000149D8       ..
 0001:00015428       zipOpen
 0001:00015434       zipOpenNewFileInZip3
 0001:00015A44       zipWriteInFileInZip
 0001:00015D20       zipCloseFileInZip
 0001:00015D2C       zipClose
 0001:00015EEC       ..
 0001:00016474       unzOpen
 0001:000164B0       unzGetGlobalInfo
 0001:0001683C       unzGetCurrentFileInfo
 0001:000168A0       unzGoToNextFile
 0001:00016EDC       unzOpenCurrentFilePassword
 0001:00016F00       unzReadCurrentFile
 0001:00017240       unzCloseCurrentFile
 0001:000173AC       ..
 0001:00017478       @fill_fopen_filefunc
 0001:000174B0       adler32
 0001:000177B8       ..
 0001:0001786C       compressBound
 0001:00017880       ..
 0001:000179B0       @get_crc_table
 0001:000179C4       crc32
 0001:00018210       deflateInit_
 0001:0001822C       @deflateInit2_
 0001:000187FC       deflate
 0001:00018AC0       deflateEnd
 0001:00019368       inflateBackInit_
 0001:00019550       inflateBack
 0001:0001A37C       inflateBackEnd
 0001:0001A3A8       @inflate_fast
 0001:0001A8A4       inflateReset
 0001:0001A960       @inflateInit2_
 0001:0001AA2C       inflateInit_
 0001:0001AC64       inflate
 0001:0001BB1C       inflateEnd
 0001:0001BEB8       @inflate_table
 0001:0001C328       ..
 0001:0001C32C       @_tr_init
 0001:0001D46C       @_tr_stored_block
 0001:0001D528       @_tr_align
 0001:0001D7F4       @_tr_flush_block
 0001:0001E16C       Finalization
 0001:0001E19C       EZlib
 0001:0001E1A4       make_crc_table
 0001:0001E200       GetCRC32
 0001:0001E248       GetCRC16
 0001:0001E294       LRot32
 0001:0001E2AC       Compress
 0001:0001EB68       GetMD5
 0001:0001EC68       Finalization
 0001:0001EC98       EHash
 0001:0001ECA0       XorBlock
 0001:0001ECC4       SwapDWord
 0001:0001ECF8       TEA_Encrypt
 0001:0001EDA8       TEA_Decrypt
 0001:0001EE58       InitKey
 0001:0001EEF8       Encrypt
 0001:0001EFA4       Decrypt
 0001:0001F068       Finalization
 0001:0001F098       EEncrypt
 0001:0001F0A0       CalcEncodedSize
 0001:0001F0CC       CalcDecodedSize
 0001:0001F104       Base64Encode
 0001:0001F1C0       Base64Decode
 0001:0001F254       Base64EncodeStr
 0001:0001F2A0       Base64DecodeStr
 0001:0001F300       Base64EncodeString
 0001:0001F308       Base64DecodeString
 0001:0001F310       Base64EncodeToString
 0001:0001F344       Finalization
 0001:0001F374       EBase64
 0001:0001F48C       TZipExtractor.Create
 0001:0001F510       TZipWriter.Create
 0001:0001F560       TZipWriter.AddFile
 0001:0001F5CC       TZipWriter.Destroy
 0001:0001F5FC       Finalization
 0001:0001F62C       EZip
 0001:0001FC34       PurgeHTMLCode
 0001:0001FC68       ConvertSpecialHTMLChars
 0001:0001FDC4       IsEnd
 0001:0001FE58       GetTagValue
 0001:0002004C       PurgeQuotes
 0001:000200A4       GetFieldValue
 0001:00020284       GetTextAreaValue
 0001:00020490       GetOptionsValue
 0001:00020690       GetListValue
 0001:00020804       FindSelected
 0001:000208EC       GetOptionsDefault
 0001:00020A10       GetListDefault
 0001:00020B7C       ParserHTML
 0001:00020C8C       DoneLib
 0001:00020CA4       InitLib
 0001:00020FE0       IsRealFile
 0001:00020FFC       GetFileContents
 0001:00021068       FindErrorMessage
 0001:00021178       CheckError
 0001:0002120C       AddAuthenticationToURL
 0001:000212F0       SearchWord
 0001:0002137C       SearchPort
 0001:00021434       ElaborateURL
 0001:00021594       ElaborateWebPage
 0001:0002164C       GetHTTPResponse
 0001:00021798       URLEncode
 0001:00021868       THTTPConnectionBase.Create
 0001:00021A8C       THTTPConnectionBase.Destroy
 0001:00021AE4       THTTPConnectionBase.Open
 0001:00021C18       THTTPConnectionBase.Close
 0001:00021CD4       GenerateMultipartBoundary
 0001:00021D98       GetValueFromIndex
 0001:00021E28       GenerateRequestBody
 0001:000221A8       THTTPConnectionBase.SendRequest
 0001:00022AE4       THTTPConnectionBase.SetRequest
 0001:00022B14       THTTPConnectionBase.AddField
 0001:00022B80       THTTPConnectionBase.AddFieldValue
 0001:00022C04       THTTPConnectionBase.AddFieldByTextArea
 0001:00022C88       THTTPConnectionBase.AddFieldByDefaultList
 0001:00022D0C       THTTPConnectionBase.AddFieldByListTitle
 0001:00022DD4       CompleteNumber
 0001:00022E6C       THTTPConnectionBase.GetBugCountField
 0001:00022FDC       THTTPConnectionBase.IsSuccessfulSend
 0001:000230A8       THTTPConnectionBase.AddBugSummary
 0001:0002314C       THTTPConnectionBase.AddSearchText
 0001:000231D8       THTTPMantisSendReport.PostBug
 0001:00023D10       THTTPBugzillaSendReport.PostBug
 0001:00024AAC       THTTPFogBugzSendReport.PostBug
 0001:000255C0       SendWebTrakerReport
 0001:00025674       SimpleCheckError
 0001:0002568C       SetProxyServer
 0001:000256F8       SetProxyAuthenticationData
 0001:0002571C       CheckInternetConnection
 0001:00025794       GenerateMultipartBoundary
 0001:00025858       GetFileContents
 0001:000258C4       GenerateRequestBody
 0001:00025B98       GetHTTPResponse
 0001:00025C50       OpenRequest
 0001:00025DF8       HTTPUploadFiles
 0001:000262B0       GetFileSize
 0001:000262EC       FTPUploadFiles
 0001:0002675C       GetHTMLPage
 0001:00026934       THTTPSendReport.Create
 0001:00026970       THTTPSendReport.SetHTTPConnectionClass
 0001:00026974       THTTPResponse.Assign
 0001:00026A50       THTTPResponse.Clear
 0001:00026A88       Finalization
 0001:00026AD8       EWebTools
 0001:00026C20       TXMLItems.AddItem
 0001:00026C4C       TXMLItems.Destroy
 0001:00026C9C       TXMLItems.GetItem
 0001:00026CB0       TXMLItem.AddField
 0001:00026D44       TXMLItem.AddItem
 0001:00026D54       TXMLItem.Create
 0001:00026DFC       TXMLItem.Destroy
 0001:00026E2C       TXMLItem.EncodedString
 0001:00026F50       TXMLItem.AppendXMLText
 0001:00027084       TXMLItem.GetXMLText
 0001:000270A0       TXMLItem.SetValue
 0001:0002710C       TXMLItem.SaveXMLToFile
 0001:000271A8       Finalization
 0001:000271D8       EXMLBuilder
 0001:00027308       TLogFile.Create
 0001:000273B4       TLogFile.Destroy
 0001:000273E4       NeedConvertNotDosText
 0001:00027418       ConvertNotDosText
 0001:000274F0       SearchNextItem
 0001:00027544       TLogFile.ParseBuffer
 0001:00027624       TLogFile.LoadFromStream
 0001:00027720       TLogFile.SaveToStream
 0001:000277E8       TLogFile.Append
 0001:00027878       TLogFile.DeleteItem
 0001:00027888       TLogFile.Clear
 0001:00027894       ElaborateString
 0001:00027A08       SearchItem
 0001:00027B08       TLogFile.FindItem
 0001:00027BB4       TLogFile.Save
 0001:00027C04       CompleteStr
 0001:00027C44       TLogFile.SetItemValue
 0001:00027F9C       TLogFile.GetItemValue
 0001:00028204       TLogFile.GetCount
 0001:00028210       TLogFile.GetText
 0001:00028224       TLogFile.GetItem
 0001:00028240       TLogFile.SectionIndex
 0001:000282D4       TLogFile.GetItem_Generals
 0001:00028378       TLogFile.GetItem_CallStack
 0001:00028410       TLogFile.GetItem_Modules
 0001:00028518       TLogFile.GetItem_Processes
 0001:00028654       TLogFile.GetItem_Assembler
 0001:00028738       TLogFile.GetItem_CPU
 0001:00028850       TLogFile.GetItem_Reproduce
 0001:000289B4       AddValueField
 0001:00028B18       TLogFile.GetItem_GeneralsXML
 0001:00028ECC       ExtractValue
 0001:00028F04       TestDecrypt
 0001:00028F3C       TLogFile.GetItem_CallStackXML
 0001:00029844       TLogFile.GetItem_ModulesXML
 0001:00029B88       TLogFile.GetItem_ProcessesXML
 0001:00029ED0       TLogFile.GetItem_AssemblerXML
 0001:0002A15C       TLogFile.GetItem_CPUXML
 0001:0002A708       TLogFile.GetItem_ReproduceXML
 0001:0002A80C       TLogFile.GetItem_XML
 0001:0002A9CC       TLogFile.GetXML
 0001:0002AB30       TLogFile.GetLogVersion
 0001:0002AC04       TLogFile.GetCorruptedLog
 0001:0002ACEC       TLogFile.SaveXMLCopy
 0001:0002AD88       TLogItem.Create
 0001:0002ADC0       TLogItem.Clear
 0001:0002ADD8       TLogItem.AddHeader
 0001:0002AE50       TLogItem.AddItem
 0001:0002B0B0       NormalizePos
 0001:0002B130       FindSection
 0001:0002B2F4       TLogItem.GetString
 0001:0002B4BC       Finalization
 0001:0002B4EC       ELogManager
 0001:0002B5C8       GetItemRect
 0001:0002B5F0       DrawBmp
 0001:0002B878       ImageList_Create
 0001:0002B880       ImageList_Add
 0001:0002B888       ImageList_Destroy
 0001:0002B890       TListViewItems.Create
 0001:0002BA4C       TListViewItems.Destroy
 0001:0002BAE4       TListViewItems.AddRow
 0001:0002BCD4       TListViewItems.InsertItem
 0001:0002BE04       TListViewItems.DeleteItem
 0001:0002BE18       TListViewItems.RedrawItems
 0001:0002BE2C       ClickOnSign
 0001:0002BE74       TListViewItems.ClickOnItem
 0001:0002BFE0       TListViewItems.Delete
 0001:0002C024       TListViewItems.Clear
 0001:0002C048       TListViewItems.GetItem
 0001:0002C05C       TListViewItems.GetItemParam
 0001:0002C08C       HandleBackgroundState
 0001:0002C100       DrawFrame
 0001:0002C174       DrawBottom
 0001:0002C1C8       DrawLine
 0001:0002C21C       DrawItem
 0001:0002C634       TListViewItems.DrawList
 0001:0002C65C       TListViewItems.DrawItem
 0001:0002C6C4       GetColumnCount
 0001:0002C6F0       GetColumnAlign
 0001:0002C74C       TListViewItems.InitializeData
 0001:0002C85C       TListViewItems.SetRedrawState
 0001:0002C870       Finalization
 0001:0002C8A0       EListView
 0001:00031F6C       SignedIntToHex
 0001:0003200C       ReadDWord
 0001:0003202C       ReadWord
 0001:0003204C       ReadByte
 0001:0003206C       GetRefAddress
 0001:00032174       ModRM
 0001:000321A0       Sib
 0001:000321CC       GetRegName
 0001:000322E0       ReadSib
 0001:000326C4       GetEffectiveAddress
 0001:00032C34       Operand
 0001:000335D0       Replacer
 0001:00033908       TDisAsm.GetInstruction
 0001:00033CA8       Finalization
 0001:00033D44       EDisAsm
 0001:00035284       TActiveXException.Create
 0001:000352D0       CheckMagicCode
 0001:000352E4       FindHandled
 0001:000353E8       SetItem
 0001:0003543C       InsertHandled
 0001:00035538       GetOutOfMemoryCache
 0001:00035554       FreeOutOfMemoryCache
 0001:00035570       ModuleFileName
 0001:0003565C       IsValidModule
 0001:000356A8       TEurekaLogList.GetItem
 0001:000356BC       TEurekaLog.Create
 0001:00035838       TEurekaLog.Destroy
 0001:00035884       ifelseStr
 0001:000358FC       ifStr
 0001:00035950       TempPath
 0001:0003597C       OneString
 0001:00035A34       CompleteStr
 0001:00035A74       SimpleWord
 0001:00035ABC       GetCompleteTimeStr
 0001:00035D7C       Load
 0001:00035DC8       RTF_LoadFromStream
 0001:00035DF4       RTF_LoadFromText
 0001:00035EA8       SetRTFBackColor
 0001:00035ED0       TextToRTF
 0001:00035FE8       GeneralToRTF
 0001:00036428       AssemblerToRTF
 0001:000367C4       CPUToRTF
 0001:00036DC4       ComputerName
 0001:00036DF8       UserName
 0001:00036E2C       UserFullName
 0001:00036F48       CreateVirtualFile
 0001:000370D4       DeleteVirtualFile
 0001:00037104       TextToHtml
 0001:000372FC       SetEventAddr
 0001:00037350       IsDebugged
 0001:000373C0       IsValidHandle
 0001:00037420       IsValidRunningThread
 0001:00037450       CloneObject
 0001:00037484       FreeClonedObject
 0001:000374A4       GetCurrentTopOfStack
 0001:000374AC       IsValidClass
 0001:0003750C       IsValidObject
 0001:00037538       IsAParentClassStr
 0001:00037620       IsAParentStr
 0001:00037648       IsAParent
 0001:000376B8       IsAParents
 0001:0003770C       IsAParentClassStr_Unsafe
 0001:000377EC       IsAParentStr_Unsafe
 0001:00037808       IsManageableObject
 0001:00037840       IsWin95
 0001:0003785C       IsWinNT
 0001:00037878       GetOSType
 0001:00037AB4       RFCDate
 0001:00037E84       IsDelphiException
 0001:00037E98       GetESP
 0001:00037EA0       GetTopOfStack
 0001:00037EA8       GetCallStackDump
 0001:000381BC       ExceptionLine
 0001:00038340       InternalCriticalError
 0001:00038A7C       SetInternalError
 0001:00038BB8       ClearInternalError
 0001:00038BCC       SetErrorType
 0001:00038CC8       HasWindowASize
 0001:00038D04       IsMainWindow
 0001:00038D8C       EnumWindowsProc
 0001:00038DC4       GetMainWindow
 0001:00038DE4       EnumWindowsProc
 0001:00038E5C       GetApplicationRect
 0001:00038EC4       IsCurrentProcessWindow
 0001:00038EDC       IsANewProcessWindow
 0001:00038EF4       EnumWindowsProc
 0001:00038F24       PopulateCurrentProcessWindows
 0001:00038F40       SetClipboardText
 0001:00039024       KillApplication
 0001:00039084       THModuleStream.Create
 0001:000390CC       THModuleStream.Destroy
 0001:000390FC       THModuleStream.SecureRead
 0001:00039138       ModuleInfoByHandle
 0001:000391F4       ModuleInfoByAddr
 0001:00039208       IsModuleLibrary
 0001:000392E8       FindModuleType
 0001:000394AC       GetModulePath
 0001:00039588       GetModuleSize
 0001:00039618       GetModuleVer
 0001:000396B8       GetModuleDescriptionAndVersion
 0001:00039960       PriorityToString
 0001:00039A64       GetProcessThreads
 0001:00039A9C       GetVersionNumber
 0001:00039AF8       GetFileSize
 0001:00039B2C       CompareModulesFunctions
 0001:00039B34       GetModulesWinNT
 0001:00039C98       GetModulesWin9X
 0001:00039E28       GetModulesList
 0001:00039EB8       CompareProcessesFunctions
 0001:00039EC0       IsWinNT4
 0001:00039EDC       IsWinVista
 0001:00039EF8       FindProcess
 0001:00039F78       GetAllocatedMemory
 0001:00039FAC       FillThreadsCount
 0001:0003A098       AddNewProcess
 0001:0003A204       RealPriority
 0001:0003A250       FindFullPath
 0001:0003A460       AddNewProcessEx
 0001:0003A5BC       BuildListTH
 0001:0003A6F4       BuildListPS
 0001:0003A754       GetProcessesList
 0001:0003A920       ModuleInitTable
 0001:0003A930       LogicToPhysicAddr
 0001:0003A93C       IsCGI
 0001:0003A970       InternalFileExists
 0001:0003A9E0       IsWinCGI
 0001:0003AB3C       IsISAPI
 0001:0003AB78       IsIntraWeb
 0001:0003AB84       IsWeb
 0001:0003ABB0       IsGUI
 0001:0003ABCC       WriteHTMLToWeb
 0001:0003AFD4       CreateHTMLByLayout
 0001:0003B264       GenerateHTML
 0001:0003B388       DirectoryExists
 0001:0003B3AC       CreateTemplateFile
 0001:0003B450       WriteTextToIntraWeb
 0001:0003B878       VersionWorkAround
 0001:0003B8A0       IsLocalStorageProc
 0001:0003B8C0       IsStackFramesProc
 0001:0003B8F0       IsRTLCompiledWithStackFrames
 0001:0003B8FC       IsCompiledWithPackages
 0001:0003B910       ExceptionTypeByAddr
 0001:0003B95C       Is_HandleOnException_Handled
 0001:0003B9F4       GetResourceData
 0001:0003BA3C       ReadEncodeString
 0001:0003BBE4       CheckForResult
 0001:0003BD40       GetSourceInfoByAddr
 0001:0003C4B0       GetSymbolAddr
 0001:0003C624       ExtractStr
 0001:0003C8B0       GetDebugPartialInfo
 0001:0003CADC       FindFunction
 0001:0003CB7C       ExtractDebugData
 0001:0003CF40       GetDebugInfosByAddr
 0001:0003CFE8       OpenLogFile
 0001:0003D0B4       CloseLogFile
 0001:0003D0D0       CalcDuplicatedException
 0001:0003D224       ExtractList
 0001:0003D348       GetRealFileName
 0001:0003D45C       SavedScreenshot
 0001:0003D4DC       TmpScreenshot
 0001:0003D4FC       TmpLogFileName
 0001:0003D57C       TmpZIPFileName
 0001:0003D5E4       TmpOptionsFileName
 0001:0003D684       RealTmpLastHTMLPage
 0001:0003D708       TmpLastHTMLPage
 0001:0003D728       TmpXMLLogCopy
 0001:0003D7E0       CreateHTMLFile
 0001:0003D8AC       CreateXMLLogCopy
 0001:0003D9A0       LoadTextFile
 0001:0003DA38       FillAttachedList
 0001:0003DB54       GetLastExceptionAddress
 0001:0003DB5C       GetLastExceptionObject
 0001:0003DB74       SetLastExceptionObject
 0001:0003DB7C       CallModule_ExceptionNotify
 0001:0003DBDC       CallExceptionNotify
 0001:0003DC48       CallExceptionNotifyEvents
 0001:0003DC54       CallModule_HandledExceptionNotify
 0001:0003DCBC       CallHandledExceptionNotify
 0001:0003DD28       CallHandledExceptionNotifyEvents
 0001:0003DD34       CallModuleEvent_ExceptionActionNotify
 0001:0003DDF0       CallExceptionActionNotify
 0001:0003DEB8       CallModuleEvent_ExceptionErrorNotify
 0001:0003DF70       CallExceptionErrorNotify
 0001:0003E038       CallPasswordRequest
 0001:0003E0A4       CallModule_CustomDataRequest
 0001:0003E108       CallCustomDataRequest
 0001:0003E178       CallCustomDataRequestEvents
 0001:0003E184       CallModule_AttachedFilesRequest
 0001:0003E1E8       CallAttachedFilesRequest
 0001:0003E258       CallAttachedFilesRequestEvents
 0001:0003E264       CallModule_CustomWebFieldsRequest
 0001:0003E2CC       CallCustomWebFieldsRequest
 0001:0003E33C       CallCustomWebFieldsRequestEvents
 0001:0003E348       CallModule_CustomButtonClickNotify
 0001:0003E3AC       CallCustomButtonClickEvent
 0001:0003E418       CallCustomButtonClickEvents
 0001:0003E424       CallModule_PasswordRequestEvent
 0001:0003E500       MappedExceptionObject
 0001:0003E58C       SaveGlobalExceptionRecord
 0001:0003E62C       RestoreGlobalExceptionRecord
 0001:0003E684       CopyStrings
 0001:0003E708       EurekaLog_PasswordRequestEvent
 0001:0003E74C       EurekaLog_PasswordRequestEventEx
 0001:0003E81C       EurekaLog_ExceptionNotifyEvent
 0001:0003E8C0       EurekaLog_HandledExceptionNotifyEvent
 0001:0003E964       EurekaLog_ExceptionActionNotifyEvent
 0001:0003EA08       EurekaLog_ExceptionErrorNotifyEvent
 0001:0003EAAC       EurekaLog_CustomDataRequestEventEx
 0001:0003EB50       EurekaLog_AttachedFilesRequestEvent
 0001:0003EBF4       EurekaLog_CustomWebFieldsRequestEvent
 0001:0003EC98       EurekaLog_CustomButtonClickEvent
 0001:0003ED3C       CanExit
 0001:0003ED48       SynchronizeEvent
 0001:0003EDF4       RoundMatch
 0001:0003EE0C       RoundMatchPtr
 0001:0003EE14       HookSymbolProcedure
 0001:0003EEAC       HookBPLProcedureByAddr
 0001:0003EF20       HookBPLProcedureBySymbol
 0001:0003EF48       GetEF
 0001:0003EF50       ASMAssigned
 0001:0003EF58       IsExceptionHandled
 0001:0003F114       CompareEurekaFunctions
 0001:0003F11C       MaxReadableSize
 0001:0003F178       ReadAddr
 0001:0003F198       ExportedFunctions
 0001:0003F458       IsEurekaLogModule_Old
 0001:0003F56C       IsEurekaLogModule_New
 0001:0003F5FC       IsEurekaLogModule
 0001:0003F620       IsEurekaLogCompatibleModule
 0001:0003F654       GetEurekaLogModuleVersion
 0001:0003F830       LoadData_Old
 0001:0003F9A0       GetPassword
 0001:0003FA30       LoadData
 0001:0003FE4C       LoadDebugInformation
 0001:0003FF30       AddModule
 0001:00040074       GetDebugDetail
 0001:000400B4       AddToStack
 0001:000401F4       NextItem
 0001:00040264       PurgeCallStack
 0001:00040384       CallStackByAddresses
 0001:00040644       GetCallStackByAddresses
 0001:00040694       ProcessMessage
 0001:000406F4       ApplicationRestore
 0001:00040750       SetLastExceptionData
 0001:00040778       SetLastException
 0001:00040780       SetCustomErrorMessage
 0001:00040794       GetExceptMessage
 0001:000407C0       SetRectangles
 0001:00040884       DlgTemplate
 0001:00040BCC       CreateDialogFonts
 0001:00040E14       DestroyDialogFonts
 0001:00040E64       SetInitDialog
 0001:00040F38       AutoCloseTimerProc
 0001:00040F68       SetAutoCloseTimer
 0001:00040F94       UnsetAutoCloseTimer
 0001:00040FAC       ResetAutoCloseTimer
 0001:00040FB4       TopMostTimerProc
 0001:00040FF8       SetAutoTopMost
 0001:00041018       UnsetAutoTopMost
 0001:00041028       ISODateTime
 0001:00041064       AddCustomHeaderToLog
 0001:000411C0       AddCustomHeadersToLog
 0001:00041374       GetTextHeight
 0001:000414CC       GetTextWidth
 0001:00041550       ShiftWndBottom
 0001:00041590       NewDialogProc
 0001:00041934       ShowRequestDialog
 0001:000419C8       AssignPriority
 0001:00041AB0       ExtractThreadByList
 0001:00041B4C       GetThreadData
 0001:00041C7C       CreateExceptionReport
 0001:00041F4C       CreateLeakReport
 0001:000420EC       CreateThreadStr
 0001:00042154       GetActiveMonitorData
 0001:000422A8       GetMonitorWorkAreaFromWndEx
 0001:0004238C       GetMonitorWorkAreaFromWnd
 0001:000423B0       GetMonitorWorkAreaFromActiveWnd
 0001:000423D4       CenterOnActiveWndMonitor
 0001:00042428       InsertColumn
 0001:000424A4       SetDialogRect
 0001:000424EC       ReadState
 0001:00042788       SaveState
 0001:00042920       SetDialogState
 0001:00042958       AdjustFlatStyle
 0001:00042998       DetailsState
 0001:00042F00       ModuleBmp
 0001:00042FF8       ModulesListDialogProc
 0001:0004372C       ProcessesListDialogProc
 0001:00043EF8       AssemblerDialogProc
 0001:00044100       MailSlotSend
 0001:000441F8       OpenIDEEditor
 0001:00044378       GetItemText
 0001:000443C4       CallStackDialogProc
 0001:0004503C       GeneralDialogProc
 0001:00045244       CPUDialogProc
 0001:0004544C       GetDialogState
 0001:00045470       AdjustDialog
 0001:00045520       ActicatePage
 0001:00045734       SetRectangles
 0001:00045800       DrawSupportLink
 0001:000458DC       NewDialogProc
 0001:000474E8       DrawControl
 0001:0004756C       DrawClickHere
 0001:00047650       GetBottonWidth
 0001:000476D8       DrawButton
 0001:00047740       GetEditText
 0001:000477A8       AssignRequestData
 0001:00047878       IsValidEmail
 0001:000478BC       ChangeLogUserEmail
 0001:00047948       AssignOnCloseData
 0001:00047B48       NewMSDialogProc
 0001:00048898       CallExceptionActionNotify_atTerminating
 0001:000488BC       ShowDialog
 0001:00048AE0       CalsCoordinates
 0001:00048B30       SetRectangles
 0001:00048BCC       NewDialogProc
 0001:00048E04       ShowSendDialogThread
 0001:00048E88       ShowSendDialog
 0001:00048F28       BytesSwap
 0001:00048F58       CalcCRC
 0001:00048FDC       InitDeflate
 0001:00049034       WriteIDAT
 0001:000490D8       IDATWrite
 0001:00049120       Encode
 0001:000491FC       DeleteTree
 0001:00049238       GetPaletteColors
 0001:000492E8       CreateOctreeNode
 0001:0004934C       AddColor
 0001:0004941C       ReduceTree
 0001:000494B4       BytesPerScanline
 0001:000494D4       ProcessImage
 0001:00049658       GetOptimizedPalette
 0001:000496C8       Create8bitBitmap
 0001:00049810       InitScreenshot
 0001:00049B70       CommonSaveToStream
 0001:00049C2C       AfterScreenshotToStream
 0001:00049F14       AfterScreenshot
 0001:00049FA4       FreeScreenshot
 0001:00049FE0       SaveScreenshot
 0001:00049FF8       SaveScreenshotToStream
 0001:0004A010       Error
 0001:0004A01C       InternalSendMail
 0001:0004A8BC       EurekaLogSendEmail
 0001:0004A960       Base64EncodeFromFile
 0001:0004AAE0       ProcessDialogMessages
 0001:0004AB4C       SetSendDialogLabel
 0001:0004AC40       SetSendDialogSingleLabel
 0001:0004AC78       SetSendDialogBar
 0001:0004ACAC       CloseSendDialog
 0001:0004ACD4       TSendObject.OnSent
 0001:0004ACE8       HostName
 0001:0004AD20       LoggedUserName
 0001:0004AD38       SetCounting
 0001:0004AD5C       ResetCounting
 0001:0004AD88       AttachedFile
 0001:0004AFE4       AttachedFiles
 0001:0004B108       SendCommandEx
 0001:0004B188       SMTPSendSingleEmail
 0001:0004B9B4       SMTPSendEmail
 0001:0004BC58       TSendDialogThread.Create
 0001:0004BCA0       TSendDialogThread.Execute
 0001:0004BCAC       WebCallBackProc
 0001:0004BD84       FindEOFLine
 0001:0004BE04       CreateTmpLogFile
 0001:0004BF14       LogFileMessage
 0001:0004BF54       SMTPSend
 0001:0004BF68       EncodeURL
 0001:0004C04C       ShellSendMail
 0001:0004C304       CallExceptionActionNotify_atSendingEmail
 0001:0004C328       CallExceptionActionNotify_atSentEmail
 0001:0004C34C       CallExceptionActionNotify_atSendingWebMessage
 0001:0004C370       CallExceptionActionNotify_atSentWebMessage
 0001:0004C394       CallExceptionErrorNotify_atSentEmail
 0001:0004C3B8       CallExceptionErrorNotify_atSentWebMessage
 0001:0004C3DC       CreateZIPFile
 0001:0004C4C0       TmpCompressedFileName
 0001:0004C54C       DeleteExtraFiles
 0001:0004C6D0       SendEmailMessage
 0001:0004C894       SetError
 0001:0004CA08       UploadHTTPFiles
 0001:0004CBE4       UploadFTPFiles
 0001:0004CD3C       SetFullURL
 0001:0004CD84       SetWebTrakerError
 0001:0004CE6C       UploadBugTrakerFiles
 0001:0004D088       SendWebMessage
 0001:0004D1D4       PrepareFilesToSend
 0001:0004D294       BlockingSendInternetMessage
 0001:0004D528       SendInternetMessage
 0001:0004D57C       ExceptNotifyAfter1
 0001:0004D678       ExceptNotifyAfter2
 0001:0004D68C       ExceptNotifyAfter3
 0001:0004D6A8       TSendThread.Execute
 0001:0004D704       AddStr
 0001:0004D754       DebugToStr
 0001:0004D7F4       GetDebugInfoEx
 0001:0004D844       OnCallInstr
 0001:0004D954       OnRefProc
 0001:0004D95C       ImmidiateDataProc
 0001:0004DA84       StartComment
 0001:0004DABC       GetFunctionAsm
 0001:0004E1A8       PurgeString
 0001:0004E270       GetParameters
 0001:0004E314       GetCompilationDate
 0001:0004E370       GetApplicationUpTime
 0001:0004E390       GetActiveFormClass
 0001:0004E3DC       GetActiveFormText
 0001:0004E470       GetActiveControlClass
 0001:0004E488       GetActiveControlText
 0001:0004E4A0       GetOSBuild
 0001:0004E4D4       GetOSUpdate
 0001:0004E4E8       GetLocaleDataW
 0001:0004E528       GetLocaleDataA
 0001:0004E56C       LocalesCallback
 0001:0004E654       GetLanguageString
 0001:0004E67C       GetOSLanguage
 0001:0004E688       GetOSCharset
 0001:0004E6A0       GetExceptionDate
 0001:0004E6B8       GetExceptionAddress
 0001:0004E6EC       GetExceptionModuleName
 0001:0004E7A8       GetExceptionModuleVersion
 0001:0004E808       GetExceptionType
 0001:0004E8AC       AccessViolationModuleInLongFormat
 0001:0004EB78       GetExceptionMessage
 0001:0004EC48       GetTotalMemory
 0001:0004ECD8       GetFreeMemory
 0001:0004ED68       GetDiskInfo
 0001:0004EE4C       GetFreeDisk
 0001:0004EEEC       GetTotalDisk
 0001:0004EF8C       GetStartDate
 0001:0004EFA4       GetApplicationName
 0001:0004F058       GetProcessor
 0001:0004F1FC       GetSystemUpTime
 0001:0004F238       GetDisplayMode
 0001:0004F2D8       CompleteIP
 0001:0004F414       GetAdapterInfo
 0001:0004F6DC       RemoveLastSeparator
 0001:0004F75C       GetNetworkData
 0001:0004F8E0       GetFileVersionEx
 0001:0004FAA0       OSSupportDisplayAPI
 0001:0004FAD4       GetIndexKeyName
 0001:0004FBBC       ReadDWordKey
 0001:0004FCA4       GetVideoCardStr
 0001:000503FC       GetDisplayDPI
 0001:00050454       AttrToString
 0001:000504A8       CompleteString
 0001:000504E8       GetCurrentUserPrivileges
 0001:000506AC       GetUserEmail
 0001:000506C0       GetCompanyName
 0001:000507E8       FetchStr
 0001:0005081C       GetDefaultPrinter
 0001:0005091C       GetCurrentPrinterHandle
 0001:00050980       GetPrinterStr
 0001:00050AE8       FormatComplete
 0001:00050BA8       CallExceptionActionNotify_atSavingLogFile
 0001:00050BCC       CallExceptionActionNotify_atSavedLogFile
 0001:00050BF0       CallExceptionErrorNotify_atSavedLogFile
 0001:00050C14       SaveLogFile
 0001:00050D7C       IsCompatibleException
 0001:00050E14       FindException
 0001:00050E68       CallExceptionActionNotify_atShowingExceptionInfo
 0001:00050E8C       CallExceptionActionNotify_atShowedExceptionInfo
 0001:00050EB0       CallWriteIntraWebText
 0001:00050EBC       CreateGeneralText
 0001:00051B64       GetEAX
 0001:00051BBC       GetEBX
 0001:00051C14       GetECX
 0001:00051C6C       GetEDX
 0001:00051CC4       GetESI
 0001:00051D1C       GetEDI
 0001:00051D74       GetESP
 0001:00051DCC       GetEIP
 0001:00051E24       GetDump
 0001:00052004       GetStack
 0001:00052094       GetEmptySection
 0001:0005213C       CreateLogText
 0001:0005442C       WriteToWeb
 0001:000545CC       MustSendMessage
 0001:0005460C       MustRestoreApplication
 0001:00054664       PurgeModulesList
 0001:000546BC       ShowType
 0001:00054704       AddCallerCallStack
 0001:0005473C       IsMainThread
 0001:0005474C       IsBorlandThread
 0001:00054768       IsWindowsThread
 0001:00054778       CanPauseThisThread
 0001:000547B8       MustPauseThisThread
 0001:00054810       SetEnvVariables
 0001:000549D4       InternalExceptNotify
 0001:00055BE8       GetControlClass
 0001:00055C40       GetControlText
 0001:00055D5C       TExceptionThread.Create
 0001:00055EA0       TExceptionThread.Execute
 0001:00055F10       ResetGlobalVars
 0001:00055F40       ProcessMessages
 0001:00055FDC       SetHandledWithEurekaLog
 0001:00056044       IsHandledSafeCallException
 0001:000560B8       ExceptNotify
 0001:000563F4       GetThreadParams
 0001:0005646C       GetIntraWebExceptionType
 0001:000564C8       IntraWeb_OnExceptionEvent_Old
 0001:00056550       IntraWeb_OnExceptionEvent_New
 0001:000565D0       IntraWeb_OnExceptionEvent
 0001:000565E4       SetIntraWebEvent
 0001:00056628       GetBaseOfStack
 0001:00056630       GetCurrentStackPointer
 0001:00056638       SetLastExceptStack
 0001:00056730       LockCheck
 0001:0005673C       GoNotify
 0001:000568A0       GeneralRaise
 0001:00056A04       EurekaLog_CallGeneralRaise
 0001:00056A38       Call_HookedRaise
 0001:00056AF8       SetLastStackPointer
 0001:00056B08       SetLastECX
 0001:00056B18       HookedRaise
 0001:00056B38       EurekaLog_CallExceptObject
 0001:00056C50       Call_HookedExceptionObject
 0001:00056C58       HookedExceptionObject
 0001:00056C7C       Call_HookedRtlUnwind
 0001:00056D70       HookedRtlUnwind
 0001:00056D98       HookedWriteFile
 0001:00056E28       HookedExceptProc
 0001:00056E70       TIdThread.HandledException
 0001:00056EB0       SetIndyEvent
 0001:00056EF4       HookedThreadExecute
 0001:0005704C       HookedRTLThreadProc
 0001:0005717C       HookedThreadProc
 0001:000572B0       EurekaLog_CallCreateThread
 0001:00057344       EurekaLog_CallResumeThread
 0001:000573E8       EurekaLog_CallExitThread
 0001:00057408       HookedCreateThread
 0001:00057664       HookedResumeThread
 0001:00057880       HookedExitThread
 0001:00057934       HookedWriteClientProc
 0001:00057968       HookedHttpExtensionProc
 0001:000579A4       TEurekaStackList.AddFrom
 0001:00057A14       TEurekaStackList.Clear
 0001:00057A38       TEurekaStackList.Delete
 0001:00057A60       TEurekaStackList.Destroy
 0001:00057A8C       TEurekaStackList.GetItem
 0001:00057AA0       TEurekaModulesList.Clear
 0001:00057AC4       TEurekaModulesList.Delete
 0001:00057B18       TEurekaModulesList.Destroy
 0001:00057B44       TEurekaModulesList.GetItem
 0001:00057B58       TEurekaProcessesList.Clear
 0001:00057B7C       TEurekaProcessesList.Delete
 0001:00057BA4       TEurekaProcessesList.Destroy
 0001:00057BD0       TEurekaProcessesList.GetItem
 0001:00057BE4       TEurekaThreadsList.Create
 0001:00057CCC       TEurekaThreadsList.Destroy
 0001:00057D08       TEurekaThreadsList.Clear
 0001:00057D2C       TEurekaThreadsList.Delete
 0001:00057D70       TEurekaThreadsList.RemoveCurrentThread
 0001:00057DCC       TEurekaThreadsList.FindByThreadHandle
 0001:00057DFC       TEurekaThreadsList.FindByThreadObject
 0001:00057E2C       TEurekaThreadsList.FindByThreadID
 0001:00057E5C       TEurekaThreadsList.GetItem
 0001:00057E70       TEurekaThreadsList.BeginRead
 0001:00057E7C       TEurekaThreadsList.EndRead
 0001:00057E88       TEurekaThreadsList.BeginWrite
 0001:00057E94       TEurekaThreadsList.EndWrite
 0001:00057EA0       TEurekaThreadsList.NewItem
 0001:00057EDC       TEurekaThreadsList.PurgeList
 0001:00057F4C       TEurekaThreadsList.CallUnhandledException
 0001:00057FC4       CanCallUnhandledException
 0001:00058004       TEurekaThreadsList.SetExceptionType
 0001:00058074       TEurekaFunctionsList.Clear
 0001:00058098       TEurekaFunctionsList.Delete
 0001:000580C0       TEurekaFunctionsList.Destroy
 0001:000580EC       TEurekaFunctionsList.GetItem
 0001:00058100       CalcAddr
 0001:00058124       TSafeObject.GetSafeCall
 0001:0005816C       IsEurekaLogInstalled
 0001:00058174       CurrentEurekaLogOptions
 0001:0005829C       SetCurrentStackPointer
 0001:000582C8       StandardEurekaNotify
 0001:00058310       GetCurrentStackPointer
 0001:00058318       ShowLastExceptionData
 0001:00058340       StandardEurekaError
 0001:00058398       CallEurekaLogFromActiveX
 0001:000584CC       ForceApplicationTermination
 0001:00058510       GetLastEurekaLogErrorCode
 0001:00058518       GetLastEurekaLogErrorMsg
 0001:0005852C       GetCurrentCallStack
 0001:00058554       GetLastExceptionCallStack
 0001:000585DC       GetCallStackByLevels
 0001:00058638       CallStackToStrings
 0001:00058D48       IsEurekaLogActiveInThread
 0001:00058DA0       SetEurekaLogInThread
 0001:00058E1C       SetEurekaLogState
 0001:00058E24       IsEurekaLogActive
 0001:00058E2C       StartAntiFreeze
 0001:00058E34       EndAntiFreeze
 0001:00058E3C       GetCompilationDate
 0001:00058E88       GetCurrentStackPointer
 0001:00058E90       ExceptionManager
 0001:00058FC8       Hooked_CGIHandleServerException
 0001:00058FF8       Hooked_ISAPIHandleServerException
 0001:00059028       Hooked_VCLHandleException
 0001:0005909C       Hooked_VCLShowException
 0001:000590DC       Hooked_CLXHandleException
 0001:0005910C       Hooked_CLXShowException
 0001:00059160       Hooked_IntraWebCreateServer
 0001:00059294       IsHTMLPage
 0001:00059314       ExtractGZipStream
 0001:0005945C       Hooked_IntraWebSendResponse
 0001:000596C4       Hooked_NTServiceLogMessage
 0001:00059778       Hooked_IndyThreadHandleException
 0001:000597A8       Hooked_DoneExcept
 0001:00059800       TFreezeThread.Create
 0001:00059838       TFreezeThread.Execute
 0001:00059A88       InitCheckFreeze
 0001:00059B34       DoneCheckFreeze
 0001:00059B94       TEurekaModuleOptionsEx.SetActive
 0001:00059BDC       TEurekaModuleOptionsEx.SetFreezeActivate
 0001:00059C24       TEurekaModuleOptionsEx.StoreSharedData
 0001:00059CF0       THTTPConnection.SetSendState
 0001:00059F08       IsOKDebugInfo
 0001:00059F74       FastMM_LogStackTrace
 0001:0005A3B0       Create_EurekaLogUnitsList
 0001:0005A42C       Internal_ResetLeaks
 0001:0005A798       Internal_AddLeak
 0001:0005A918       Internal_ShowLeaks
 0001:0005AE88       Internal_OverrunProc
 0001:0005AEA0       Internal_MultiFreeProc
 0001:0005AEB8       Internal_Finalization
 0001:0005AEC4       CheckForMemoryLeaks
 0001:0005AF58       RealAddr
 0001:0005AF5C       SetMainThreadTopOfStack
 0001:0005AF6C       HandleAnyExceptionAddr
 0001:0005AFB8       HandleOnExceptionAddr
 0001:0005B010       HandleAutoExceptionAddr
 0001:0005B070       DoneExceptAddr
 0001:0005B0BC       ChangeFinalizationOrder
 0001:0005B1E0       HookLastInit
 0001:0005B268       HookLastFInit
 0001:0005B278       Hook_InitializationAndFinalization
 0001:0005B32C       IntraWeb_BPL
 0001:0005B40C       Hook_OnExceptionEvents
 0001:0005B864       SetDebugHook
 0001:0005B880       HookingModuleName
 0001:0005B898       InstanceModuleName
 0001:0005B8A4       HookingRTLModuleName
 0001:0005B8B0       FindMainInstance
 0001:0005B920       LoadFromFile
 0001:0005B974       CheckCrc32
 0001:0005BA78       Init
 0001:0005C280       Done
 0001:0005C4D8       Finalization
 0001:0005C688       ExceptionLog
 0001:0005C6F4       EnumFontFamProc
 0001:0005C70C       FontFamily
 0001:0005C798       SetSingle
 0001:0005C85C       ChangeCharset
 0001:0005C8A8       AdjustXPThemeSupport
 0001:0005C910       AdjustFontLanguage
 0001:0005C92C       BaseDir
 0001:0005CA64       PackagePath
 0001:0005CAE8       ViewerPath
 0001:0005CB68       ShowLog
 0001:0005CC48       HelpPath
 0001:0005CCB0       ShowHelp
 0001:0005CDB8       ShowTutorial
 0001:0005CE44       Finalization
 0001:0005CE74       EDesign
 0001:0005CEE4       SixSpaces
 0001:0005CF28       GetName
 0001:0005CF6C       ExtractStr
 0001:0005D0E4       ExtractProcName
 0001:0005D27C       ExtractFileNameEx
 0001:0005D2BC       ErrorType
 0001:0005D3C4       GetDebugData
 0001:0005DEDC       CompleteMapFile
 0001:0005DF88       DllFullPath
 0001:0005E144       Init
 0001:0005E47C       Done
 0001:0005E488       Finalization
 0001:0005E4C0       EBorlandDebug
 0001:0005EA34       GetImageNtHeaders
 0001:0005EA38       ModuleHnd
 0001:0005EA48       MoveResourceData
 0001:0005EA84       GetResourceSecNo
 0001:0005EAC4       GetAlign
 0001:0005EAD8       WriteResourceSection
 0001:0005ECC8       WriteResourceInStream
 0001:0005EDA4       ResourceWideCharToStr
 0001:0005EDFC       ResourceNameToInt
 0001:0005EE48       CompareDetails
 0001:0005EED8       TResourceDetails.ChangeData
 0001:0005EEF8       TResourceDetails.Create
 0001:0005EF84       TResourceDetails.Destroy
 0001:0005EFB4       TResourceDetails.GetBaseType
 0001:0005EFD4       TResourceDetails.InitNew
 0001:0005EFD8       TResourceDetails.SetResourceName
 0001:0005EFF0       TResourceModule.AddResource
 0001:0005EFF4       TResourceModule.ClearDirty
 0001:0005F024       TResourceModule.DeleteResource
 0001:0005F02C       TResourceModule.GetDirty
 0001:0005F06C       TResourceModule.InsertResource
 0001:0005F070       TResourceModule.LoadFromFile
 0001:0005F0C4       TResourceModule.LoadFromStream
 0001:0005F118       TResourceModule.SaveToFile
 0001:0005F178       TResourceModule.SaveToStream
 0001:0005F1CC       TResourceModule.SortResources
 0001:0005F1D0       TPEModule.Create
 0001:0005F234       TPEModule.Decode
 0001:0005F438       TPEModule.Destroy
 0001:0005F4B8       TPEModule.Encode
 0001:0005F4BC       TPEModule.FindDictionaryEntrySection
 0001:0005F508       TPEModule.GetCOFFHeader
 0001:0005F518       TPEModule.GetDataDictionary
 0001:0005F594       TPEModule.GetDataDictionaryCount
 0001:0005F59C       TPEModule.GetDOSHeader
 0001:0005F5B0       TPEModule.GetImageSection
 0001:0005F5C4       TPEModule.GetImageSectionCount
 0001:0005F5CC       TPEModule.LoadFromFile
 0001:0005F620       TPEModule.LoadFromStream
 0001:0005F644       TPEModule.SaveToFile
 0001:0005F69C       TPEModule.SaveToStream
 0001:0005F6BC       TImageSectionRead.Create
 0001:0005F710       TImageSectionWrite.Create
 0001:0005F7A0       TImageSectionWrite.Destroy
 0001:0005F7D0       TPEResourceModule.GetResourceSection
 0001:0005F7F4       TPEResourceModule.DeleteResource
 0001:0005F83C       TPEResourceModule.Create
 0001:0005F880       TPEResourceModule.Destroy
 0001:0005F8D4       GetResourceStr
 0001:0005F914       GetResource
 0001:0005FAC8       TPEResourceModule.Decode
 0001:0005FB34       TPEResourceModule.GetResourceCount
 0001:0005FB3C       TPEResourceModule.GetResourceDetails
 0001:0005FB50       TPEResourceModule.IndexOfResource
 0001:0005FB5C       TPEResourceModule.InsertResource
 0001:0005FB68       GetNameTableSize
 0001:0005FC24       SaveNode
 0001:0005FEBC       SaveToSection
 0001:00060018       TPEResourceModule.Encode
 0001:00060288       TResourceNode.SetSize
 0001:000602AC       TResourceNode.SetInitialSize
 0001:000602B8       TResourceNode.ChangeSize
 0001:000602DC       TResourceNode.Add
 0001:000603C4       TResourceNode.AddLang
 0001:000604DC       TResourceNode.AddName
 0001:000605BC       TResourceNode.Create
 0001:00060650       TResourceNode.CreateLangNode
 0001:00060704       TResourceNode.CreateNameNode
 0001:00060794       TResourceNode.Destroy
 0001:000607EC       TResourceNode.IsID
 0001:000608B8       TPEResourceModule.AddResource
 0001:000608C4       TPEResourceModule.SortResources
 0001:000608D4       Finalization
 0001:00060904       EResource
 0001:00060F98       InternalCheckCompiler
 0001:00060F9C       IsConvertingOldOptionsFile
 0001:00060FA0       IsEurekaLogPackage
 0001:00061068       CheckOptionFile
 0001:00061164       IsEurekaLogOptionsFile
 0001:00061220       TCustomPersonality.GetOptionValue
 0001:00061230       TCustomPersonality.IsOptionEqual
 0001:000612A8       TCustomPersonality.GetPersonality
 0001:000612AC       TDelphiWin32Personality.GetPersonality
 0001:000612B0       TDelphiWin32Personality.GetOptionValue
 0001:000613BC       TCppBuilderWin32Personality.GetPersonality
 0001:000613C0       TCppBuilderWin32Personality.GetOptionValue
 0001:00061518       TInMemIniFile.Create
 0001:000615A4       TInMemIniFile.Destroy
 0001:000615E0       TInMemIniFile.AddSection
 0001:0006163C       TInMemIniFile.Clear
 0001:00061674       TInMemIniFile.GetStrings
 0001:000617BC       TInMemIniFile.GetDataRange
 0001:00061980       TInMemIniFile.LoadValues
 0001:00061ADC       IsValidChar
 0001:00061AEC       IsEncoded
 0001:00061B84       TInMemIniFile.DecodeData
 0001:00061DF4       TInMemIniFile.EncodeData
 0001:00061FB0       TInMemIniFile.ReadString
 0001:00062058       TInMemIniFile.SetStrings
 0001:00062140       TInMemIniFile.WriteString
 0001:00062200       DeleteLine
 0001:00062390       TInMemIniFile.UpdateFile
 0001:000626A0       TInMemIniFile.DeleteKey
 0001:000626A4       TInMemIniFile.EraseSection
 0001:000626A8       TInMemIniFile.ReadSection
 0001:000626AC       TInMemIniFile.ReadSections
 0001:000626B0       TInMemIniFile.ReadSectionValues
 0001:000626B4       IncludeLastBackslash
 0001:00062778       IsXMLText
 0001:000627F4       PosEx
 0001:00062860       ElaborateText
 0001:000629B0       ProcessText
 0001:00062A30       GetCppFileOptionValue
 0001:00062BE8       InternalIsAcceptableProject
 0001:00062D0C       GetImageData
 0001:00062D2C       hModule
 0001:00062D3C       SecDelta
 0001:00062DA8       DLLNameFromThunkData
 0001:00062E54       ModifyImportFunction
 0001:000630E0       ElaborateParameter
 0001:00063220       KillInutilChars
 0001:000634FC       WriteStrings
 0001:0006363C       ReadStrings
 0001:00063818       ReadKeyList
 0001:000639B0       OptionFileExt
 0001:000639C8       OldOptionFileExt
 0001:000639E0       EurekaLogFirstLine
 0001:000639F8       EurekaLogLastLine
 0001:00063A10       DefaultOptionFile
 0001:00063AD8       EurekaDefaultOptionFile
 0001:00063B38       EnvironmentStringsToList
 0001:00063C84       AdjustDir
 0001:000643C4       ReadHex
 0001:00064420       ReadInt
 0001:00064464       ReadString
 0001:00064550       ExtractProcName
 0001:00064624       ExtractUnitName
 0001:000646F8       GoToNextLine
 0001:00064724       SkipLines
 0001:0006474C       GotoSection
 0001:00064838       FindFirstLine
 0001:0006488C       WriteString
 0001:00064A0C       SimpleUnitName
 0001:00064A50       MapError
 0001:00064B48       FindUnit
 0001:00064BF0       FindProcByAddr
 0001:00064C94       GetProcedureBySymbol
 0001:00064E8C       TwoDots
 0001:00064ECC       DebugNotFoundProcedure
 0001:00064F44       StripRelocationTable
 0001:00065364       CalcCrc32
 0001:0006539C       TBaseModule.BuildMapFile
 0001:0006668C       TBaseModule.Assign
 0001:000666C0       TBaseModule.SetToDefaultOptions
 0001:00066858       StoreUnitNames
 0001:000669B4       FindUnits
 0001:00066B48       ListLen
 0001:00066BCC       RemoveUnit
 0001:00066DF4       TBaseModule.MakeLine
 0001:000676B4       TBaseModule.Create
 0001:00067750       TBaseModule.LoadOptionsFromFile
 0001:00069460       TBaseModule.LoadOptions
 0001:000694AC       TBaseModule.LoadOptionsFromDefaultOptionFile
 0001:000694F8       TBaseModule.SaveOptionsToFile
 0001:0006A510       TBaseModule.ErrorMessage
 0001:0006A588       TBaseModule.IsReadOnly
 0001:0006A5B4       GetDirectiveValue
 0001:0006A688       TBaseModule.GetRealFileName
 0001:0006A8F8       TBaseModule.SaveOptions
 0001:0006A944       TBaseModule.SaveOptionsToDefaultOptionFile
 0001:0006A990       TBaseModule.GetOptionFile
 0001:0006A9EC       TBaseModule.GetText
 0001:0006AA5C       TBaseModule.DeleteText
 0001:0006AB10       TBaseModule.InsertText
 0001:0006ABD0       TBaseModule.SetDebugOptions
 0001:0006ABD4       GetDelphiModuleInfo
 0001:0006AEAC       GetCppBuilderModuleInfo
 0001:0006B208       TBaseModule.GetModuleInfo
 0001:0006B238       TBaseModule.GetModuleType
 0001:0006B28C       GetOptionFromCfgFile
 0001:0006B384       TBaseModule.GetCommandLineOption
 0001:0006B4C4       TBaseModule.GetCppBuilderOutputFile
 0001:0006B8F0       TBaseModule.GetOutputDir
 0001:0006B990       TBaseModule.GetUnitDirs
 0001:0006B994       TBaseModule.SetBplFile
 0001:0006BAE0       TBaseModule.GetCompiledFile
 0001:0006BBEC       TBaseModule.GetMapFile
 0001:0006BC40       GetCurrentModuleName
 0001:0006BC74       TModules.AddModule
 0001:0006BCF0       TModules.Destroy
 0001:0006BD34       TModules.FindByName
 0001:0006BDE4       TModules.GetCurrentModule
 0001:0006BE48       TModules.GetItem
 0001:0006BE5C       TModules.Delete
 0001:0006BE7C       TModules.SetItem
 0001:0006BE84       TBaseModule.ExecProgram
 0001:0006BF44       TBaseModule.BeforeCompile
 0001:0006C004       InstalledPackage
 0001:0006C084       TBaseModule.AfterCompile
 0001:0006C1C0       InternalGetCurrentPersonality
 0001:0006C1C8       Init
 0001:0006C214       Done
 0001:0006C228       Finalization
 0001:0006C2FC       EBaseModule
 0001:0006C53C       TWaitForm.FormCreate
 0001:0006C5C0       Finalization
 0001:0006C5F0       EWait
 0001:0006C848       TVariableForm.CopyBtnClick
 0001:0006C8C4       TVariableForm.FormCreate
 0001:0006C9BC       TVariableForm.VariablesListClick
 0001:0006C9DC       Finalization
 0001:0006CA0C       EVariables
 0001:0006CD10       TIDEOptionsForm.CheckUpdatesClick
 0001:0006CD5C       TIDEOptionsForm.FormCreate
 0001:0006CE48       TIDEOptionsForm.OKClick
 0001:0006CF20       Finalization
 0001:0006CF50       EIDEOptions
 0001:0006D2DC       TAboutForm.SiteClick
 0001:0006D318       TAboutForm.FormCreate
 0001:0006D570       TAboutForm.FormKeyDown
 0001:0006D584       TAboutForm.EmailClick
 0001:0006D5C4       TAboutForm.TimerTimer
 0001:0006D5C8       TAboutForm.FormCloseQuery
 0001:0006D5CC       TAboutForm.WhatBtnClick
 0001:0006D5E8       TAboutForm.BigLabelClick
 0001:0006D630       TAboutForm.Label5Click
 0001:0006D674       Finalization
 0001:0006D6A4       EAbout
 0001:0006D94C       HookApplicationOnException
 0001:0006D9B0       UnHookApplicationOnException
 0001:0006DA08       IDECatchEnabled
 0001:0006DA70       TEurekaApp.ExceptionNotify
 0001:0006DD34       MailSlotCreate
 0001:0006DDE4       MailSlotRead
 0001:0006DE88       TMailSlotTimer.Create
 0001:0006DEE0       TMailSlotTimer.TimerTick
 0001:0006E094       Add
 0001:0006E128       TIDEManager.FromPathToList
 0001:0006E1D4       TIDEManager.GetLibraryPath
 0001:0006E2A4       AddModulePath
 0001:0006E30C       TIDEManager.PathFromInternalFiles
 0001:0006E4C0       TIDEManager.SearchDir
 0001:0006E67C       TIDEManager.InternalInstallNotifier
 0001:0006E68C       TIDEManager.InternalRemoveNotifier
 0001:0006E6A8       TIDEManager.FindNotifier
 0001:0006E6CC       TIDEManager.CheckAndInstallNotify
 0001:0006E7CC       EurekaLogPath
 0001:0006E980       TIDEManager.CheckForConflicts
 0001:0006EBB0       TIDEManager.SaveAllModifiedFiles
 0001:0006EBB4       TIDEManager.DeleteText
 0001:0006EBBC       TIDEManager.SetMenuState
 0001:0006EBC0       TIDEManager.GetText
 0001:0006EBCC       TIDEManager.InsertText
 0001:0006EBD4       TIDEManager.InstallNotifier
 0001:0006EBD8       TIDEManager.MarkModified
 0001:0006EBDC       TIDEManager.RemoveNotifier
 0001:0006EBE0       TIDEManager.UnloadProjectsList
 0001:0006EBE4       TIDEManager.ShowFile
 0001:0006EC24       AboutBox
 0001:0006EC50       TMenuEvents.OnHelpOptionsClick
 0001:0006EC58       TMenuEvents.OnIDEOptionsClick
 0001:0006EC7C       TMenuEvents.OnOptionsClick
 0001:0006ECEC       TMenuEvents.OnViewLogClick
 0001:0006EDBC       TMenuEvents.OnTutorialClick
 0001:0006EDC4       TMenuEvents.OnAboutClick
 0001:0006EDCC       InternalHookDllProcedureEx
 0001:0006EE48       NewCreateFile
 0001:0006EF34       NewLoadLibrary
 0001:0006EFF4       Init
 0001:0006F130       Done
 0001:0006F188       ZeroComplete
 0001:0006F1C8       CompleteVersion
 0001:0006F34C       IsGreaterVersion
 0001:0006F3E8       IsValidVersionString
 0001:0006F460       TCheckUpdate.Execute
 0001:0006F764       Finalization
 0001:0006F7D0       ECommon
 0001:00071930       FullEnaled
 0001:00071980       ListAllCollections
 0001:00071B1C       FindModuleInterface
 0001:00071BE8       GetCurrentProject
 0001:00071CFC       GetCurrentProjectName
 0001:00071DC8       TKeyThread.Create
 0001:00071E0C       GetActiveFormClass
 0001:00071E58       TKeyThread.Execute
 0001:00071F0C       TOptionsForm.AddBtnClick
 0001:00072058       TOptionsForm.AutoTerminationOperationChange
 0001:000720E4       LoadTextsFromFile
 0001:00072248       TOptionsForm.CollectionsListClick
 0001:00072404       TOptionsForm.DeleteCollectionBtnClick
 0001:000725E4       TOptionsForm.DialogTypeCmbChange
 0001:00072810       TOptionsForm.SubBtnClick
 0001:00072878       TOptionsForm.TerminateOperationEdtChange
 0001:000728E0       TOptionsForm.TextMemoChange
 0001:000729D4       TOptionsForm.TextMemoExit
 0001:000729DC       TOptionsForm.VariableBtnClick
 0001:00072A04       TOptionsForm.FormShow
 0001:00072C38       IsValidEmail
 0001:00072C7C       Error
 0001:00072CC8       CheckValidURL
 0001:00072F40       CheckWebTrakerData
 0001:000731A0       TOptionsForm.OKBtnClick
 0001:00073468       TOptionsForm.Option1Click
 0001:0007368C       TOptionsForm.Option1MouseMove
 0001:000736B4       TOptionsForm.FlatTimerTimer
 0001:0007388C       TOptionsForm.FormCreate
 0001:00073C54       TOptionsForm.RewriteLogClick
 0001:00073CFC       TOptionsForm.ErrorsNumberKeyPress
 0001:00073D10       TOptionsForm.ExceptionsFiltersListDblClick
 0001:00073FD4       TOptionsForm.ExceptionsFiltersListDeletion
 0001:00073FFC       TOptionsForm.ExceptionsFiltersListInsert
 0001:00074024       TOptionsForm.SendOptionsClick
 0001:00074518       TOptionsForm.OutputBtnClick
 0001:000745A0       TOptionsForm.HelpBtnClick
 0001:00074758       TOptionsForm.FormDestroy
 0001:0007476C       TOptionsForm.LeaksLimitsClick
 0001:00074794       TOptionsForm.LoadBtnClick
 0001:00074854       TOptionsForm.SaveBtnClick
 0001:00074914       SaveTextsToFile
 0001:00074A74       TOptionsForm.SaveCollectionBtnClick
 0001:00074C2C       TOptionsForm.GetEmailSendType
 0001:00074C40       TOptionsForm.SetEmailSendType
 0001:00074C54       TOptionsForm.GetWebSendType
 0001:00074C68       TOptionsForm.SetWebSendType
 0001:00074C7C       SetEnum
 0001:00074CB8       TOptionsForm.LoadModuleFromForm
 0001:00075D78       TOptionsForm.SaveModuleToForm
 0001:000767E8       TOptionsForm.HelpBtnKeyDown
 0001:000767FC       TOptionsForm.LogSaveLogFileClick
 0001:00076924       TOptionsForm.CatchLeaksClick
 0001:000769A4       TOptionsForm.ChangeMessageText
 0001:00076A90       TOptionsForm.MessagesListClick
 0001:00076AAC       TOptionsForm.MessagesListKeyUp
 0001:00076AC4       TOptionsForm.MessagesTextCustomDraw
 0001:00076B98       TModule.GetRealFileName
 0001:00076DEC       SetDefine
 0001:00076FBC       TModule.SetDebugOptions
 0001:000775E0       TModule.GetText
 0001:000775F8       TModule.InsertText
 0001:00077610       TModule.DeleteText
 0001:00077628       TModule.GetModuleInfo
 0001:00077830       TModule.ErrorMessage
 0001:0007785C       EurekaUnitFullPath
 0001:0007791C       EurekaUnitExists
 0001:00077A34       RemoveEurekaUnit
 0001:00077AA0       TModule.MakeLine
 0001:00077B60       ShowCompilerProgress
 0001:00077C4C       TModule.BuildMapFile
 0001:00077D04       TModule.GetOutputDir
 0001:00077E28       TModule.GetUnitDirs
 0001:00077ED8       GetActiveProjectFileName
 0001:00077F30       GetCurrentModuleName
 0001:00077F3C       TOptionsForm.FreezeActivateChkBoxClick
 0001:00077F94       TOptionsForm.ActivateClick
 0001:0007812C       TOptionsForm.Activate_HandleClick
 0001:000781A4       TOptionsForm.ActivateAutoTerminationClick
 0001:00078224       TOptionsForm.PauseBorlandThreadsClick
 0001:00078260       TOptionsForm.PostFailBtnClick
 0001:000782C4       TOptionsForm.PostSuccBtnClick
 0001:00078328       TOptionsForm.PreBuildBtnClick
 0001:0007838C       TOptionsForm.WebOptClick
 0001:0007845C       TOptionsForm.SendScreenClick
 0001:00078464       InternalIsAcceptableProject
 0001:0007859C       InternalGetCurrentPersonality
 0001:000785A4       Init
 0001:000785C8       Done
 0001:000785CC       TOptionsForm.Panel49Resize
 0001:000785D0       TOptionsForm.CheckFileCorruptionClick
 0001:00078638       Finalization
 0001:00078710       EOption
 0001:00078AAC       TMessageForm.ExceptionTypeChange
 0001:00078B04       TMessageForm.FormCreate
 0001:00078C60       TMessageForm.FormShow
 0001:00078CC0       TMessageForm.HandlerTypeCmbChange
 0001:00078DA0       Finalization
 0001:00078DD0       EMessages
 0001:00078E78       KillInutilChars
 0001:00078FAC       EnumerateWord
 0001:000790B4       CompareWord
 0001:0007918C       CharPosToLineNo
 0001:0007926C       FindWord
 0001:00079320       SkipProcedure
 0001:000793C0       FindProcStartIdx
 0001:000794B0       InternalFindProcStartLineDelphi
 0001:00079720       SetGlobalVariables
 0001:00079870       FindProcStartLineDelphi
 0001:00079890       SetGlobalVariables
 0001:000799B8       FindProcStartLineCppBuilder
 0001:00079AC0       Finalization
 0001:00079B84       EParser
 0001:00079F60       TIDENotifier.AfterSave
 0001:00079F64       TIDENotifier.BeforeSave
 0001:00079F68       TIDENotifier.Destroyed
 0001:00079F6C       TIDENotifier.Modified
 0001:00079F70       TIDENotifier.BeforeCompile
 0001:00079F74       TIDENotifier.AfterCompile
 0001:00079F78       EurekaLogRequiredFileName
 0001:0007A03C       CanIncludeInPackage
 0001:0007A0B0       TIDENotifier.BeforeCompile
 0001:0007A340       TIDENotifier.AfterCompile
 0001:0007A3F0       TIDENotifier.FileNotification
 0001:0007A4B4       TModuleNotifier.Create
 0001:0007A548       TModuleNotifier.Destroy
 0001:0007A574       TModuleNotifier.Destroyed
 0001:0007A62C       TModuleNotifier.AfterSave
 0001:0007A6A0       TModuleNotifier.ModuleRenamed
 0001:0007A6EC       TModuleNotifier.BeforeSave
 0001:0007A760       TModuleNotifier.CheckOverwrite
 0001:0007A764       TModuleNotifier.Modified
 0001:0007A768       TDesignNotifier.DesignerClosed
 0001:0007A76C       TDesignNotifier.DesignerOpened
 0001:0007A770       TDesignNotifier.ItemDeleted
 0001:0007A774       TDesignNotifier.ItemInserted
 0001:0007A778       TDesignNotifier.ItemsModified
 0001:0007A77C       TDesignNotifier.SelectionChanged
 0001:0007A868       GetMainMenu
 0001:0007A8DC       GetCustomMenuIndex
 0001:0007A92C       GetCustomMenu
 0001:0007A95C       GetProjectMenu
 0001:0007A97C       AddMenuItem
 0001:0007AA7C       InitMenu
 0001:0007AE30       InitDelayedMenu
 0001:0007AE34       FreeItem
 0001:0007AE6C       DoneMenu
 0001:0007AEDC       InitNotifier
 0001:0007AF88       DoneNotifier
 0001:0007B004       TIDENewManager.GetEditor
 0001:0007B0F4       TIDENewManager.InstallNotifier
 0001:0007B20C       TIDENewManager.RemoveNotifier
 0001:0007B290       TIDENewManager.MarkModified
 0001:0007B340       TIDENewManager.GetText
 0001:0007B454       TIDENewManager.InsertText
 0001:0007B504       TIDENewManager.DeleteText
 0001:0007B5B4       TIDENewManager.SetMenuState
 0001:0007B5D4       RealProjectName
 0001:0007B680       CheckName
 0001:0007B718       FindFullPath
 0001:0007B868       TIDENewManager.ShowFile
 0001:0007BBA0       TIDENewManager.SaveAllModifiedFiles
 0001:0007BDE0       TIDENewManager.UnloadProjectsList
 0001:0007BE24       MyKeyHook
 0001:0007BED8       StartKeyHook
 0001:0007BEF8       EndKeyHook
 0001:0007BF04       Init
 0001:0007BF40       Done
 0001:0007BF5C       Finalization
 0001:0007BFC8       EToolsAPI
 0001:0007C0CC       SetDefaultOptions
 0001:0007C0D0       InternalActionNotify
 0001:0007C158       TStartTimer.EventTimer
 0001:0007C168       Register
 0001:0007C198       Init
 0001:0007C200       Done
 0001:0007C220       Finalization
 0001:0007C274       EMain
 0001:0007C5E4       @GetPackageInfoTable
 0001:0007C5EC       @PackageLoad
 0001:0007C5F8       @PackageUnload
 0001:0007C604       ExceptionExpert7
 0002:00000000       TlsIndex
 0002:00000004       PtrToNil
 0002:00000008       Module
 0002:00000020       TlsProc
 0002:00000030       BlockOverHead
 0002:00000034       BlockOverFoot
 0002:00000038       NewMemoryManager
 0002:00000044       EurekaLogCurrentVersion
 0002:00000048       UnassignedPointer
 0002:0000004C       EMsgs
 0002:000005AC       EVals
 0002:00000824       EShowOptions
 0002:000008E4       EVariablesOptions
 0002:0000094C       CriticalError
 0002:00000950       NoChars
 0002:00000970       TableHeader
 0002:00000980       SegmentsHeader
 0002:00000990       PublicsByNameHeader
 0002:000009A0       PublicsByValueHeader
 0002:000009B0       ResourceFilesHeader
 0002:000009BC       OpCodePrefixes
 0002:000009DC       OpCodeShortJump
 0002:000009FC       OpCodeReturn
 0002:00000A1C       OpCodeLongJump1Byte
 0002:00000A3C       OpCodeLongJump2Bytes
 0002:00000A5C       AsmConst
 0002:00000B5C       Initialized
 0002:00000B60       _z_errmsg
 0002:00000B88       ..
 0002:00000BE4       ..
 0002:00000C3C       ..
 0002:00000C48       ..
 0002:00000C50       ..
 0002:00000C68       ..
 0002:00000CBC       ..
 0002:00000DD4       ..
 0002:00000E24       ..
 0002:00000F94       ..
 0002:000010C0       ..
 0002:0000182B       __dist_code
 0002:00001A2B       __length_code
 0002:00001B2C       Crc16Tab
 0002:00001D2C       crc_table_computed
 0002:00001D30       p
 0002:00001D40       cBase64Codec
 0002:00001D80       cBase64Codec
 0002:00001E00       MaxBugOccurrences
 0002:00001E04       WinInet_Error_Text
 0002:00003534       NetLib
 0002:00003538       ProxyUserName
 0002:0000353C       ProxyPassword
 0002:00003540       ProxyServer
 0002:00003544       HTMLDelimiters
 0002:00003844       HTMLChars
 0002:00004948       ValidDomainChars
 0002:00004968       AlphaNumerics
 0002:00004988       EncodedChars
 0002:000049A8       chars
 0002:000049C8       OneByteOpcodes
 0002:00004DC8       TwoByteOpcodes
 0002:000051C8       GroupsOpcodes
 0002:00005308       GroupsOperands
 0002:00005388       FloatingPointOpcodes
 0002:00005C88       ByteRegs1
 0002:00005C8C       ByteRegs2
 0002:00005C90       WordRegs1
 0002:00005C98       WordRegs2
 0002:00005CA0       ShowEurekaLogUnits
 0002:00005CA4       EurekaLogUnits
 0002:0000618C       UnAttachableThreads
 0002:0000619C       CannotProcessMessagesExceptions
 0002:000061A0       ISAPI_SendError
 0002:000061A4       ModulesList
 0002:000061A8       ProcessesList
 0002:000061AC       CurrentStackList
 0002:000061B0       LeaksStackList
 0002:000061B4       Initialized
 0002:000061B8       LastExceptionAddress
 0002:000061BC       LastExceptionObject
 0002:000061C0       CriticalExceptObject
 0002:000061C4       ModuleInfoHandle
 0002:000061C8       MultiFreeExceptionText
 0002:000061CC       MemoryOverrunExceptionText
 0002:000061D0       Global_IntoHandleException
 0002:000061D4       Opened_LogFile_Name
 0002:000061D8       fActivePage
 0002:000061DC       PNG_CRCListed
 0002:000061E0       ColIdx
 0002:000061E8       IDATHeader
 0002:000061EC       Mask
 0002:000061F4       iLevel
 0002:000061F8       StartComments
 0002:00006208       EndComments
 0002:00006218       NameSet
 0002:00006238       MasterOptionsFile
 0002:0000623C       CheckCompiler
 0002:00006240       TUnhandledModules
 0002:00006244       OkChars
 0002:00006264       TInvalidChars
 0002:00006284       SymbolNames
 0002:000062D4       HookedFunctions
 0002:00006328       EndChars0
 0002:00006348       EndChars1
 0002:00006368       SharedUnits
 0002:000063B4       LastOpenedOptionFile
 0002:000063B8       UpdateThread
 0002:000063BC       DialogValues
 0002:000063D0       HandleValues
 0002:000063DC       ActionValues
 0002:000063E8       TypeValues
 0002:000063F4       CompilationProject
 0002:000063F8       OldActiveOption
 0002:000063FC       LastActiveOption
 0002:00006400       LastActiveProject
 0002:00006404       EndProcWord
 0002:00006408       ImplementationWord
 0002:0000640C       InitializationWord
 0002:00006410       FinalizationWord
 0002:00006414       ForwardWord
 0002:00006418       ExternalWord
 0002:0000641C       ProcArray
 0002:0000642C       SepItem
 0002:00006430       OptItem
 0002:00006434       OptView
 0002:00006438       OptItemBmp
 0002:0000643C       EurekaLogItem
 0002:00006440       IDE_Idx
 0002:00006444       SelectedComponent
 0002:00006448       HelpTime
 0002:00007000       ModuleIsLib
 0002:00007001       ModuleIsPackage
 0002:00007004       HInstance
 0002:00007008       .1
 0002:0000700C       tlsBuffer
 0002:00007010       .3
 0002:00007014       .1
 0002:00007018       .1
 0002:0000701C       .1
 0002:00007020       .1
 0002:00007024       .1
 0002:00007028       .1
 0002:0000702C       .1
 0002:00007030       .1
 0002:00007034       .3
 0002:00007038       .1
 0002:0000703C       .1
 0002:00007040       .1
 0002:00007044       OverrunProc
 0002:00007048       MultiFreeProc
 0002:0000704C       FinalizationProc
 0002:00007050       ResetLeaks
 0002:00007054       ShowLeaks
 0002:00007058       AddLeak
 0002:0000705C       .1
 0002:00007060       OldMemoryManager
 0002:0000706C       AllocatedList_Lock
 0002:00007070       AllocatedList_Start
 0002:00007074       AllocatedList_End
 0002:00007078       TObjectCreate
 0002:0000707C       TObjectNewInstance
 0002:00007080       IsMemoryManagerOwner
 0002:00007084       MMWindow
 0002:00007088       InstallNewMemoryManager
 0002:00007089       UseNewMemoryManager
 0002:0000708A       LeaksOptions
 0002:0000708C       MemoryPages
 0002:00007090       .1
 0002:00007094       .5
 0002:00007098       LastEurekaVersion
 0002:0000709C       .4
 0002:000070A0       InternalIntoIDE
 0002:000070A4       .92
 0002:000070A8       .1
 0002:000070AC       .1
 0002:000070B0       HookedProcedures
 0002:000070B4       DllList
 0002:000070B8       HookedMethodsList
 0002:000070BC       .1
 0002:000070C0       .4
 0002:000070C4       .2
 0002:000070C8       ..
 0002:000090C8       ..
 0002:00009954       ..
 0002:0000A1E0       .1
 0002:0000A1E4       crc_table
 0002:0000A5E4       .1
 0002:0000A5E8       CV
 0002:0000A5F0       KeyData
 0002:0000A600       .1
 0002:0000A604       .3
 0002:0000A608       .7
 0002:0000A60C       InternetOpen
 0002:0000A610       InternetConnect
 0002:0000A614       HttpOpenRequest
 0002:0000A618       HttpAddRequestHeaders
 0002:0000A61C       HttpSendRequest
 0002:0000A620       HttpSendRequestEx
 0002:0000A624       InternetWriteFile
 0002:0000A628       HttpEndRequest
 0002:0000A62C       HttpQueryInfo
 0002:0000A630       InternetCloseHandle
 0002:0000A634       InternetSetOption
 0002:0000A638       FtpOpenFile
 0002:0000A63C       InternetGetLastResponseInfo
 0002:0000A640       InternetOpenUrl
 0002:0000A644       InternetReadFile
 0002:0000A648       InternetGetConnectedState
 0002:0000A64C       .3
 0002:0000A650       .3
 0002:0000A654       .2
 0002:0000A658       .2
 0002:0000A65C       ExceptionNotify
 0002:0000A660       HandledExceptionNotify
 0002:0000A664       ExceptionActionNotify
 0002:0000A668       ExceptionErrorNotify
 0002:0000A66C       PasswordRequest
 0002:0000A670       CustomDataRequest
 0002:0000A674       AttachedFilesRequest
 0002:0000A678       CustomWebFieldsRequest
 0002:0000A67C       CustomButtonClickNotify
 0002:0000A680       .21
 0002:0000A684       Kernel_RaiseException
 0002:0000A688       Kernel_RtlUnwind
 0002:0000A68C       Kernel_CreateThread
 0002:0000A690       Kernel_ResumeThread
 0002:0000A694       Kernel_ExitThread
 0002:0000A698       Kernel_WriteFile
 0002:0000A69C       ISAPI_HttpExtensionProc
 0002:0000A6A0       ISAPI_WriteClientProc
 0002:0000A6A4       ISAPI_Proc
 0002:0000A6A8       ServerECB
 0002:0000A6AC       ExceptionCriticalSection
 0002:0000A6C4       OldExceptProc
 0002:0000A6C8       ThreadsList
 0002:0000A6CC       StartingDate
 0002:0000A6D4       OldExceptObjProc
 0002:0000A6D8       CurrentOptions
 0002:0000A6DC       CGIOutputFile
 0002:0000A6E0       LanguageStr
 0002:0000A6E4       ExceptionNumber
 0002:0000A6E8       HandleAnyExceptionAddr_Variable
 0002:0000A6EC       HandleOnExceptionAddr_Variable
 0002:0000A6F0       HandleAutoExceptionAddr_Variable
 0002:0000A6F4       TerminateApplication
 0002:0000A6F8       LastInitializationPtr
 0002:0000A6FC       LastFinalizationPtr
 0002:0000A700       IntraWeb_CreateServer
 0002:0000A704       IntraWeb_OnException_Old
 0002:0000A708       IntraWeb_OnException_New
 0002:0000A70C       Indy_OnException
 0002:0000A714       IntraWeb_ShowMessage
 0002:0000A718       IntraWeb_SendResponse
 0002:0000A71C       VCLHandleException
 0002:0000A720       VCLShowException
 0002:0000A724       NTService_LogMessage
 0002:0000A728       IndyThread_HandleException
 0002:0000A72C       DoneExcept
 0002:0000A730       CGIHandleException
 0002:0000A734       ISAPIHandleException
 0002:0000A738       CLXHandleException
 0002:0000A73C       CLXShowException
 0002:0000A740       LastHTMLPage
 0002:0000A744       LastInitPointer
 0002:0000A748       IntoInitialization
 0002:0000A749       IntoFinalization
 0002:0000A74C       OriginalThreadProc
 0002:0000A750       IntraWebApplication
 0002:0000A754       IntraWebServerController
 0002:0000A758       IntraWebCompressedPage
 0002:0000A75C       IntraWeb_Version
 0002:0000A760       IntraWeb_NewEvent
 0002:0000A764       CurrentAsmErrorLine
 0002:0000A768       CurrentGeneralErrorText
 0002:0000A76C       CurrentAsmErrorText
 0002:0000A770       CurrentCPUErrorText
 0002:0000A774       OnlySafeCallExceptions
 0002:0000A775       CanHookLibraries
 0002:0000A778       FreezeThread
 0002:0000A77C       MainThreadHandle
 0002:0000A780       MainThreadTopOfStack
 0002:0000A784       LastExceptAddr
 0002:0000A788       RaisedExceptAddr
 0002:0000A78C       LastExceptThreadID
 0002:0000A790       LastExceptObject
 0002:0000A794       LastDelphiException
 0002:0000A798       LastExceptMessage
 0002:0000A79C       CustomExceptMessage
 0002:0000A7A0       LastExceptionRecord
 0002:0000A7A4       LastExceptionLog
 0002:0000A7A8       LastLog
 0002:0000A7AC       CanSendError_Show
 0002:0000A7AD       CanAttachScreenshot_Show
 0002:0000A7AE       CanCopy_Show
 0002:0000A7AF       CanSupport_Show
 0002:0000A7B0       CanSendMessage
 0002:0000A7B1       CanAttachScreenshot
 0002:0000A7B2       CanCopy
 0002:0000A7B3       DuplicatedException
 0002:0000A7B4       StartDir
 0002:0000A7B8       SynchronizeExcept
 0002:0000A7BC       SynchronizeRaise
 0002:0000A7C0       ThreadWrapperAddr
 0002:0000A7C4       InternalErrorCode
 0002:0000A7C8       InternalErrorMsg
 0002:0000A7CC       EurekaLogList
 0002:0000A7D0       CurrentRequestValue
 0002:0000A7D4       UserEmail
 0002:0000A7D8       ThreadsCriticalSection
 0002:0000A7F0       InactiveThreads
 0002:0000A7F4       EurekaLogUnitsList
 0002:0000A7F8       ActivateEurekaLog
 0002:0000A7F9       NotLoadDebugInfo
 0002:0000A7FC       ModuleInfoData
 0002:0000A800       AutoCloseTimer
 0002:0000A804       CurrentDialog
 0002:0000A808       UseTopMost
 0002:0000A80C       ExceptionsTime
 0002:0000A810       ExceptionTime
 0002:0000A818       DbgSection
 0002:0000A81C       CurrentProcessWindowsList
 0002:0000A820       IndyHooked
 0002:0000A824       LastDumpCriticalSection
 0002:0000A83C       LastExceptionThreadID
 0002:0000A840       LastExceptionCallStackAddress
 0002:0000A844       LastExceptionCallStackSize
 0002:0000A848       LastExceptionCallStackDump
 0002:0000A84C       HandledCacheCount
 0002:0000A850       HandledCache
 0002:0000A940       HandledCacheCriticalSection
 0002:0000A958       DebugHook_Assigned
 0002:0000A95C       LastExceptionType
 0002:0000A960       LastExceptionMessage
 0002:0000A964       LastBugID
 0002:0000A968       DialogType
 0002:0000A969       IsFilterDialog
 0002:0000A96C       LeakTotalSize
 0002:0000A970       LeakTotalCount
 0002:0000A974       LeakAddr
 0002:0000A978       ManualAntiFreeze
 0002:0000A97C       IDC_CURSOR
 0002:0000A980       CannotUseThread
 0002:0000A981       NoSynchronizeEvent
 0002:0000A984       OutOfMemoryCache
 0002:0000A988       Global_Execute
 0002:0000A989       Global_Handled
 0002:0000A98A       Global_Retry
 0002:0000A98B       Global_CloseDialog
 0002:0000A98C       OldGlobal_ExceptionRecord
 0002:0000A9A8       Global_ExceptionRecord
 0002:0000A9C4       MustFreeGlobalMappedObject
 0002:0000A9C8       Global_CurrentEvent
 0002:0000A9CC       Global_Password
 0002:0000A9D0       Global_LastInitPassword
 0002:0000A9D4       Global_AttachedFiles
 0002:0000A9D8       Global_WebFields
 0002:0000A9DC       Global_DataFields
 0002:0000A9E0       Global_Module
 0002:0000A9E4       Global_IntraWebText
 0002:0000A9E8       Global_WebTextID
 0002:0000A9EC       Cached_LogFile
 0002:0000A9F0       fDlgBack
 0002:0000A9F4       fMemoBack
 0002:0000A9F8       fActive
 0002:0000A9FC       fCaptionFont
 0002:0000AA00       fVariableFont
 0002:0000AA04       fFixedFont1
 0002:0000AA08       fFixedFont2
 0002:0000AA0C       fLinkFont
 0002:0000AA10       fLinkFont2
 0002:0000AA14       fBigFont
 0002:0000AA18       FixedFontSize
 0002:0000AA1C       CaptionFontName
 0002:0000AA20       FixedFontName1
 0002:0000AA24       FixedFontName2
 0002:0000AA28       NonClientMetrics
 0002:0000AB7C       fMonitor
 0002:0000AB80       fSendBmp
 0002:0000AB84       fMonitorInfo
 0002:0000AB9C       fListViewItems
 0002:0000ABA0       rSupport
 0002:0000ABB0       rClick
 0002:0000ABC0       SupportLinkActive
 0002:0000ABC1       ClickLinkActive
 0002:0000ABC4       OriginalWidth
 0002:0000ABC8       OriginalHeight
 0002:0000ABCC       RealLeft
 0002:0000ABD0       RealTop
 0002:0000ABD4       RealWidth
 0002:0000ABD8       RealHeight
 0002:0000ABDC       ListWidth
 0002:0000ABE0       ListHeight
 0002:0000ABE4       TextWidth
 0002:0000ABE8       LeftButton
 0002:0000ABEC       TopButton
 0002:0000ABF0       WindowState
 0002:0000ABF4       ColWidths
 0002:0000AC34       DetailsActive
 0002:0000AC35       ShowInDetailsMode
 0002:0000AC38       MainDialog
 0002:0000AC3C       IsDialogShowed
 0002:0000AC40       DialogHeight
 0002:0000AC44       CAPTION_HEIGHT
 0002:0000AC48       FixedTmpOptionsFile
 0002:0000B048       GlobalSendValues
 0002:0000B060       SavedLastHTMLPage
 0002:0000B064       PNG_ColoursCount
 0002:0000B068       PNG_RowBytes
 0002:0000B06C       PNG_DataSize
 0002:0000B070       PNG_ImgData
 0002:0000B074       PNG_Data
 0002:0000B078       PNG_HeaderData
 0002:0000B088       PNG_Encode_Filter
 0002:0000B08C       PNG_Encode_Data
 0002:0000B090       PNG_CRCList
 0002:0000B490       PNG_pal
 0002:0000B494       PNG_UsePal
 0002:0000B498       PNG_HWindow
 0002:0000B49C       PNG_FocusWnd
 0002:0000B4A0       PNG_Cursor
 0002:0000B4A4       PNG_DCScreen
 0002:0000B4A8       PNG_DCCompatible
 0002:0000B4AC       PNG_Bitmap
 0002:0000B4B0       PNG_Width
 0002:0000B4B4       PNG_Height
 0002:0000B4B8       .1
 0002:0000B4BC       .1
 0002:0000B4C0       _BorDebugRegisterFile
 0002:0000B4C4       _BorDebugUnregisterFile
 0002:0000B4C8       _BorDebugSubSectionCount
 0002:0000B4CC       _BorDebugSubSection
 0002:0000B4D0       _BorDebugSrcModule
 0002:0000B4D4       _BorDebugSrcModuleSources
 0002:0000B4D8       _BorDebugSrcModuleSourceRanges
 0002:0000B4DC       _BorDebugSrcModuleLineNumbers
 0002:0000B4E0       _BorDebugNameIndexToName
 0002:0000B4E4       _BorDebugStartSymbols
 0002:0000B4E8       _BorDebugNextSymbol
 0002:0000B4EC       _BorDebugSymbolGPROC32
 0002:0000B4F0       _BorDebugSymbolGPROCREF
 0002:0000B4F4       DllHandle
 0002:0000B4F8       .8
 0002:0000B4FC       ModuleOptions
 0002:0000B500       Compiled
 0002:0000B504       GetCurrentModuleNameProc
 0002:0000B508       IsAcceptableProject
 0002:0000B50C       CurrentPersonality
 0002:0000B510       .8
 0002:0000B514       WaitForm
 0002:0000B518       .2
 0002:0000B51C       VariableForm
 0002:0000B520       .2
 0002:0000B524       IDEOptionsForm
 0002:0000B528       .2
 0002:0000B52C       ActivateDelay
 0002:0000B530       .2
 0002:0000B534       IDEManager
 0002:0000B538       .3
 0002:0000B53C       MailSlotSrv
 0002:0000B540       MailSlotOK
 0002:0000B544       MailSlotTimer
 0002:0000B548       MailSlotName
 0002:0000B54C       OldOnException
 0002:0000B554       OldLoadLibrary
 0002:0000B558       OldCreateFile
 0002:0000B55C       NotifiersList
 0002:0000B560       .7
 0002:0000B564       LastItem
 0002:0000B568       LastOption
 0002:0000B56C       MessageForm
 0002:0000B570       .2
 0002:0000B574       .1
 0002:0000B578       CommentsNumber
 0002:0000B57C       StartComments
 0002:0000B58C       EndComments
 0002:0000B59C       NameSet
 0002:0000B5BC       BeginWord
 0002:0000B5C0       EndWord
 0002:0000B5C4       CaseSensitive
 0002:0000B5C8       .1
 0002:0000B5CC       DesignNotifier
 0002:0000B5D0       HookKey
 0002:0000B5D4       .1
 0002:0000B5D8       StartTimer


Line numbers for ELeaks(ELeaks.pas) segment .text

   127 0001:00001B8C   128 0001:00001B96   129 0001:00001B9F   130 0001:00001BA8
   131 0001:00001BAA   132 0001:00001BAC   134 0001:00001BB0   135 0001:00001BB2
   136 0001:00001BBC   137 0001:00001BBE   138 0001:00001BBF   139 0001:00001BC0
   132 0001:00001BC1   141 0001:00001BC5   146 0001:00001BCC   147 0001:00001BD6
   148 0001:00001BE4   150 0001:00001BEB   151 0001:00001BFB   152 0001:00001BFD
   147 0001:00001BFE   154 0001:00001C02   155 0001:00001C0B   163 0001:00001C10
   164 0001:00001C13   179 0001:00001C15   180 0001:00001C18   181 0001:00001C1B
   182 0001:00001C21   183 0001:00001C23   184 0001:00001C26   185 0001:00001C29
   186 0001:00001C2F   191 0001:00001C31   192 0001:00001C36   195 0001:00001C37
   196 0001:00001C3C   200 0001:00001C40   201 0001:00001C43   203 0001:00001C45
   204 0001:00001C47   205 0001:00001C4A   208 0001:00001C4B   209 0001:00001C50
   239 0001:00001C54   240 0001:00001C61   241 0001:00001C63   244 0001:00001C90
   245 0001:00001C98   248 0001:00001C9C   249 0001:00001CAB   250 0001:00001CB3
   251 0001:00001CB5   254 0001:00001CBF   259 0001:00001CDC   260 0001:00001CEA
   261 0001:00001CF3   262 0001:00001CFC   265 0001:00001D12   267 0001:00001D21
   268 0001:00001D27   269 0001:00001D2D   273 0001:00001D3B   274 0001:00001D3E
   277 0001:00001D4F   282 0001:00001D62   283 0001:00001D72   284 0001:00001D86
   288 0001:00001D94   289 0001:00001DA7   292 0001:00001DB0   293 0001:00001DB7
   303 0001:00001DFB   315 0001:00001E00   316 0001:00001E2C   319 0001:00001E30
   321 0001:00001E3B   322 0001:00001E81   317 0001:00001E8E   324 0001:00001EC5
   336 0001:00001ECC   337 0001:00001ED3   338 0001:00001ED5   341 0001:00001EE5
   342 0001:00001EFD   344 0001:00001F04   356 0001:00001F08   357 0001:00001F0A
   358 0001:00001F0C   362 0001:00001F0E   364 0001:00001F12   366 0001:00001F14
   369 0001:00001F19   370 0001:00001F20   371 0001:00001F2B   367 0001:00001F32
   373 0001:00001F3D   377 0001:00001F40   378 0001:00001F43   397 0001:00001F44
   399 0001:00001F52   400 0001:00001F55   401 0001:00001F58   402 0001:00001F5F
   406 0001:00001F62   407 0001:00001F68   408 0001:00001F6E   411 0001:00001F74
   413 0001:00001F79   415 0001:00001F85   416 0001:00001F96   419 0001:00001F98
   420 0001:00001F9D   421 0001:00001FA4   422 0001:00001FAA   411 0001:00001FAE
   423 0001:00001FB3   429 0001:00001FBC   431 0001:00001FC0   432 0001:00001FCC
   435 0001:00001FCD   436 0001:00001FD1   437 0001:00001FE2   462 0001:00001FE4
   463 0001:00001FF2   465 0001:00001FF5   467 0001:00002002   468 0001:00002006
   469 0001:0000200B   471 0001:0000201F   476 0001:00002021   478 0001:00002027
   479 0001:00002037   480 0001:00002057   482 0001:0000206B   483 0001:0000206E
   487 0001:00002077   490 0001:00002089   491 0001:0000208C   494 0001:00002095
   497 0001:000020AE   498 0001:000020B1   501 0001:000020BA   504 0001:000020D1
   505 0001:000020D4   508 0001:000020DD   511 0001:000020F4   512 0001:000020F7
   515 0001:00002100   518 0001:00002112   519 0001:00002115   522 0001:0000211B
   525 0001:0000212D   526 0001:00002130   529 0001:00002136   532 0001:00002147
   533 0001:0000214A   536 0001:00002150   538 0001:0000215C   539 0001:0000216C
   541 0001:0000217D   542 0001:00002180   547 0001:00002184   549 0001:0000218E
   465 0001:00002191   553 0001:00002198   554 0001:0000219B   555 0001:0000219D
   558 0001:000021A3   560 0001:000021A8   561 0001:000021BD   562 0001:000021C9
   566 0001:000021CC   567 0001:000021CD   556 0001:000021D0   570 0001:000021D7
   582 0001:000021E0   583 0001:000021EA   586 0001:000021F3   589 0001:000021F5
   590 0001:000021F9   591 0001:000021FC   592 0001:0000220D   593 0001:00002218
   594 0001:00002223   597 0001:0000222D   598 0001:00002237   601 0001:0000223D
   604 0001:00002244   606 0001:0000224E   608 0001:00002257   609 0001:0000225E
   610 0001:00002263   611 0001:0000226B   615 0001:00002273   616 0001:00002279
   617 0001:0000227F   618 0001:00002283   621 0001:00002288   622 0001:00002292
   630 0001:0000229C   631 0001:000022A5   632 0001:000022A9   633 0001:000022AB
   636 0001:000022B4   637 0001:000022BC   640 0001:000022C9   642 0001:000022D1
   645 0001:000022D5   647 0001:000022DE   650 0001:000022E5   653 0001:000022E9
   654 0001:000022F4   657 0001:000022FE   659 0001:00002308   660 0001:0000230C
   661 0001:00002318   663 0001:00002323   664 0001:00002333   666 0001:00002342
   674 0001:0000234C   677 0001:00002353   679 0001:0000235C   680 0001:00002366
   683 0001:00002373   687 0001:0000237C   689 0001:00002390   690 0001:000023A3
   700 0001:000023A4   701 0001:000023A7   703 0001:000023A9   712 0001:000023AB
   726 0001:000023AE   729 0001:000023AF   730 0001:000023B4   734 0001:000023B8
   735 0001:000023BD   736 0001:000023C0   738 0001:000023C4   739 0001:000023CB
   742 0001:000023D4   745 0001:000023E1   747 0001:000023EC   748 0001:000023F5
   750 0001:00002409   753 0001:0000241D   754 0001:0000242B   759 0001:00002430
   760 0001:0000243A   763 0001:00002447   765 0001:00002452   766 0001:0000245C
   771 0001:00002464   772 0001:00002470   774 0001:0000247D   775 0001:0000248C
   778 0001:00002499   780 0001:000024A7   781 0001:000024B0   783 0001:000024C2
   784 0001:000024CD   792 0001:000024D4   794 0001:000024D6   793 0001:000024D9
   795 0001:000024E3   800 0001:000024E4   801 0001:000024E7   803 0001:000024EC
   805 0001:00002504   806 0001:00002508   801 0001:00002509   807 0001:0000250E
   808 0001:0000251D   810 0001:00002522   812 0001:00002546   813 0001:0000254A
   808 0001:0000254B   814 0001:00002552   818 0001:00002554   819 0001:00002556
   821 0001:0000255E   822 0001:00002576   827 0001:00002578   828 0001:00002580
   830 0001:00002586   831 0001:00002590   833 0001:00002594   835 0001:000025A1
   836 0001:000025AB   837 0001:000025B2   838 0001:000025B8   839 0001:000025BC
   841 0001:000025C0   831 0001:000025CA   843 0001:000025CE   849 0001:000025D4
   850 0001:000025DD   851 0001:000025E4   852 0001:000025E7   854 0001:000025E9
   855 0001:000025F3   857 0001:00002600   858 0001:00002604   859 0001:00002607
   861 0001:0000260A   862 0001:0000260E   863 0001:00002611   864 0001:0000261A
   889 0001:00002620   890 0001:0000262B   892 0001:00002630   895 0001:00002641
   896 0001:00002648   898 0001:00002650   900 0001:00002652   901 0001:0000265C
   904 0001:0000267D   908 0001:0000269E   910 0001:000026A2   911 0001:000026BA
   913 0001:000026CA   914 0001:000026D0   917 0001:000026D5   898 0001:000026D6
   920 0001:000026DF   922 0001:000026E1   923 0001:000026EB   925 0001:000026FB
   929 0001:0000271C   931 0001:00002720   932 0001:00002738   934 0001:00002748
   935 0001:0000274E   938 0001:00002750   920 0001:00002751   940 0001:00002759
   950 0001:00002760   951 0001:0000278C   952 0001:00002796   953 0001:00002798
   954 0001:0000279C   955 0001:000027A2   957 0001:000027A6   959 0001:000027B6
   962 0001:000027C0   963 0001:000027E2   965 0001:000027F3   967 0001:000027F9
   968 0001:000027FD   971 0001:000027FF   955 0001:00002802   973 0001:00002828
   979 0001:00002830   980 0001:00002850   981 0001:00002852   983 0001:00002858
   984 0001:0000285E   986 0001:00002862   988 0001:0000286E   989 0001:00002876
   991 0001:00002889   992 0001:0000288B   995 0001:0000288D   984 0001:00002890
   997 0001:000028B3   999 0001:000028BC  1014 0001:000028BF  1016 0001:000028CD
  1017 0001:000028D9  1018 0001:000028E5  1029 0001:000028F1  1036 0001:00002904
  1037 0001:00002906  1038 0001:0000290B  1040 0001:0000290F  1042 0001:0000291D
  1043 0001:00002924  1038 0001:00002927  1045 0001:0000292B  1052 0001:0000292C
  1053 0001:0000292F  1054 0001:0000293E  1060 0001:00002940  1061 0001:00002960
  1063 0001:00002969  1065 0001:00002975  1066 0001:0000297D  1069 0001:0000299A
  1071 0001:000029A7  1072 0001:000029DA  1075 0001:000029F0  1076 0001:000029F3
  1077 0001:00002A02  1090 0001:00002A04  1098 0001:00002A08  1099 0001:00002A0E
  1105 0001:00002A12  1106 0001:00002A1F  1115 0001:00002A2F  1125 0001:00002A36
  1127 0001:00002A3A  1128 0001:00002A49  1129 0001:00002A5C  1130 0001:00002A63
  1131 0001:00002A67  1139 0001:00002A79  1099 0001:00002A7C  1141 0001:00002A80
  1146 0001:00002A84  1147 0001:00002A88  1149 0001:00002A91  1150 0001:00002A97
  1152 0001:00002A9B  1153 0001:00002AA2  1150 0001:00002AA5  1155 0001:00002AA9
  1160 0001:00002AAC  1161 0001:00002AB0  1163 0001:00002AB9  1164 0001:00002ABF
  1166 0001:00002AC3  1167 0001:00002AC5  1168 0001:00002AC8  1164 0001:00002ACE
  1170 0001:00002AD2  1175 0001:00002AD8  1176 0001:00002ADC  1177 0001:00002AE2
  1179 0001:00002AE6  1180 0001:00002AF3  1177 0001:00002AF6  1182 0001:00002AFA
  1201 0001:00002B00  1202 0001:00002B09  1203 0001:00002B0D  1204 0001:00002B15
  1206 0001:00002B1B  1208 0001:00002B24  1210 0001:00002B2A  1211 0001:00002B2E
  1212 0001:00002B3C  1214 0001:00002B42  1215 0001:00002B47  1217 0001:00002B4B
  1219 0001:00002B62  1221 0001:00002B67  1204 0001:00002B70  1223 0001:00002B76
  1224 0001:00002B81  1233 0001:00002B88  1234 0001:00002BA0  1236 0001:00002BAD
  1237 0001:00002BBB  1240 0001:00002BC8  1241 0001:00002BD7  1243 0001:00002BE8
  1244 0001:00002BF5  1245 0001:00002BFF  1247 0001:00002C0D  1249 0001:00002C20
  1250 0001:00002C2A  1256 0001:00002C40  1263 0001:00002C52  1264 0001:00002C5F
  1273 0001:00002C64  1274 0001:00002C71  1283 0001:00002C76  1284 0001:00002C83
  1293 0001:00002C88  1294 0001:00002C95  1303 0001:00002C9A  1304 0001:00002CA7
  1313 0001:00002CAC  1314 0001:00002CB9  1320 0001:00002CBE  1321 0001:00002CCB
  1326 0001:00002CDD  1327 0001:00002CEA  1328 0001:00002CF4  1329 0001:00002D01
  1332 0001:00002D22  1366 0001:00002D7D  1390 0001:00002FF4  1391 0001:0000301D
  1392 0001:0000303A  1394 0001:0000304F  1395 0001:00003057  1396 0001:000030B8
  1414 0001:000030D8  1415 0001:000030E0  1416 0001:000030E5  1417 0001:000030EF
  1419 0001:000030F3  1420 0001:000030FF  1421 0001:00003106  1423 0001:00003116
  1425 0001:00003120  1426 0001:0000312A  1427 0001:0000312E  1428 0001:00003143
  1430 0001:00003147  1431 0001:00003149  1433 0001:00003157  1434 0001:0000315A
  1437 0001:0000315D  1438 0001:0000316B  1440 0001:0000317E  1442 0001:00003185
  1443 0001:00003188  1444 0001:00003192  1445 0001:00003194  1446 0001:00003195
  1447 0001:0000319C  1451 0001:000031AE  1453 0001:000031BC  1454 0001:000031C5
  1455 0001:000031D4  1456 0001:000031EA  1457 0001:000031FB  1474 0001:00003200
  1475 0001:00003222  1476 0001:00003248  1477 0001:00003282  1480 0001:00003288
  1481 0001:0000328B  1482 0001:0000329E  1506 0001:000032A0  1507 0001:000032B5
  1509 0001:000032BE  1510 0001:000032C5  1511 0001:000032D3  1513 0001:0000330F
  1517 0001:00003311  1520 0001:00003318  1521 0001:00003327  1524 0001:00003336
  1525 0001:0000333D  1526 0001:00003344  1529 0001:0000334B  1530 0001:00003352
  1533 0001:00003359  1536 0001:00003360  1537 0001:00003367  1538 0001:0000336E
  1541 0001:00003375  1547 0001:0000337F  1548 0001:000033AB  1551 0001:0000342C
  1553 0001:0000342F  1556 0001:00003436  1559 0001:0000343B  1561 0001:00003445
  1563 0001:0000344E  1565 0001:00003457  1566 0001:00003462  1569 0001:00003469
  1572 0001:0000346C  1573 0001:00003472  1574 0001:00003480  1575 0001:00003487
  1577 0001:0000348E  1578 0001:0000349A  1580 0001:000034AD  1581 0001:000034BC
  1584 0001:000034CF  1586 0001:000034D6  1588 0001:000034F3  1590 0001:0000350E
  1593 0001:0000353C  1594 0001:00003542  1595 0001:00003550  1596 0001:0000355E
  1598 0001:0000357C  1600 0001:00003597  1608 0001:000035C4  1610 0001:000035F7
  1604 0001:000035FC  1605 0001:00003608  1607 0001:0000360D

Line numbers for ETypes(ETypes.pas) segment .text

   126 0001:00004610   126 0001:00004617

Line numbers for EConsts(EConsts.pas) segment .text

   733 0001:00006970   733 0001:00006977

Line numbers for ECore(ECore.pas) segment .text

   447 0001:000076AC   448 0001:000076C6   449 0001:000076CF   450 0001:000076DC
   451 0001:000076F6   453 0001:000076FA   454 0001:00007704   455 0001:0000771D
   457 0001:00007721   458 0001:00007735   459 0001:00007743   462 0001:00007774
   469 0001:00007788   470 0001:00007798   471 0001:000077AC   472 0001:000077C5
   473 0001:000077D7   481 0001:00007BE0   482 0001:00007BEE   484 0001:00007BF5
   485 0001:00007C02   486 0001:00007C08   487 0001:00007C16   488 0001:00007C28
   490 0001:00007C2C   491 0001:00007C41   494 0001:00007C60   496 0001:00007C71
   498 0001:00007C9C   499 0001:00007C9F   500 0001:00007CA6   501 0001:00007CB7
   502 0001:00007CC8   508 0001:00007CEC   509 0001:00007CF5   510 0001:00007CFA
   511 0001:00007D05   512 0001:00007D13   515 0001:00007D1C   516 0001:00007D32
   517 0001:00007D45   518 0001:00007D79   523 0001:00007D94   524 0001:00007DD2
   525 0001:00007DDB   526 0001:00007E18   528 0001:00007E28   530 0001:00007E97
   533 0001:00007EAC   534 0001:00007ED8   535 0001:00007F26   538 0001:00007F30
   539 0001:00007F53   540 0001:00007F8A   543 0001:00007F94   544 0001:00007FBC
   545 0001:00007FED   547 0001:00007FFD   548 0001:00008046   551 0001:0000805C
   552 0001:00008086   553 0001:000080C3   556 0001:000080CC   557 0001:000080EF
   558 0001:0000811E   564 0001:00008128   565 0001:00008149   566 0001:00008151
   568 0001:00008155   569 0001:00008159   570 0001:0000816B   572 0001:00008172
   573 0001:0000818C   576 0001:00008192   578 0001:00008198   579 0001:000081A8
   580 0001:000081AC   569 0001:000081AD   582 0001:000081CD   585 0001:000081E0
   586 0001:000081E9   587 0001:00008203   596 0001:00008208   597 0001:00008212
   598 0001:00008214   601 0001:00008244   602 0001:0000824D   605 0001:00008251
   606 0001:00008261   607 0001:00008269   608 0001:0000826B   611 0001:00008275
   614 0001:00008290   615 0001:00008296   616 0001:000082A4   628 0001:000082A8
   629 0001:000082AC   630 0001:000082AE   633 0001:000082BE   634 0001:000082D6
   636 0001:000082DD   644 0001:000082E0   645 0001:00008302   647 0001:0000830A
   648 0001:0000831F   651 0001:00008324   653 0001:0000832A   656 0001:0000833E
   657 0001:00008353   660 0001:0000837F   668 0001:00008384   669 0001:000083C4
   670 0001:000083CF   672 0001:000083E4   673 0001:00008400   674 0001:0000840B
   675 0001:00008418   677 0001:00008429   679 0001:00008435   680 0001:00008445
   682 0001:00008448   684 0001:00008458   685 0001:00008468   686 0001:0000846F
   687 0001:0000847F   688 0001:000084C8   690 0001:000084CE   691 0001:000084DC
   692 0001:00008503   694 0001:00008524   699 0001:00008535   700 0001:00008543
   702 0001:00008545   703 0001:00008555   704 0001:00008592   709 0001:000085B0
   710 0001:000085D4   711 0001:000085D9   712 0001:000085E3   713 0001:000085ED
   714 0001:000085EF   715 0001:00008616   716 0001:00008640   722 0001:00008648
   723 0001:00008658   724 0001:00008663   725 0001:0000866D   726 0001:00008677
   727 0001:0000867F   729 0001:00008699   730 0001:000086A1   731 0001:000086AA
   732 0001:000086B4   733 0001:000086BE   734 0001:000086C8   735 0001:000086CB
   736 0001:000086D7   738 0001:000086D9   739 0001:000086E5   741 0001:000086E9
   742 0001:000086EE   743 0001:000086FA   744 0001:00008702   745 0001:00008704
   746 0001:00008711   747 0001:00008714   751 0001:00008719   752 0001:00008729
   753 0001:00008735   755 0001:00008737   756 0001:0000873B   757 0001:00008751
   763 0001:0000875C   764 0001:00008799   765 0001:0000879E   767 0001:000087AA
   766 0001:000087AB   768 0001:000087C9   771 0001:000087CD   773 0001:000087DF
   774 0001:000087FC   775 0001:00008806   777 0001:00008809   769 0001:0000880A
   779 0001:00008816   780 0001:00008834   781 0001:00008873   795 0001:0000887C
   796 0001:000088AD   797 0001:000088B4   798 0001:000088D4   800 0001:000088F2
   803 0001:00008916   804 0001:00008920   806 0001:0000893C   809 0001:00008955
   810 0001:0000895C   812 0001:00008987   819 0001:00008990   820 0001:000089AD
   821 0001:000089B9   823 0001:000089C2   825 0001:000089D2   827 0001:00008A0C
   828 0001:00008A38   830 0001:00008A3A   823 0001:00008A3B   831 0001:00008A60
   833 0001:00008A84   834 0001:00008A9A   835 0001:00008ADD   839 0001:00008B18
   840 0001:00008B30   842 0001:00008B4B   843 0001:00008B50   845 0001:00008B6B
   846 0001:00008B80   847 0001:00008BB7   852 0001:00008BCC   853 0001:00008BCF
   854 0001:00008BD5   855 0001:00008BDF   856 0001:00008C03   859 0001:00008C0C
   860 0001:00008C12   861 0001:00008C2D   866 0001:00008C38   867 0001:00008C3B
   875 0001:00008C50   877 0001:00008C6C   879 0001:00008C86   881 0001:00008CF8
   882 0001:00008D0E   883 0001:00008D42   887 0001:00008D64   888 0001:00008D69
   894 0001:00008D6C   895 0001:00008D95   896 0001:00008DB2   898 0001:00008DC7
   899 0001:00008DCF   900 0001:00008E30   906 0001:00008E50   907 0001:00008E6E
   908 0001:00008E70   910 0001:00008E7A   913 0001:00008E9B   915 0001:00008EA0
   916 0001:00008EA2   917 0001:00008EA8   919 0001:00008EDF   924 0001:00008EE8
   925 0001:00008EEC   927 0001:00008EEE   930 0001:00008F0D   932 0001:00008F12
   933 0001:00008F14   935 0001:00008F1C   944 0001:00008F20   945 0001:00008F23
   946 0001:00008F30   947 0001:00008F3F   950 0001:00008F44   951 0001:00008F47
   952 0001:00008F57   953 0001:00008F5C   955 0001:00008F60   956 0001:00008F8B
   957 0001:00008F8D   959 0001:00008F9E   960 0001:00008FA0   961 0001:00008FB8
   963 0001:00008FD4   965 0001:00008FDA   966 0001:00009014   969 0001:0000902C
   970 0001:0000904E   971 0001:0000905C   972 0001:00009066   973 0001:0000908C
   978 0001:000090B4   979 0001:000090B8   980 0001:000090C1   981 0001:000090CB
   987 0001:000090D0   988 0001:000090DA   989 0001:000090E2   991 0001:000090F1
   992 0001:00009103   993 0001:00009110   994 0001:00009124   995 0001:00009138
   996 0001:00009147   997 0001:00009156   998 0001:00009165   999 0001:00009174
  1000 0001:0000917E   989 0001:0000917F  1001 0001:00009186  1006 0001:0000918C
  1007 0001:00009190  1008 0001:000091A5  1009 0001:000091AC  1010 0001:000091B4
  1013 0001:000091B8  1014 0001:000091CA  1015 0001:000091CD  1016 0001:000091ED
  1019 0001:000091F0  1020 0001:000091F6  1021 0001:0000920A  1022 0001:00009213
  1023 0001:0000921B  1026 0001:00009220  1027 0001:0000922B  1028 0001:00009232
  1029 0001:00009249  1032 0001:0000924C  1033 0001:00009252  1034 0001:0000925B
  1037 0001:00009260  1038 0001:00009263  1039 0001:0000926A  1040 0001:00009272
  1045 0001:00009274  1046 0001:000092A3  1047 0001:000092AC  1048 0001:000092B2
  1049 0001:000092BD  1050 0001:000092CE  1051 0001:000092D5  1052 0001:0000930E
  1055 0001:00009318  1056 0001:00009323  1057 0001:0000932A  1058 0001:00009332
  1059 0001:00009349  1064 0001:0000934C  1065 0001:00009358  1067 0001:00009360
  1069 0001:00009369  1070 0001:00009371  1071 0001:0000937F  1072 0001:0000938D
  1073 0001:0000938F  1072 0001:000093A8  1074 0001:000093AD  1075 0001:000093BB
  1076 0001:000093C9  1077 0001:000093D7  1078 0001:000093E2  1079 0001:000093ED
  1080 0001:000093F8  1081 0001:00009403  1082 0001:0000940F  1083 0001:0000941A
  1084 0001:00009425  1085 0001:00009433  1086 0001:00009441  1087 0001:0000944F
  1088 0001:0000945A  1089 0001:00009468  1090 0001:00009476  1091 0001:00009484
  1092 0001:00009492  1093 0001:000094A0  1094 0001:000094AE  1095 0001:000094BC
  1096 0001:000094CA  1098 0001:000094D5  1099 0001:000094E3  1100 0001:000094F1
  1101 0001:000094FF  1102 0001:0000950D  1103 0001:0000951B  1104 0001:0000952A
  1106 0001:00009538  1107 0001:00009547  1108 0001:00009555  1109 0001:00009563
  1111 0001:00009571  1112 0001:0000957F  1113 0001:0000958E  1114 0001:0000959C
  1115 0001:000095AA  1117 0001:000095B8  1118 0001:000095C3  1119 0001:000095CE
  1120 0001:000095D9  1121 0001:000095E5  1122 0001:000095F0  1123 0001:000095FB
  1124 0001:00009606  1125 0001:00009611  1126 0001:0000961C  1127 0001:00009627
  1128 0001:00009632  1129 0001:0000963D  1130 0001:00009648  1131 0001:00009653
  1132 0001:0000965E  1133 0001:00009669  1136 0001:00009685  1137 0001:0000968D
  1142 0001:0000969D  1144 0001:000096B3  1147 0001:000096F8  1148 0001:00009701
  1149 0001:00009710  1152 0001:00009714  1153 0001:0000971D  1154 0001:0000972C
  1159 0001:00009730  1160 0001:00009737  1161 0001:0000974D  1162 0001:0000975B
  1164 0001:00009772  1166 0001:00009782  1176 0001:00009788  1178 0001:000097AC
  1179 0001:000097D3  1182 0001:000097F1  1183 0001:00009806  1182 0001:00009825
  1185 0001:00009828  1186 0001:00009833  1187 0001:00009842  1188 0001:00009848
  1189 0001:00009879  1191 0001:0000988C  1194 0001:00009897  1195 0001:000098A9
  1196 0001:000098BB  1197 0001:000098CD  1198 0001:000098DF  1199 0001:000098F1
  1200 0001:00009903  1201 0001:00009912  1202 0001:00009921  1203 0001:0000992B
  1204 0001:00009935  1205 0001:00009944  1206 0001:0000994E  1207 0001:00009958
  1208 0001:00009967  1209 0001:00009979  1210 0001:0000998B  1211 0001:00009998
  1212 0001:000099A5  1213 0001:000099B7  1214 0001:000099C6  1216 0001:000099D3
  1217 0001:000099E5  1218 0001:000099F2  1219 0001:000099FF  1220 0001:00009A0C
  1221 0001:00009A1E  1222 0001:00009A2B  1224 0001:00009A3D  1225 0001:00009A4F
  1226 0001:00009A61  1227 0001:00009A6E  1229 0001:00009A7B  1230 0001:00009A8D
  1231 0001:00009A9F  1232 0001:00009AB1  1233 0001:00009AC3  1234 0001:00009AD5
  1235 0001:00009AE7  1236 0001:00009AF6  1237 0001:00009B05  1238 0001:00009B0F
  1239 0001:00009B19  1240 0001:00009B23  1241 0001:00009B32  1242 0001:00009B3C
  1243 0001:00009B46  1244 0001:00009B50  1245 0001:00009B5A  1246 0001:00009B64
  1247 0001:00009B6E  1249 0001:00009B78  1250 0001:00009B81  1251 0001:00009B8F
  1253 0001:00009BA2  1254 0001:00009BBA  1255 0001:00009BCE  1256 0001:00009BE2
  1257 0001:00009BFB  1258 0001:00009C14  1259 0001:00009C2D  1260 0001:00009C46
  1251 0001:00009C47  1261 0001:00009C51  1262 0001:00009C5E  1263 0001:00009C63
  1262 0001:00009C78  1264 0001:00009C7F  1266 0001:00009C8C  1274 0001:00009C94
  1275 0001:00009CE5  1276 0001:00009CF3  1277 0001:00009D14  1278 0001:00009D1C
  1280 0001:00009D2F  1281 0001:00009D5E  1282 0001:00009D83  1283 0001:00009DA1
  1285 0001:00009DAB  1278 0001:00009DAE  1286 0001:00009DB7  1287 0001:00009DC1
  1288 0001:00009DD5  1289 0001:00009E08  1290 0001:00009E1E  1291 0001:00009E61
  1297 0001:00009E84  1298 0001:00009ED9  1299 0001:00009EE8  1300 0001:00009EF3
  1301 0001:00009F15  1302 0001:00009F27  1301 0001:00009F79  1303 0001:00009F7C
  1304 0001:00009FC0  1310 0001:00009FD8  1311 0001:00009FF8  1313 0001:00009FFA
  1314 0001:0000A011  1316 0001:0000A04A  1311 0001:0000A04B  1317 0001:0000A050
  1318 0001:0000A08D  1323 0001:0000A0BC  1324 0001:0000A0C3  1325 0001:0000A0D6
  1326 0001:0000A0E4  1328 0001:0000A0FB  1330 0001:0000A10B  1347 0001:0000A110
  1348 0001:0000A136  1349 0001:0000A13D  1350 0001:0000A142  1352 0001:0000A144
  1353 0001:0000A168  1354 0001:0000A16A  1355 0001:0000A177  1350 0001:0000A178
  1356 0001:0000A19A  1361 0001:0000A1A4  1362 0001:0000A1C6  1363 0001:0000A1D5
  1364 0001:0000A1DA  1366 0001:0000A1DF  1367 0001:0000A1E5  1368 0001:0000A206
  1369 0001:0000A208  1370 0001:0000A215  1364 0001:0000A216  1371 0001:0000A238
  1376 0001:0000A240  1377 0001:0000A24B  1378 0001:0000A25A  1379 0001:0000A264
  1380 0001:0000A26A  1383 0001:0000A27D  1384 0001:0000A291  1383 0001:0000A2AE
  1385 0001:0000A2B1  1387 0001:0000A2B8  1388 0001:0000A2DE  1390 0001:0000A2E6
  1391 0001:0000A2EE  1394 0001:0000A2FC  1395 0001:0000A311  1396 0001:0000A326
  1398 0001:0000A33B  1400 0001:0000A346  1401 0001:0000A355  1402 0001:0000A368
  1405 0001:0000A378  1408 0001:0000A38D  1410 0001:0000A3AB  1411 0001:0000A3BA
  1412 0001:0000A3DB  1413 0001:0000A3F6  1414 0001:0000A405  1415 0001:0000A426
  1416 0001:0000A441  1417 0001:0000A450  1418 0001:0000A471  1422 0001:0000A48C
  1424 0001:0000A497  1425 0001:0000A4AC  1426 0001:0000A4C1  1428 0001:0000A4CC
  1433 0001:0000A4E2  1435 0001:0000A4F8  1436 0001:0000A507  1437 0001:0000A528
  1441 0001:0000A543  1443 0001:0000A552  1444 0001:0000A564  1445 0001:0000A576
  1446 0001:0000A581  1447 0001:0000A595  1448 0001:0000A5A0  1450 0001:0000A5AA
  1451 0001:0000A5CD  1455 0001:0000A5E5  1458 0001:0000A602  1460 0001:0000A60D
  1461 0001:0000A625  1462 0001:0000A63D  1465 0001:0000A64F  1467 0001:0000A65A
  1468 0001:0000A669  1471 0001:0000A679  1472 0001:0000A68E  1473 0001:0000A6A3
  1474 0001:0000A6BD  1475 0001:0000A6D7  1476 0001:0000A6EC  1478 0001:0000A703
  1479 0001:0000A70C  1481 0001:0000A718  1484 0001:0000A722  1485 0001:0000A739
  1487 0001:0000A748  1488 0001:0000A75A  1489 0001:0000A768  1490 0001:0000A77A
  1491 0001:0000A78C  1492 0001:0000A79E  1493 0001:0000A7B0  1494 0001:0000A7C2
  1495 0001:0000A7D4  1498 0001:0000A7F5  1500 0001:0000A804  1501 0001:0000A816
  1502 0001:0000A824  1503 0001:0000A836  1504 0001:0000A848  1505 0001:0000A85A
  1506 0001:0000A86C  1507 0001:0000A87E  1508 0001:0000A890  1509 0001:0000A8A2
  1511 0001:0000A8C0  1513 0001:0000A8D2  1515 0001:0000A8EC  1517 0001:0000A906
  1519 0001:0000A915  1520 0001:0000A92A  1521 0001:0000A944  1522 0001:0000A95E
  1523 0001:0000A978  1524 0001:0000A98D  1525 0001:0000A9A7  1526 0001:0000A9BC
  1527 0001:0000A9C7  1529 0001:0000A9E4  1532 0001:0000AA06  1533 0001:0000AA17
  1535 0001:0000AA2C  1536 0001:0000AA41  1537 0001:0000AA5B  1539 0001:0000AA75
  1540 0001:0000AA8A  1541 0001:0000AA95  1543 0001:0000AAAD  1545 0001:0000AAB8
  1546 0001:0000AACD  1550 0001:0000AAE4  1551 0001:0000AAF5  1553 0001:0000AB0A
  1554 0001:0000AB1F  1555 0001:0000AB34  1556 0001:0000AB49  1558 0001:0000AB58
  1559 0001:0000AB6A  1560 0001:0000AB7C  1561 0001:0000AB94  1562 0001:0000ABAC
  1563 0001:0000ABC4  1564 0001:0000ABD6  1565 0001:0000ABEE  1566 0001:0000AC06
  1567 0001:0000AC1E  1568 0001:0000AC36  1569 0001:0000AC4E  1570 0001:0000AC66
  1574 0001:0000AC7E  1575 0001:0000AC89  1576 0001:0000AC98  1578 0001:0000ACA8
  1579 0001:0000ACBA  1580 0001:0000ACD5  1582 0001:0000ACD8  1583 0001:0000ACE2
  1584 0001:0000ACED  1585 0001:0000ACF7  1586 0001:0000AD02  1588 0001:0000AD0D
  1589 0001:0000AD1C  1590 0001:0000AD2B  1591 0001:0000AD3A  1595 0001:0000AD4B
  1597 0001:0000AD51  1598 0001:0000AD55  1599 0001:0000AD59  1600 0001:0000AD5D
  1604 0001:0000AD63  1605 0001:0000AD67  1606 0001:0000AD6B  1607 0001:0000AD6F
  1610 0001:0000AD73  1576 0001:0000AD80  1613 0001:0000AD89  1614 0001:0000ADA9
  1617 0001:0000ADAB  1618 0001:0000ADBF  1620 0001:0000ADC9  1648 0001:0000AEB5
  1649 0001:0000AED8  1614 0001:0000AED9  1650 0001:0000AEE2  1651 0001:0000AF0D
  1652 0001:0000AF13  1655 0001:0000AF2D  1656 0001:0000AF35  1658 0001:0000AF8C
  1666 0001:0000B038  1670 0001:0000B03C  1671 0001:0000B03F  1675 0001:0000B040
  1676 0001:0000B043  1681 0001:0000B044  1682 0001:0000B064  1684 0001:0000B066
  1687 0001:0000B0B5  1682 0001:0000B0B6  1688 0001:0000B0BB  1689 0001:0000B0F8
  1692 0001:0000B128  1693 0001:0000B12B  1694 0001:0000B14D  1695 0001:0000B153
  1700 0001:0000B158  1701 0001:0000B161  1702 0001:0000B169  1703 0001:0000B177
  1704 0001:0000B17F  1703 0001:0000B195  1705 0001:0000B19A  1706 0001:0000B1AC
  1707 0001:0000B1B3  1708 0001:0000B1BD  1709 0001:0000B1CD  1710 0001:0000B1D8
  1711 0001:0000B1E1  1712 0001:0000B1EC  1713 0001:0000B1F7  1714 0001:0000B201
  1715 0001:0000B20B  1716 0001:0000B215  1717 0001:0000B21F  1718 0001:0000B229
  1719 0001:0000B230  1720 0001:0000B23F  1721 0001:0000B251  1722 0001:0000B25E
  1723 0001:0000B26B  1724 0001:0000B278  1725 0001:0000B285  1726 0001:0000B292
  1727 0001:0000B29F  1729 0001:0000B2A9  1730 0001:0000B2B3  1731 0001:0000B2C0
  1732 0001:0000B2CD  1733 0001:0000B2DA  1734 0001:0000B2E5  1735 0001:0000B2F2
  1737 0001:0000B303  1740 0001:0000B314  1741 0001:0000B31F  1742 0001:0000B32C
  1749 0001:0000B33E  1751 0001:0000B34D  1753 0001:0000B35E  1755 0001:0000B36D
  1756 0001:0000B377  1757 0001:0000B384  1759 0001:0000B391  1760 0001:0000B39C
  1761 0001:0000B3A7  1762 0001:0000B3B2  1763 0001:0000B3BB  1764 0001:0000B3C6
  1765 0001:0000B3D1  1766 0001:0000B3DC  1767 0001:0000B3E7  1768 0001:0000B3F2
  1769 0001:0000B3FD  1770 0001:0000B408  1771 0001:0000B413  1772 0001:0000B41E
  1773 0001:0000B429  1774 0001:0000B435  1775 0001:0000B43C  1777 0001:0000B447
  1779 0001:0000B45E  1780 0001:0000B466  1782 0001:0000B476  1785 0001:0000B5F8
  1786 0001:0000B5FE  1787 0001:0000B608  1788 0001:0000B60F  1791 0001:0000B614
  1792 0001:0000B61A  1793 0001:0000B624  1794 0001:0000B62B  1797 0001:0000B630
  1798 0001:0000B636  1799 0001:0000B640  1800 0001:0000B647  1803 0001:0000B64C
  1804 0001:0000B652  1805 0001:0000B65C  1806 0001:0000B663  1809 0001:0000B668
  1810 0001:0000B66E  1811 0001:0000B678  1812 0001:0000B67F  1815 0001:0000B684
  1816 0001:0000B68A  1817 0001:0000B694  1818 0001:0000B69B  1821 0001:0000B6A0
  1822 0001:0000B6C3  1823 0001:0000B6D3  1824 0001:0000B6F7  1828 0001:0000B6FC
  1829 0001:0000B702  1830 0001:0000B707  1834 0001:0000B708  1835 0001:0000B70B
  1836 0001:0000B710  1840 0001:0000B714  1841 0001:0000B718  1843 0001:0000B724
  1844 0001:0000B72A  1845 0001:0000B72F  1848 0001:0000B730  1849 0001:0000B736
  1850 0001:0000B740  1851 0001:0000B747  1855 0001:0000B74C  1856 0001:0000B752
  1857 0001:0000B757  1861 0001:0000B758  1862 0001:0000B75E  1863 0001:0000B763
  1867 0001:0000B764  1868 0001:0000B76A  1869 0001:0000B76F  1872 0001:0000B770
  1873 0001:0000B776  1874 0001:0000B783  1875 0001:0000B78A  1878 0001:0000B790
  1879 0001:0000B796  1880 0001:0000B7A3  1881 0001:0000B7AA  1885 0001:0000B7B0
  1886 0001:0000B7B6  1887 0001:0000B7BB  1890 0001:0000B7BC  1891 0001:0000B7C2
  1892 0001:0000B7CF  1893 0001:0000B7D6  1897 0001:0000B7DC  1898 0001:0000B7E2
  1899 0001:0000B7E7  1903 0001:0000B7E8  1904 0001:0000B7EB  1905 0001:0000B7F0
  1909 0001:0000B7F4  1910 0001:0000B7FA  1911 0001:0000B7FF  1915 0001:0000B800
  1916 0001:0000B803  1917 0001:0000B808  1920 0001:0000B80C  1921 0001:0000B810
  1922 0001:0000B819  1923 0001:0000B81E  1926 0001:0000B820  1927 0001:0000B826
  1928 0001:0000B833  1929 0001:0000B83A  1932 0001:0000B840  1933 0001:0000B846
  1934 0001:0000B850  1935 0001:0000B857  1938 0001:0000B85C  1939 0001:0000B862
  1940 0001:0000B86C  1941 0001:0000B873  1944 0001:0000B878  1945 0001:0000B87E
  1946 0001:0000B888  1947 0001:0000B88F  1950 0001:0000B894  1951 0001:0000B89A
  1952 0001:0000B8A4  1953 0001:0000B8AB  1957 0001:0000B8B0  1958 0001:0000B8B4
  1959 0001:0000B8B9  1962 0001:0000B8BC  1963 0001:0000B8C2  1964 0001:0000B8CC
  1965 0001:0000B8D3  1968 0001:0000B8D8  1969 0001:0000B8DE  1970 0001:0000B8E8
  1971 0001:0000B8EF  1975 0001:0000B8F4  1976 0001:0000B8FA  1977 0001:0000B8FF
  1981 0001:0000B900  1982 0001:0000B90D  1983 0001:0000B912  1986 0001:0000B914
  1987 0001:0000B91A  1988 0001:0000B924  1989 0001:0000B92B  1992 0001:0000B930
  1993 0001:0000B936  1994 0001:0000B940  1995 0001:0000B947  1998 0001:0000B94C
  1999 0001:0000B952  2000 0001:0000B95C  2001 0001:0000B963  2005 0001:0000B968
  2006 0001:0000B96C  2007 0001:0000B971  2010 0001:0000B974  2011 0001:0000B97A
  2012 0001:0000B984  2013 0001:0000B98B  2018 0001:0000B990  2019 0001:0000B993
  2020 0001:0000B998  2023 0001:0000B99C  2024 0001:0000B9A2  2025 0001:0000B9AF
  2026 0001:0000B9B6  2030 0001:0000B9BC  2031 0001:0000B9C2  2032 0001:0000B9C7
  2035 0001:0000B9C8  2036 0001:0000B9CE  2037 0001:0000B9DB  2038 0001:0000B9E2
  2041 0001:0000B9E8  2042 0001:0000B9EE  2043 0001:0000B9FB  2044 0001:0000BA02
  2048 0001:0000BA08  2049 0001:0000BA0E  2050 0001:0000BA13  2053 0001:0000BA14
  2054 0001:0000BA1A  2055 0001:0000BA27  2056 0001:0000BA2E  2059 0001:0000BA34
  2060 0001:0000BA3A  2061 0001:0000BA44  2062 0001:0000BA4B  2065 0001:0000BA50
  2066 0001:0000BA55  2067 0001:0000BA60  2068 0001:0000BA65  2071 0001:0000BA68
  2072 0001:0000BA6C  2073 0001:0000BA72  2074 0001:0000BA77  2077 0001:0000BA7C
  2078 0001:0000BA82  2079 0001:0000BA8F  2080 0001:0000BA96  2083 0001:0000BA9C
  2084 0001:0000BAA1  2085 0001:0000BAAC  2086 0001:0000BAB1  2090 0001:0000BAB4
  2091 0001:0000BAB7  2092 0001:0000BABC  2097 0001:0000BAC0  2098 0001:0000BAC6
  2099 0001:0000BACB  2103 0001:0000BACC  2104 0001:0000BAD2  2105 0001:0000BAD7
  2109 0001:0000BAD8  2110 0001:0000BADE  2111 0001:0000BAE3  2115 0001:0000BAE4
  2116 0001:0000BAEA  2117 0001:0000BAEF  2120 0001:0000BAF0  2121 0001:0000BAF6
  2122 0001:0000BB03  2123 0001:0000BB0A  2126 0001:0000BB10  2127 0001:0000BB16
  2128 0001:0000BB23  2129 0001:0000BB2A  2132 0001:0000BB30  2133 0001:0000BB35
  2134 0001:0000BB40  2135 0001:0000BB45  2138 0001:0000BB48  2139 0001:0000BB4C
  2140 0001:0000BB55  2141 0001:0000BB5A  2148 0001:0000BB5C  2149 0001:0000BB83
  2152 0001:0000BB97  2153 0001:0000BBA1  2155 0001:0000BBF9  2159 0001:0000BC0C
  2160 0001:0000BC25  2162 0001:0000BC28  2163 0001:0000BC56  2166 0001:0000BC8D
  2167 0001:0000BC96  2170 0001:0000BCA5  2171 0001:0000BCAE  2173 0001:0000BCCF
  2175 0001:0000BCE4  2177 0001:0000BD1B  2187 0001:0000BD48  2188 0001:0000BD59
  2189 0001:0000BD5F  2190 0001:0000BD6C  2191 0001:0000BD7E  2192 0001:0000BD91
  2191 0001:0000BDB7  2193 0001:0000BDBA  2195 0001:0000BDC4  2196 0001:0000BDF0
  2197 0001:0000BE01  2198 0001:0000BE1D  2200 0001:0000BE26  2203 0001:0000BE80
  2208 0001:0000BEA4  2209 0001:0000BED4  2210 0001:0000BEE2  2212 0001:0000BF03
  2214 0001:0000BF05  2216 0001:0000BF1B  2218 0001:0000BF24  2219 0001:0000BF6B
  2223 0001:0000BF72  2224 0001:0000BF98  2225 0001:0000BFA5  2229 0001:0000C004
  2239 0001:0000C078  2251 0001:0000C082  2255 0001:0000C084  2263 0001:0000C088
  2265 0001:0000C0C5  2259 0001:0000C0DC  2260 0001:0000C0E5  2262 0001:0000C0F4

Line numbers for EDebug(EDebug.pas) segment .text

   891 0001:0000D440   894 0001:0000D444   895 0001:0000D446   899 0001:0000D448
   902 0001:0000D44C   903 0001:0000D44E   910 0001:0000D450   911 0001:0000D45F
   912 0001:0000D466   914 0001:0000D46C   915 0001:0000D46E   916 0001:0000D471
   917 0001:0000D475   919 0001:0000D479   920 0001:0000D47E   921 0001:0000D48C
   924 0001:0000D495   925 0001:0000D498   927 0001:0000D49C   928 0001:0000D4A0
   917 0001:0000D4A2   932 0001:0000D4A6   934 0001:0000D4B1   936 0001:0000D4C1
   942 0001:0000D4CC   943 0001:0000D4D8   944 0001:0000D4DC   947 0001:0000D4FE
   948 0001:0000D504   949 0001:0000D512   950 0001:0000D524   951 0001:0000D532
   952 0001:0000D53C   954 0001:0000D54D   957 0001:0000D56A   959 0001:0000D57E
   964 0001:0000D584   965 0001:0000D59E   967 0001:0000D5A9   968 0001:0000D5BA
   970 0001:0000D5DC   973 0001:0000D5E4   974 0001:0000D5EF   975 0001:0000D5F7
   976 0001:0000D5FC   977 0001:0000D613   980 0001:0000D618   981 0001:0000D61E
   982 0001:0000D62A   988 0001:0000D630   989 0001:0000D634   991 0001:0000D638
   992 0001:0000D63F   994 0001:0000D642   996 0001:0000D646   995 0001:0000D647
   997 0001:0000D651  1000 0001:0000D658   999 0001:0000D659  1002 0001:0000D660
  1001 0001:0000D661  1004 0001:0000D669  1006 0001:0000D66D  1005 0001:0000D66E
  1007 0001:0000D67E  1008 0001:0000D683  1009 0001:0000D685  1011 0001:0000D689
  1010 0001:0000D68A  1012 0001:0000D69A  1013 0001:0000D6A6  1014 0001:0000D6A9
  1015 0001:0000D6AB  1016 0001:0000D6B7  1021 0001:0000D6BC  1022 0001:0000D6BF
  1024 0001:0000D6C3  1025 0001:0000D6CA  1027 0001:0000D6CC  1029 0001:0000D6D1
  1030 0001:0000D6D2  1032 0001:0000D6D6  1031 0001:0000D6D7  1036 0001:0000D6E5
  1038 0001:0000D6E9  1037 0001:0000D6EA  1040 0001:0000D6FB  1041 0001:0000D706
  1061 0001:0000D834  1063 0001:0000D83F  1062 0001:0000D841  1064 0001:0000D852
  1067 0001:0000D854  1069 0001:0000D85F  1068 0001:0000D861  1070 0001:0000D868
  1071 0001:0000D872  1074 0001:0000D874  1075 0001:0000D877  1076 0001:0000D886
  1079 0001:0000D888  1080 0001:0000D88B  1081 0001:0000D89A  1086 0001:0000D89C
  1087 0001:0000D8A6  1089 0001:0000D8AA  1088 0001:0000D8AC  1090 0001:0000D8B9
  1091 0001:0000D8C2  1095 0001:0000D8C8  1096 0001:0000D8D2  1099 0001:0000D8D6
  1100 0001:0000D8E6  1097 0001:0000D8E8  1102 0001:0000D8F6  1107 0001:0000D8FC
  1108 0001:0000D906  1110 0001:0000D908  1111 0001:0000D90C  1114 0001:0000D936
  1115 0001:0000D939  1119 0001:0000D945  1120 0001:0000D948  1124 0001:0000D957
  1125 0001:0000D95A  1129 0001:0000D969  1130 0001:0000D96B  1135 0001:0000D96D
  1136 0001:0000D96F  1137 0001:0000D973  1140 0001:0000D978  1141 0001:0000D97E
  1142 0001:0000D98B  1144 0001:0000D996  1145 0001:0000D99C  1148 0001:0000D9AC
  1149 0001:0000D9B1  1152 0001:0000D9B4  1153 0001:0000D9BE  1154 0001:0000D9C8
  1156 0001:0000D9CC  1155 0001:0000D9CE  1157 0001:0000D9DF  1160 0001:0000D9E4
  1162 0001:0000D9EF  1161 0001:0000D9F1  1163 0001:0000D9FF  1164 0001:0000DA02
  1170 0001:0000DA04  1171 0001:0000DA23  1174 0001:0000DA27  1175 0001:0000DA3F
  1176 0001:0000DA41  1177 0001:0000DA43  1178 0001:0000DA45  1180 0001:0000DA4A
  1181 0001:0000DA55  1183 0001:0000DA59  1184 0001:0000DA5B  1186 0001:0000DA5D
  1187 0001:0000DA5F  1178 0001:0000DA60  1189 0001:0000DA65  1190 0001:0000DA6A
  1192 0001:0000DA6E  1172 0001:0000DA78  1194 0001:0000DA86  1195 0001:0000DA94
  1196 0001:0000DAC2  1203 0001:0000DACC  1204 0001:0000DAEA  1206 0001:0000DAF8
  1207 0001:0000DAFC  1209 0001:0000DAFE  1210 0001:0000DB08  1211 0001:0000DB11
  1214 0001:0000DB19  1215 0001:0000DB1A  1212 0001:0000DB1B  1217 0001:0000DB37
  1218 0001:0000DB4E  1219 0001:0000DB5C  1220 0001:0000DB62  1221 0001:0000DB68
  1222 0001:0000DB92  1224 0001:0000DB9C  1225 0001:0000DBA7  1227 0001:0000DBB1
  1229 0001:0000DBB5  1230 0001:0000DBBB  1232 0001:0000DBC0  1233 0001:0000DBC9
  1234 0001:0000DBD6  1237 0001:0000DBED  1238 0001:0000DC05  1239 0001:0000DC0C
  1240 0001:0000DC15  1241 0001:0000DC1E  1242 0001:0000DC28  1243 0001:0000DC2F
  1235 0001:0000DC3F  1245 0001:0000DC4A  1248 0001:0000DC61  1249 0001:0000DC79
  1250 0001:0000DC80  1251 0001:0000DC89  1252 0001:0000DC92  1253 0001:0000DC9B
  1254 0001:0000DCA4  1255 0001:0000DCAE  1256 0001:0000DCB5  1246 0001:0000DCC6
  1258 0001:0000DCD1  1261 0001:0000DCE8  1262 0001:0000DD00  1263 0001:0000DD09
  1264 0001:0000DD10  1259 0001:0000DD1C  1266 0001:0000DD27  1269 0001:0000DD42
  1270 0001:0000DD5A  1271 0001:0000DD63  1272 0001:0000DD6A  1267 0001:0000DD76
  1276 0001:0000DD86  1277 0001:0000DD8C  1279 0001:0000DD94  1278 0001:0000DD97
  1280 0001:0000DD9F  1281 0001:0000DDA6  1283 0001:0000DDB3  1284 0001:0000DDBA
  1285 0001:0000DDC3  1286 0001:0000DDCA  1287 0001:0000DDE2  1288 0001:0000DDE9
  1290 0001:0000DDF5  1292 0001:0000DE03  1293 0001:0000DE09  1295 0001:0000DE0D
  1297 0001:0000DE1B  1274 0001:0000DE26  1300 0001:0000DE3A  1306 0001:0000DE60
  1307 0001:0000DE7E  1308 0001:0000DE85  1309 0001:0000DED4  1312 0001:0000DEE0
  1313 0001:0000DEE1  1314 0001:0000DEE8  1315 0001:0000DEF5  1318 0001:0000DEF8
  1319 0001:0000DF16  1320 0001:0000DF1D  1321 0001:0000DF66  1325 0001:0000DF70
  1326 0001:0000DF8C  1327 0001:0000DF93  1328 0001:0000DFCA  1332 0001:0000DFD0
  1333 0001:0000DFEC  1334 0001:0000DFF3  1335 0001:0000E02A  1339 0001:0000E030
  1340 0001:0000E04E  1341 0001:0000E055  1342 0001:0000E0A4  1347 0001:0000E0B0
  1348 0001:0000E0C2  1349 0001:0000E0CB  1350 0001:0000E0D0  1351 0001:0000E0D5
  1352 0001:0000E0DA  1353 0001:0000E0DF  1354 0001:0000E0E4  1355 0001:0000E0E9
  1356 0001:0000E0EE  1357 0001:0000E0F3  1358 0001:0000E111  1361 0001:0000E114
  1362 0001:0000E11F  1363 0001:0000E12B  1364 0001:0000E137  1365 0001:0000E143
  1366 0001:0000E14F  1367 0001:0000E166  1371 0001:0000E16C  1372 0001:0000E16F
  1376 0001:0000E174  1377 0001:0000E178  1383 0001:0000E17C  1384 0001:0000E189
  1385 0001:0000E195  1386 0001:0000E19B  1387 0001:0000E19F  1389 0001:0000E1BB
  1391 0001:0000E1C8  1392 0001:0000E1D3  1394 0001:0000E1E2  1399 0001:0000E1E8
  1401 0001:0000E1F1  1404 0001:0000E221  1405 0001:0000E22E  1407 0001:0000E247
  1408 0001:0000E252  1410 0001:0000E25D  1411 0001:0000E269  1412 0001:0000E273
  1413 0001:0000E276  1415 0001:0000E27C  1416 0001:0000E27F  1417 0001:0000E282
  1418 0001:0000E290  1419 0001:0000E299  1420 0001:0000E2A0  1424 0001:0000E2A7
  1425 0001:0000E2AA  1429 0001:0000E2B0  1430 0001:0000E2B3  1435 0001:0000E2B4
  1436 0001:0000E2C0  1437 0001:0000E2C8  1438 0001:0000E2D1  1440 0001:0000E2E5
  1441 0001:0000E2F6  1442 0001:0000E2F8  1437 0001:0000E2F9  1443 0001:0000E2FE
  1448 0001:0000E304  1449 0001:0000E307  1450 0001:0000E30A  1451 0001:0000E313
  1453 0001:0000E327  1454 0001:0000E330  1455 0001:0000E332  1450 0001:0000E333
  1456 0001:0000E33A  1460 0001:0000E340  1461 0001:0000E344  1467 0001:0000E348
  1468 0001:0000E359  1469 0001:0000E365  1470 0001:0000E36D  1471 0001:0000E374
  1473 0001:0000E391  1475 0001:0000E39E  1476 0001:0000E3AF  1478 0001:0000E3BD
  1483 0001:0000E3C8  1486 0001:0000E3CC  1487 0001:0000E3D5  1489 0001:0000E3DB
  1491 0001:0000E3F4  1492 0001:0000E3FF  1494 0001:0000E40A  1495 0001:0000E416
  1496 0001:0000E420  1498 0001:0000E423  1501 0001:0000E428  1502 0001:0000E42B
  1503 0001:0000E431  1504 0001:0000E436  1505 0001:0000E43B  1506 0001:0000E440
  1507 0001:0000E447  1508 0001:0000E44D  1509 0001:0000E45A  1510 0001:0000E460
  1511 0001:0000E46D  1517 0001:0000E470  1518 0001:0000E47E  1520 0001:0000E484
  1521 0001:0000E487  1522 0001:0000E48A  1523 0001:0000E49B  1524 0001:0000E4A7
  1525 0001:0000E4B4  1526 0001:0000E4BE  1528 0001:0000E4CF  1534 0001:0000E4D8
  1535 0001:0000E4E4  1536 0001:0000E4F0  1537 0001:0000E4F7  1539 0001:0000E515
  1540 0001:0000E522  1541 0001:0000E532  1562 0001:0000E538  1563 0001:0000E53F
  1564 0001:0000E54F  1565 0001:0000E551  1567 0001:0000E563  1568 0001:0000E567
  1569 0001:0000E56B  1570 0001:0000E56D  1571 0001:0000E56F  1572 0001:0000E570
  1565 0001:0000E571  1573 0001:0000E574  1581 0001:0000E578  1582 0001:0000E59E
  1583 0001:0000E5A6  1585 0001:0000E5A8  1588 0001:0000E5B4  1589 0001:0000E5B5
  1590 0001:0000E5D0  1594 0001:0000E5D5  1595 0001:0000E5D6  1596 0001:0000E5DE
  1599 0001:0000E5DF  1600 0001:0000E5E1  1602 0001:0000E5E3  1604 0001:0000E5F7
  1607 0001:0000E5FD  1608 0001:0000E606  1609 0001:0000E607  1613 0001:0000E613
  1614 0001:0000E61C  1615 0001:0000E61D  1619 0001:0000E629  1620 0001:0000E632
  1623 0001:0000E633  1627 0001:0000E659  1629 0001:0000E65D  1631 0001:0000E661
  1633 0001:0000E665  1635 0001:0000E667  1636 0001:0000E66E  1637 0001:0000E66F
  1638 0001:0000E670  1639 0001:0000E67C  1640 0001:0000E684  1641 0001:0000E6B7
  1646 0001:0000E6C0  1647 0001:0000E6D5  1648 0001:0000E6DA  1649 0001:0000E6DF
  1650 0001:0000E6E4  1651 0001:0000E6E9  1652 0001:0000E6EF  1653 0001:0000E6F2
  1654 0001:0000E710  1661 0001:0000E718  1662 0001:0000E721  1664 0001:0000E72B
  1665 0001:0000E72D  1666 0001:0000E733  1667 0001:0000E735  1668 0001:0000E737
  1671 0001:0000E74C  1672 0001:0000E754  1673 0001:0000E761  1674 0001:0000E765
  1676 0001:0000E769  1677 0001:0000E76E  1679 0001:0000E775  1680 0001:0000E783
  1681 0001:0000E788  1683 0001:0000E795  1684 0001:0000E79F  1685 0001:0000E7A3
  1669 0001:0000E7A4  1687 0001:0000E7B5  1688 0001:0000E7BA  1690 0001:0000E7C7
  1697 0001:0000E7D0  1698 0001:0000E7D8  1700 0001:0000E7E2  1701 0001:0000E7E8
  1702 0001:0000E7EE  1703 0001:0000E7F4  1704 0001:0000E7F6  1705 0001:0000E7F8
  1708 0001:0000E810  1709 0001:0000E818  1710 0001:0000E825  1711 0001:0000E82D
  1712 0001:0000E83A  1713 0001:0000E842  1715 0001:0000E846  1716 0001:0000E84B
  1718 0001:0000E852  1719 0001:0000E860  1720 0001:0000E865  1722 0001:0000E875
  1723 0001:0000E882  1724 0001:0000E88A  1725 0001:0000E892  1706 0001:0000E893
  1727 0001:0000E8A8  1728 0001:0000E8AD  1730 0001:0000E8BD  1737 0001:0000E8C4
  1738 0001:0000E8CA  1739 0001:0000E8D0  1740 0001:0000E8D2  1743 0001:0000E91C
  1745 0001:0000E928  1746 0001:0000E92D  1747 0001:0000E936  1749 0001:0000E93A
  1750 0001:0000E93C  1747 0001:0000E93F  1752 0001:0000E943  1753 0001:0000E94F
  1755 0001:0000E958  1760 0001:0000E960  1761 0001:0000E964  1762 0001:0000E968
  1765 0001:0000E972  1766 0001:0000E981  1768 0001:0000E98A  1771 0001:0000E990
  1772 0001:0000E996  1773 0001:0000E9A8  1780 0001:0000E9AC  1781 0001:0000E9BA
  1782 0001:0000E9C7  1783 0001:0000E9C9  1784 0001:0000E9D0  1786 0001:0000E9D6
  1787 0001:0000E9DD  1788 0001:0000E9EE  1790 0001:0000E9FC  1792 0001:0000EA06
  1793 0001:0000EA11  1795 0001:0000EA18  1796 0001:0000EA1A  1787 0001:0000EA1E
  1800 0001:0000EA27  1801 0001:0000EA3B  1802 0001:0000EA3D  1805 0001:0000EA45
  1806 0001:0000EA49  1808 0001:0000EA4D  1810 0001:0000EA57  1811 0001:0000EA59
  1813 0001:0000EA60  1817 0001:0000EA62  1818 0001:0000EA66  1819 0001:0000EA75
  1820 0001:0000EA79  1803 0001:0000EA82  1824 0001:0000EA95  1825 0001:0000EA97
  1829 0001:0000EAA0  1830 0001:0000EAA8  1837 0001:0000EAAC  1838 0001:0000EABA
  1839 0001:0000EACE  1840 0001:0000EAD0  1843 0001:0000EAD4  1844 0001:0000EAD8
  1848 0001:0000EADC  1849 0001:0000EAEB  1841 0001:0000EAEF  1852 0001:0000EB02
  1853 0001:0000EB0E  1860 0001:0000EB18  1861 0001:0000EB23  1862 0001:0000EB37
  1863 0001:0000EB39  1866 0001:0000EB3E  1867 0001:0000EB41  1871 0001:0000EB45
  1872 0001:0000EB52  1864 0001:0000EB54  1875 0001:0000EB65  1876 0001:0000EB67
  1883 0001:0000EB70  1884 0001:0000EB93  1885 0001:0000EB9F  1886 0001:0000EBA4
  1887 0001:0000EBA9  1888 0001:0000EBB0  1890 0001:0000EBB6  1891 0001:0000EBBD
  1892 0001:0000EBCD  1894 0001:0000EBDD  1896 0001:0000EBE6  1897 0001:0000EBF0
  1898 0001:0000EBFA  1900 0001:0000EC0B  1901 0001:0000EC10  1891 0001:0000EC13
  1905 0001:0000EC1E  1906 0001:0000EC31  1907 0001:0000EC33  1910 0001:0000EC3A
  1911 0001:0000EC3D  1913 0001:0000EC41  1915 0001:0000EC49  1916 0001:0000EC4E
  1917 0001:0000EC53  1919 0001:0000EC5A  1923 0001:0000EC5C  1924 0001:0000EC5F
  1925 0001:0000EC6C  1926 0001:0000EC72  1927 0001:0000EC7F  1928 0001:0000EC85
  1908 0001:0000EC8E  1932 0001:0000EC9F  1934 0001:0000ECA5  1935 0001:0000ECB2
  1936 0001:0000ECB8  1939 0001:0000ECE1  1940 0001:0000ED06  1947 0001:0000ED1C
  1948 0001:0000ED22  1949 0001:0000ED24  1951 0001:0000ED26  1952 0001:0000ED2A
  1953 0001:0000ED2C  1954 0001:0000ED3F  1955 0001:0000ED42  1956 0001:0000ED46
  1957 0001:0000ED48  1958 0001:0000ED51  1965 0001:0000ED58  1966 0001:0000ED68
  1967 0001:0000ED76  1968 0001:0000ED8A  1969 0001:0000ED8C  1970 0001:0000ED8E
  1973 0001:0000ED92  1974 0001:0000ED96  1976 0001:0000ED9B  1977 0001:0000EDA1
  1978 0001:0000EDA3  1982 0001:0000EDA5  1983 0001:0000EDA7  1984 0001:0000EDB6
  1971 0001:0000EDBA  1987 0001:0000EDCD  1988 0001:0000EDDA  1993 0001:0000EDE4
  1994 0001:0000EDF6  1995 0001:0000EDF9  1996 0001:0000EE16  2001 0001:0000EE1C
  2002 0001:0000EE28  2003 0001:0000EE4F  2004 0001:0000EE56  2008 0001:0000EE60
  2009 0001:0000EE6B  2014 0001:0000EE6C  2015 0001:0000EE77  2016 0001:0000EE7F
  2017 0001:0000EE84  2018 0001:0000EE9B  2025 0001:0000EEA0  2026 0001:0000EECA
  2027 0001:0000EED7  2029 0001:0000EEDD  2030 0001:0000EEF4  2031 0001:0000EEFC
  2033 0001:0000EF02  2034 0001:0000EF07  2035 0001:0000EF22  2036 0001:0000EF31
  2037 0001:0000EF48  2038 0001:0000EF4E  2039 0001:0000EF51  2042 0001:0000EF8A
  2047 0001:0000EF94  2048 0001:0000EFAD  2049 0001:0000EFC7  2050 0001:0000EFD1
  2051 0001:0000EFD5  2052 0001:0000EFE9  2053 0001:0000F012  2057 0001:0000F028
  2058 0001:0000F02F  2063 0001:0000F030  2064 0001:0000F03B  2065 0001:0000F043
  2066 0001:0000F048  2067 0001:0000F050  2068 0001:0000F055  2069 0001:0000F06C
  2076 0001:0000F070  2077 0001:0000F09A  2078 0001:0000F0A7  2080 0001:0000F0AD
  2081 0001:0000F0C4  2082 0001:0000F0CC  2084 0001:0000F0D2  2085 0001:0000F0D7
  2086 0001:0000F0F2  2087 0001:0000F101  2088 0001:0000F118  2089 0001:0000F11E
  2090 0001:0000F121  2093 0001:0000F15A  2101 0001:0000F164  2102 0001:0000F168
  2104 0001:0000F16B  2106 0001:0000F176  2114 0001:0000F178  2115 0001:0000F185
  2116 0001:0000F18A  2118 0001:0000F18E  2119 0001:0000F197  2120 0001:0000F1A0
  2121 0001:0000F1A2  2122 0001:0000F1AA  2124 0001:0000F1BC  2125 0001:0000F1BF
  2128 0001:0000F1C1  2121 0001:0000F1C4  2130 0001:0000F1CA  2156 0001:0000F1D4
  2157 0001:0000F1D8  2158 0001:0000F1DA  2160 0001:0000F1E6  2163 0001:0000F1F5
  2164 0001:0000F1FA  2166 0001:0000F211  2167 0001:0000F215  2174 0001:0000F218
  2175 0001:0000F21E  2176 0001:0000F225  2178 0001:0000F22E  2179 0001:0000F239
  2180 0001:0000F24B  2183 0001:0000F250  2184 0001:0000F26A  2185 0001:0000F281
  2186 0001:0000F285  2189 0001:0000F297  2190 0001:0000F2B1  2191 0001:0000F2BB
  2193 0001:0000F2BF  2194 0001:0000F2D0  2197 0001:0000F2DA  2198 0001:0000F2DE
  2200 0001:0000F2F4  2201 0001:0000F31D  2205 0001:0000F348  2206 0001:0000F35A
  2211 0001:0000F35C  2212 0001:0000F367  2213 0001:0000F36F  2214 0001:0000F374
  2215 0001:0000F38B  2222 0001:0000F390  2223 0001:0000F3B9  2224 0001:0000F3C5
  2225 0001:0000F3E0  2226 0001:0000F3E8  2229 0001:0000F3EE  2230 0001:0000F3F3
  2231 0001:0000F412  2232 0001:0000F425  2233 0001:0000F440  2234 0001:0000F443
  2235 0001:0000F446  2237 0001:0000F483  2240 0001:0000F48C  2241 0001:0000F494
  2243 0001:0000F49B  2244 0001:0000F4AE  2245 0001:0000F4BC  2247 0001:0000F4CE
  2252 0001:0000F4D7  2253 0001:0000F4DC  2255 0001:0000F4E0  2259 0001:0000F4E8
  2261 0001:0000F503  2271 0001:0000F504  2272 0001:0000F51C  2273 0001:0000F525
  2274 0001:0000F548  2279 0001:0000F550  2280 0001:0000F565  2281 0001:0000F57D
  2282 0001:0000F586  2283 0001:0000F58C  2284 0001:0000F592  2285 0001:0000F5B0
  2288 0001:0000F608  2289 0001:0000F611  2290 0001:0000F62E  2291 0001:0000F647
  2296 0001:0000F6A0  2297 0001:0000F6B8  2298 0001:0000F6C1  2299 0001:0000F6C4
  2300 0001:0000F6E1  2311 0001:0000F6E8  2312 0001:0000F706  2313 0001:0000F720
  2314 0001:0000F72A  2315 0001:0000F736  2316 0001:0000F748  2318 0001:0000F75E
  2319 0001:0000F76B  2320 0001:0000F777  2322 0001:0000F7A1  2319 0001:0000F7A2
  2323 0001:0000F7A5  2316 0001:0000F7A8  2325 0001:0000F7AD  2326 0001:0000F7C0
  2327 0001:0000F7E7  2330 0001:0000F844  2331 0001:0000F84F  2332 0001:0000F857
  2333 0001:0000F85C  2334 0001:0000F873  2337 0001:0000F878  2338 0001:0000F87E
  2339 0001:0000F888  2343 0001:0000F88C  2344 0001:0000F892  2347 0001:0000F894
  2348 0001:0000F89D  2349 0001:0000F8BA  2350 0001:0000F8C9  2355 0001:0000F924
  2356 0001:0000F934  2357 0001:0000F945  2359 0001:0000F950  2361 0001:0000F958
  2362 0001:0000F95D  2363 0001:0000F96C  2366 0001:0000F96E  2368 0001:0000F98C
  2369 0001:0000F991  2370 0001:0000F9A1  2372 0001:0000F9A3  2356 0001:0000F9A4
  2373 0001:0000F9A7  2374 0001:0000F9AC  2375 0001:0000F9B8  2380 0001:0000F9C0
  2381 0001:0000F9D5  2382 0001:0000F9ED  2383 0001:0000F9F6  2384 0001:0000FA15
  2389 0001:0000FA70  2390 0001:0000FA89  2391 0001:0000FAA1  2392 0001:0000FAAC
  2394 0001:0000FAAE  2395 0001:0000FAB4  2396 0001:0000FABA  2398 0001:0000FAD9
  2403 0001:0000FB34  2404 0001:0000FB4D  2405 0001:0000FB65  2406 0001:0000FB70
  2408 0001:0000FB72  2409 0001:0000FB78  2411 0001:0000FB97  2416 0001:0000FBF0
  2417 0001:0000FC09  2418 0001:0000FC21  2419 0001:0000FC2C  2421 0001:0000FC2E
  2422 0001:0000FC34  2423 0001:0000FC3A  2425 0001:0000FC59  2430 0001:0000FCB4
  2431 0001:0000FCCD  2432 0001:0000FCE5  2433 0001:0000FCF0  2435 0001:0000FCF2
  2436 0001:0000FCF8  2437 0001:0000FCFE  2439 0001:0000FD1D  2444 0001:0000FD78
  2445 0001:0000FD91  2446 0001:0000FDA9  2447 0001:0000FDB4  2449 0001:0000FDB6
  2450 0001:0000FDBC  2452 0001:0000FDDB  2457 0001:0000FE34  2458 0001:0000FE4D
  2459 0001:0000FE65  2460 0001:0000FE70  2462 0001:0000FE72  2463 0001:0000FE78
  2464 0001:0000FE7E  2466 0001:0000FE9D  2471 0001:0000FEF8  2472 0001:0000FF11
  2473 0001:0000FF29  2474 0001:0000FF34  2476 0001:0000FF36  2477 0001:0000FF3C
  2478 0001:0000FF42  2480 0001:0000FF63  2485 0001:0000FFBC  2486 0001:0000FFD5
  2487 0001:0000FFED  2488 0001:0000FFF8  2490 0001:0000FFFA  2491 0001:00010000
  2492 0001:00010006  2494 0001:00010025  2499 0001:00010080  2500 0001:00010099
  2501 0001:000100B1  2502 0001:000100BA  2503 0001:000100C9  2504 0001:000100D8
  2505 0001:000100E7  2506 0001:000100F6  2507 0001:00010100  2508 0001:00010105
  2509 0001:0001010B  2510 0001:00010120  2511 0001:00010126  2512 0001:00010146
  2515 0001:000101A0  2516 0001:000101AB  2517 0001:000101B3  2518 0001:000101B8
  2519 0001:000101C0  2520 0001:000101C5  2521 0001:000101CD  2522 0001:000101D2
  2523 0001:000101DA  2524 0001:000101DF  2525 0001:000101F6  2532 0001:000101FC
  2533 0001:00010204  2536 0001:0001021B  2537 0001:0001023C  2538 0001:00010250
  2540 0001:0001025E  2541 0001:00010268  2543 0001:00010286  2545 0001:00010294
  2547 0001:000102A2  2549 0001:000102B0  2551 0001:000102BB  2537 0001:000102BE
  2552 0001:000102C1  2553 0001:000102CC  2534 0001:000102D9  2557 0001:000102DE
  2563 0001:00010338  2564 0001:0001033E  2565 0001:00010340  2566 0001:00010345
  2569 0001:0001034D  2570 0001:00010350  2572 0001:00010351  2574 0001:0001035B
  2566 0001:0001035E  2576 0001:00010361  2593 0001:00010368  2594 0001:00010377
  2595 0001:0001037C  2597 0001:00010386  2598 0001:0001038A  2600 0001:00010403
  2602 0001:00010416  2604 0001:00010429  2606 0001:0001043C  2608 0001:0001044C
  2610 0001:0001045C  2612 0001:0001046C  2614 0001:0001047C  2616 0001:0001048C
  2618 0001:0001049C  2620 0001:000104AC  2622 0001:000104BC  2624 0001:000104BE
  2625 0001:000104C2  2626 0001:000104CE  2595 0001:000104D6  2628 0001:000104E0
  2631 0001:000104E8  2632 0001:000104EE  2633 0001:00010506  2639 0001:0001050C
  2640 0001:00010516  2642 0001:00010521  2643 0001:00010527  2644 0001:0001052D
  2645 0001:00010549  2640 0001:0001054A  2646 0001:0001054D  2649 0001:00010554
  2650 0001:0001055A  2651 0001:00010564  2655 0001:00010568  2656 0001:0001056E
  2659 0001:00010570  2660 0001:00010579  2661 0001:0001058C  2665 0001:00010590
  2666 0001:00010596  2669 0001:00010598  2670 0001:0001059E  2671 0001:000105A8
  2675 0001:000105AC  2676 0001:000105B2  2679 0001:000105B4  2680 0001:000105BA
  2681 0001:000105C4  2685 0001:000105C8  2686 0001:000105CE  2692 0001:000105D0
  2693 0001:000105E0  2694 0001:000105ED  2695 0001:00010607  2696 0001:00010615
  2698 0001:00010620  2700 0001:0001062C  2702 0001:00010650  2703 0001:00010652
  2704 0001:00010664  2707 0001:00010666  2696 0001:00010667  2707 0001:0001066A
  2694 0001:0001066E  2708 0001:00010674  2709 0001:00010676  2710 0001:00010680
  2716 0001:00010688  2717 0001:00010698  2718 0001:000106A1  2719 0001:000106BB
  2720 0001:000106C9  2721 0001:000106D4  2722 0001:000106E1  2724 0001:000106ED
  2725 0001:000106EF  2726 0001:00010701  2727 0001:00010703  2720 0001:00010704
  2727 0001:00010707  2718 0001:0001070B  2728 0001:00010711  2729 0001:00010713
  2730 0001:0001071D  2735 0001:00010728  2736 0001:00010734  2737 0001:0001073A
  2738 0001:0001074B  2739 0001:00010765  2740 0001:00010779  2742 0001:00010788
  2743 0001:00010796  2744 0001:00010798  2745 0001:0001079A  2737 0001:0001079B
  2746 0001:0001079E  2747 0001:000107A0  2748 0001:000107A7  2755 0001:000107B0
  2756 0001:000107BD  2757 0001:000107DC  2758 0001:000107DE  2759 0001:000107E0
  2761 0001:000107E5  2762 0001:000107F6  2764 0001:00010809  2765 0001:00010819
  2768 0001:00010826  2772 0001:00010884  2774 0001:00010899  2778 0001:0001089C
  2779 0001:000108A1  2787 0001:000108A4  2788 0001:000108B0  2790 0001:000108D1
  2791 0001:000108D8  2795 0001:000108E3  2796 0001:000108E5  2798 0001:000108E9
  2803 0001:000108F0  2804 0001:000108FA  2805 0001:00010909  2807 0001:0001091A
  2808 0001:00010921  2823 0001:00010928  2824 0001:00010950  2825 0001:0001095A
  2826 0001:00010964  2827 0001:0001096E  2830 0001:00010977  2831 0001:00010984
  2833 0001:00010988  2834 0001:00010992  2836 0001:00010994  2837 0001:000109BC
  2838 0001:000109D8  2828 0001:000109F5  2840 0001:00010A21  2842 0001:00010A2C
  2843 0001:00010A4E  2844 0001:00010A57  2846 0001:00010A6B  2849 0001:00010A7C
  2850 0001:00010A8A  2852 0001:00010A8E  2853 0001:00010A9D  2857 0001:00010AAF
  2860 0001:00010ACE  2865 0001:00010AED  2867 0001:00010B49  2869 0001:00010B8C
  2870 0001:00010BAC  2872 0001:00010BBC  2873 0001:00010BC8  2874 0001:00010BE6
  2878 0001:00010BF0  2879 0001:00010BF8  2881 0001:00010C1E  2886 0001:00010C28
  2887 0001:00010C32  2888 0001:00010C41  2889 0001:00010C50  2894 0001:00010C58
  2895 0001:00010C6F  2896 0001:00010C74  2897 0001:00010C8A  2898 0001:00010CAA
  2901 0001:00010CB0  2902 0001:00010CBB  2903 0001:00010CD2  2906 0001:00010CD8
  2907 0001:00010CDC  2908 0001:00010CEB  2909 0001:00010CEF  2910 0001:00010CFC
  2912 0001:00010D02  2913 0001:00010D16  2915 0001:00010D23  2919 0001:00010D28
  2920 0001:00010D2D  2923 0001:00010D30  2924 0001:00010D33  2925 0001:00010D37
  2926 0001:00010D3F  2927 0001:00010D44  2928 0001:00010D4C  2929 0001:00010D51
  2959 0001:00010D54  2960 0001:00010D57  2962 0001:00010D58  2963 0001:00010D62
  2964 0001:00010D6E  2965 0001:00010D79  2966 0001:00010D7D  2967 0001:00010D85
  2969 0001:00010D8E  2971 0001:00010D98  2974 0001:00010DA7  2975 0001:00010DAB
  2976 0001:00010DB6  2977 0001:00010DBD  2978 0001:00010DD3  2980 0001:00010DDA
  2981 0001:00010DF4  2984 0001:00010DF6  2969 0001:00010DF7  2987 0001:00010DFA
  2988 0001:00010DFF  2989 0001:00010E11  2990 0001:00010E1C  3000 0001:00010E24
  3001 0001:00010E33  3002 0001:00010E5D  3003 0001:00010E64  3005 0001:00010E6C
  3006 0001:00010E8A  3007 0001:00010E8C  3008 0001:00010E90  3009 0001:00010EAB
  3011 0001:00010EB7  3012 0001:00010EC6  3013 0001:00010ED4  3014 0001:00010EDF
  3015 0001:00010EFA  3016 0001:00010EFE  3018 0001:00010F05  3020 0001:00010F1C
  3021 0001:00010F24  3024 0001:00010F55  3027 0001:00010F6C  3028 0001:00010F73
  3029 0001:00010F75  3031 0001:00010F7A  3032 0001:00010F8A  3033 0001:00010F93
  3034 0001:00010F97  3036 0001:00010F9E  3037 0001:00010FAE  3038 0001:00010FB7
  3039 0001:00010FBB  3041 0001:00010FC2  3042 0001:00010FD2  3043 0001:00010FDB
  3044 0001:00010FDF  3046 0001:00010FE6  3047 0001:00010FEC  3050 0001:00010FF0
  3051 0001:00010FFB  3052 0001:00011007  3053 0001:00011013  3054 0001:0001102A
  3056 0001:000110CC  3056 0001:000110D3

Line numbers for EHook(EHook.pas) segment .text

   175 0001:0001136C   176 0001:0001137E   177 0001:00011387   178 0001:000113A7
   181 0001:000113AC   182 0001:000113B2   183 0001:000113BB   187 0001:000113C0
   188 0001:000113C9   192 0001:000113CC   193 0001:000113D5   199 0001:000113D8
   200 0001:000113DE   202 0001:000113E7   203 0001:000113F1   204 0001:000113FA
   209 0001:00011400   210 0001:00011418   211 0001:00011420   212 0001:0001142E
   213 0001:00011439   212 0001:00011457   215 0001:00011467   217 0001:00011477
   218 0001:00011483   219 0001:0001149F   225 0001:000114A8   226 0001:000114AF
   232 0001:000114B0   233 0001:000114B5   234 0001:000114BC   235 0001:000114C7
   236 0001:000114D2   237 0001:000114D4   238 0001:000114E2   239 0001:000114F0
   245 0001:000114F4   246 0001:00011504   247 0001:00011509   249 0001:00011516
   250 0001:00011520   251 0001:0001152E   252 0001:0001153B   254 0001:00011540
   256 0001:00011550   259 0001:00011574   260 0001:00011586   262 0001:00011588
   254 0001:00011589   266 0001:0001158E   267 0001:0001159A   268 0001:000115A4
   269 0001:000115A6   270 0001:000115AC   271 0001:000115B2   274 0001:000115CB
   277 0001:000115E0   282 0001:000115E8   283 0001:000115F6   284 0001:000115FA
   286 0001:00011607   287 0001:00011611   288 0001:0001161F   290 0001:0001162F
   293 0001:00011653   294 0001:0001166C   295 0001:00011678   296 0001:0001167C
   298 0001:0001167E   288 0001:0001167F   300 0001:0001168F   303 0001:000116A4
   310 0001:000116AC   311 0001:000116B6   312 0001:000116C0   313 0001:000116CB
   314 0001:000116D8   315 0001:000116E5   320 0001:000116EC   321 0001:000116EF
   322 0001:000116F3   323 0001:000116FC   324 0001:00011708   329 0001:0001170C
   330 0001:00011715   331 0001:00011725   332 0001:00011733   339 0001:0001173C
   340 0001:0001173F   341 0001:00011741   342 0001:0001174C   345 0001:00011750
   346 0001:00011753   347 0001:00011755   348 0001:00011765   350 0001:00011768
   351 0001:00011785   352 0001:00011787   353 0001:00011794   354 0001:0001179D
   355 0001:000117A3   357 0001:000117B3   358 0001:000117B5   360 0001:000117C6
   363 0001:000117D1   364 0001:000117D3   367 0001:000117DC   368 0001:000117DE
   370 0001:000117E7   373 0001:000117EB   375 0001:000117FB   376 0001:000117FD
   378 0001:00011808   379 0001:0001180C   380 0001:00011810   383 0001:00011812
   385 0001:00011818   387 0001:00011836   389 0001:00011850   391 0001:0001185F
   394 0001:00011876   395 0001:0001188E   402 0001:000118A4   403 0001:000118AF
   404 0001:000118B2   405 0001:000118C4   407 0001:000118C6   408 0001:000118C8
   409 0001:00011902   410 0001:00011903   411 0001:00011913   412 0001:0001191E
   414 0001:00011923   415 0001:00011928   416 0001:0001192A   417 0001:0001192B
   418 0001:0001192D   422 0001:00011931   423 0001:00011936   424 0001:00011938
   426 0001:0001193A   427 0001:0001194D   428 0001:00011953   430 0001:00011959
   432 0001:0001195D   433 0001:00011963   435 0001:00011974   436 0001:00011977
   441 0001:00011983   442 0001:00011989   443 0001:0001198A   445 0001:000119A8
   447 0001:000119B1   454 0001:000119DC   455 0001:000119E5   457 0001:000119EC
   459 0001:000119F0   460 0001:000119F5   463 0001:000119FA   464 0001:00011A08
   465 0001:00011A0A   466 0001:00011A0E   467 0001:00011A10   469 0001:00011A14
   472 0001:00011A24   474 0001:00011A39   475 0001:00011A3B   477 0001:00011A49
   478 0001:00011A53   481 0001:00011A5D   482 0001:00011A61   483 0001:00011A68
   467 0001:00011A6F   486 0001:00011A82   488 0001:00011A8F   496 0001:00011A98
   497 0001:00011AA1   498 0001:00011AA3   499 0001:00011AA7   500 0001:00011AAD
   501 0001:00011AB3   504 0001:00011AB7   507 0001:00011AC8   509 0001:00011ADD
   510 0001:00011ADF   512 0001:00011AED   513 0001:00011AF3   514 0001:00011AF7
   517 0001:00011B0A   518 0001:00011B0F   519 0001:00011B17   502 0001:00011B1F
   521 0001:00011B29   529 0001:00011B34   530 0001:00011B3E   531 0001:00011B42
   532 0001:00011B44   533 0001:00011B48   534 0001:00011B50   535 0001:00011B55
   536 0001:00011B57   538 0001:00011B60   541 0001:00011B75   544 0001:00011B8A
   545 0001:00011B8C   547 0001:00011B90   548 0001:00011B91   549 0001:00011B93
   550 0001:00011B97   552 0001:00011B9E   555 0001:00011BA3   557 0001:00011BBB
   558 0001:00011BC5   561 0001:00011BCC   563 0001:00011BDD   564 0001:00011BEF
   565 0001:00011BF8   566 0001:00011C03   567 0001:00011C14   571 0001:00011C19
   574 0001:00011C46   575 0001:00011C4F   578 0001:00011C56   580 0001:00011C63
   581 0001:00011C74   582 0001:00011C7C   586 0001:00011C8F   587 0001:00011C94
   588 0001:00011C9C   536 0001:00011CA4   590 0001:00011CAD   599 0001:00011CB8
   600 0001:00011CCA   602 0001:00011CDA   603 0001:00011CE8   605 0001:00011CEF
   606 0001:00011CF2   608 0001:00011CF7   600 0001:00011CF8   610 0001:00011CFB
   611 0001:00011CFE   612 0001:00011D00   614 0001:00011D02   615 0001:00011D13
   616 0001:00011D1A   617 0001:00011D21   618 0001:00011D26   619 0001:00011D36
   622 0001:00011D41   623 0001:00011D4D   624 0001:00011D52   625 0001:00011D55
   626 0001:00011D5C   627 0001:00011D5F   628 0001:00011D69   629 0001:00011D75
   632 0001:00011D81   635 0001:00011D93   637 0001:00011D9E   639 0001:00011DA9
   640 0001:00011DB4   642 0001:00011DBF   643 0001:00011DC1   646 0001:00011DCC
   647 0001:00011DF7   648 0001:00011E00   650 0001:00011E09   651 0001:00011E0D
   653 0001:00011E35   655 0001:00011E47   658 0001:00011E7C   659 0001:00011E8A
   661 0001:00011EA4   663 0001:00011EF6   669 0001:00011F64   670 0001:00011F6A
   671 0001:00011F6E   674 0001:00011F72   675 0001:00011F80   677 0001:00011F86
   678 0001:00011F91   679 0001:00011F9C   680 0001:00011FA7   681 0001:00011FAE
   682 0001:00011FBA   684 0001:00011FBE   672 0001:00011FBF   686 0001:00011FCF
   704 0001:00011FD4   705 0001:00011FE4   709 0001:00011FE8   710 0001:00011FEC
   711 0001:00011FEE   713 0001:00011FFE   716 0001:0001200D   717 0001:00012012
   718 0001:0001202A   719 0001:0001202E   722 0001:00012034   723 0001:0001203A
   724 0001:00012043   725 0001:0001206C   727 0001:0001208C   728 0001:000120C1
   730 0001:000120C6   731 0001:000120CC   733 0001:000120F2   735 0001:00012105
   737 0001:00012136   738 0001:0001213C   739 0001:00012142   740 0001:00012161
   741 0001:00012169   743 0001:0001216D   744 0001:00012174   747 0001:00012179
   748 0001:0001218B   750 0001:00012192   751 0001:00012199   754 0001:0001219E
   757 0001:000121A8   758 0001:000121AD   760 0001:000121C6   763 0001:000121D1
   765 0001:000121D7   766 0001:000121D9   770 0001:000121F7   771 0001:000121FF
   773 0001:00012203   774 0001:00012212   776 0001:00012218   777 0001:0001222A
   778 0001:00012230   779 0001:00012236   780 0001:0001223B   781 0001:00012246
   783 0001:00012252   785 0001:00012258   761 0001:0001225B   788 0001:00012264
   755 0001:00012267   791 0001:00012272   792 0001:0001227E   793 0001:000122D4
   802 0001:00012344   803 0001:0001239A   804 0001:0001239E   806 0001:000123BE
   808 0001:000123C9   809 0001:000123D8   811 0001:000123DC   813 0001:0001240F
   815 0001:00012422   806 0001:00012425   817 0001:00012428   818 0001:00012472
   824 0001:00012490   825 0001:000124CB   827 0001:000124EA   829 0001:0001254C
   835 0001:00012560   836 0001:00012571   837 0001:00012582   838 0001:00012593
   845 0001:00012594   846 0001:0001259D   848 0001:000125AB   849 0001:000125B7
   850 0001:000125CE   851 0001:000125DB   846 0001:000125DC   852 0001:000125DF
   853 0001:000125E7   854 0001:000125EC   855 0001:000125F6   856 0001:000125FD
   858 0001:0001260B   859 0001:00012617   860 0001:0001261E   856 0001:0001261F
   861 0001:00012624   862 0001:0001262E   863 0001:00012635   871 0001:0001263C
   873 0001:00012679   867 0001:00012690   868 0001:00012699   870 0001:000126A8

Line numbers for ELang(ELang.pas) segment .text

    25 0001:000126C0    32 0001:000126C8    33 0001:000126E2    34 0001:000126FF
    35 0001:00012714    36 0001:00012735    37 0001:00012741    38 0001:00012763
    67 0001:000127A0    67 0001:000127A7

Line numbers for ESockets(ESockets.pas) segment .text

    79 0001:00012A38    80 0001:00012A3E    81 0001:00012A40    83 0001:00012A49
    84 0001:00012A59    85 0001:00012A60    89 0001:00012A68    90 0001:00012A72
    91 0001:00012A79    99 0001:00012A7C   100 0001:00012A82   101 0001:00012A91
   102 0001:00012AA1   104 0001:00012AA5   106 0001:00012AA7   107 0001:00012AB2
   108 0001:00012AB9   109 0001:00012AC0   112 0001:00012AC7   113 0001:00012AD1
   118 0001:00012AD8   119 0001:00012AF4   120 0001:00012B04   121 0001:00012B13
   122 0001:00012B35   123 0001:00012B4B   124 0001:00012B67   125 0001:00012B89
   129 0001:00012BB4   130 0001:00012BCC   131 0001:00012BD5   132 0001:00012BDD
   133 0001:00012BE3   134 0001:00012BE8   135 0001:00012BEE   136 0001:00012BF8
   137 0001:00012C00   138 0001:00012C16   139 0001:00012C1C   140 0001:00012C20
   141 0001:00012C3B   144 0001:00012C44   145 0001:00012C4F   146 0001:00012C5C
   147 0001:00012C73   150 0001:00012C78   151 0001:00012C94   152 0001:00012CA1
   153 0001:00012CC9   154 0001:00012CD0   155 0001:00012CD6   156 0001:00012CDB
   157 0001:00012CE1   158 0001:00012CE5   159 0001:00012D0A   164 0001:00012D38
   165 0001:00012D5B   167 0001:00012D65   169 0001:00012D6A   170 0001:00012D7C
   171 0001:00012D7F   172 0001:00012DA7   173 0001:00012DAD   174 0001:00012DBA
   176 0001:00012DC8   177 0001:00012DD7   178 0001:00012DDC   179 0001:00012DEE
   180 0001:00012E01   181 0001:00012E29   182 0001:00012E33   187 0001:00012EB1
   192 0001:00012F24   193 0001:00012F45   194 0001:00012F47   196 0001:00012F4D
   197 0001:00012F5F   199 0001:00012F64   200 0001:00012F6B   202 0001:00012F73
   203 0001:00012F7A   204 0001:00012F7E   207 0001:00012FC2   213 0001:00012FEC
   214 0001:0001300E   215 0001:00013013   217 0001:00013018   218 0001:00013025
   219 0001:00013032   221 0001:00013036   222 0001:00013046   223 0001:00013056
   224 0001:00013058   226 0001:00013079   227 0001:0001309D   232 0001:000130A4
   233 0001:000130C6   234 0001:000130CB   235 0001:000130D6   238 0001:000130EA
   239 0001:000130F0   240 0001:00013100   242 0001:00013106   243 0001:0001310D
   245 0001:00013115   246 0001:0001311C   247 0001:00013120   251 0001:00013165
   257 0001:0001318C   258 0001:000131AD   260 0001:000131B5   261 0001:000131C3
   263 0001:000131C7   264 0001:000131D1   265 0001:000131EF   266 0001:000131FD
   267 0001:00013208   269 0001:0001320F   270 0001:0001321D   271 0001:00013224
   273 0001:00013236   274 0001:0001325B   279 0001:00013264   280 0001:0001326B
   282 0001:00013272   283 0001:0001327B   284 0001:00013287   285 0001:00013298
   288 0001:0001329C   289 0001:000132A5   290 0001:000132AE   291 0001:000132D0
   296 0001:000132F0   297 0001:000132F6   298 0001:000132FD   299 0001:0001332D
   306 0001:00013334   307 0001:0001336F   308 0001:00013373   309 0001:0001337D
   310 0001:00013384   311 0001:0001339E   313 0001:000133A3   314 0001:000133C1
   315 0001:000133CB   317 0001:000133D2   318 0001:000133D6   319 0001:000133D8
   314 0001:000133DB   321 0001:00013403   325 0001:00013410   326 0001:00013451
   327 0001:00013453   329 0001:0001345D   330 0001:00013488   331 0001:00013495
   333 0001:000134AD   334 0001:000134B8   336 0001:000134C6   337 0001:00013506
   366 0001:00013524   367 0001:0001353A   368 0001:00013575   371 0001:0001358C
   372 0001:00013592   373 0001:000135AA   375 0001:000135B0   376 0001:000135CD
   377 0001:000135DC   378 0001:000135E1   379 0001:000135EE   380 0001:000135F8
   381 0001:00013606   382 0001:00013616   384 0001:0001361E   385 0001:00013626
   387 0001:0001362F   388 0001:0001363A   389 0001:00013648   390 0001:00013652
   391 0001:00013656   393 0001:00013659   394 0001:00013676   395 0001:0001367C
   397 0001:00013680   398 0001:0001369A   395 0001:0001369C   402 0001:000136AD
   407 0001:000136CA   409 0001:000136DB   410 0001:0001370C   414 0001:00013750
   415 0001:0001376A   421 0001:0001376C   422 0001:00013798   423 0001:000137A0
   424 0001:000137AB   426 0001:000137B0   429 0001:000137BC   430 0001:000137C8
   431 0001:000137CD   432 0001:000137E2   427 0001:000137EC   434 0001:000137FA
   436 0001:0001380A   437 0001:00013812   439 0001:00013817   440 0001:00013842
   441 0001:00013845   442 0001:00013861   443 0001:00013890   444 0001:0001389B
   445 0001:000138C2   453 0001:000138D8   454 0001:000138FE   457 0001:00013907
   458 0001:00013916   459 0001:00013925   460 0001:00013939   461 0001:00013948
   455 0001:0001396E   463 0001:0001399C   465 0001:000139B0   466 0001:000139C9
   467 0001:00013A09   477 0001:00013A38   478 0001:00013A63   479 0001:00013A66
   480 0001:00013A6A   481 0001:00013A82   483 0001:00013A87   484 0001:00013A8A
   486 0001:00013AA7   487 0001:00013AD0   489 0001:00013AD8   490 0001:00013B08
   491 0001:00013B10   492 0001:00013B17   493 0001:00013B25   494 0001:00013B29
   496 0001:00013B2C   497 0001:00013B48   498 0001:00013B74   500 0001:00013B7A
   503 0001:00013B7E   504 0001:00013B89   506 0001:00013B8B   508 0001:00013B91
   509 0001:00013BC1   520 0001:00013BC8   521 0001:00013BF3   522 0001:00013BFB
   523 0001:00013C0F   524 0001:00013C32   525 0001:00013C3A   526 0001:00013C48
   529 0001:00013C52   531 0001:00013C57   532 0001:00013C83   533 0001:00013C91
   534 0001:00013C98   535 0001:00013CA3   537 0001:00013CBC   538 0001:00013CC7
   541 0001:00013CE5   543 0001:00013CF5   544 0001:00013CF8   545 0001:00013D0A
   527 0001:00013D0D   547 0001:00013D27   548 0001:00013D2F   551 0001:00013D62
   553 0001:00013D9C   559 0001:00013DDC   560 0001:00013DE1   564 0001:00013DE4
   565 0001:00013DE9   573 0001:00013DEC   575 0001:00013E29   569 0001:00013E44
   570 0001:00013E4D   572 0001:00013E5C

Line numbers for EZlib(EZLib.pas) segment .text

   212 0001:00013F50   213 0001:00013F59   217 0001:00013F5C   218 0001:00013F63
   224 0001:00013F64   225 0001:00013F70   229 0001:00013F7C   230 0001:00013F8B
   235 0001:00013F94   236 0001:00013FAB   238 0001:00013FAD   240 0001:00013FB1
   242 0001:00013FFA   250 0001:00014000   251 0001:00014010   253 0001:0001401F
   254 0001:0001403D   256 0001:0001404C   257 0001:0001405A   258 0001:0001405D
   259 0001:00014060   260 0001:00014068   262 0001:00014070   264 0001:00014082
   267 0001:00014092   268 0001:0001409B   270 0001:000140A8   271 0001:000140B3
   265 0001:000140BA   274 0001:000140DC   277 0001:000140F1   278 0001:000140FC
   280 0001:00014113   281 0001:0001411D   283 0001:00014127   291 0001:00014130
   292 0001:00014140   294 0001:0001414F   295 0001:0001415B   297 0001:00014160
   299 0001:0001416F   300 0001:0001417D   301 0001:00014180   302 0001:00014183
   303 0001:0001418B   305 0001:00014193   307 0001:000141A0   309 0001:000141AE
   310 0001:000141BA   312 0001:000141BE   313 0001:000141C3   315 0001:000141D0
   316 0001:000141DB   318 0001:000141DE   320 0001:000141EF   323 0001:00014204
   324 0001:0001420F   326 0001:00014226   327 0001:00014230   329 0001:0001423A
   334 0001:00014244   335 0001:00014247   336 0001:00014257   339 0001:0001425C
   340 0001:0001425F   341 0001:0001426D   344 0001:00014270   345 0001:00014273
   346 0001:0001427B   349 0001:00014280   350 0001:00014283   351 0001:0001428B
   354 0001:00014290   355 0001:00014293   356 0001:0001429B   359 0001:000142A0
   360 0001:000142A3   361 0001:000142A8   365 0001:000142AC   366 0001:000142B6
   369 0001:000142B8   370 0001:000142BB   371 0001:000142C5   374 0001:000142C8
   375 0001:000142CB   377 0001:000142E6   382 0001:000142E8   383 0001:000142EF
   384 0001:000142F4   385 0001:00014303   386 0001:00014308   391 0001:0001430C
   392 0001:00014313   393 0001:00014318   394 0001:00014327   395 0001:0001432C
   398 0001:00014330   399 0001:00014333   400 0001:00014342   403 0001:00014344
   404 0001:00014347   405 0001:00014358   407 0001:0001435C   408 0001:00014361
   411 0001:00014364   412 0001:00014367   413 0001:00014374   415 0001:00014378
   416 0001:0001437D   427 0001:00014380   428 0001:000143A5   430 0001:000143B3
   431 0001:000143C8   434 0001:000143D1   436 0001:000143D7   439 0001:000143EB
   441 0001:00014400   442 0001:0001440C   443 0001:00014420   446 0001:00014438
   447 0001:0001443E   448 0001:00014445   449 0001:0001444C   450 0001:00014453
   451 0001:0001445A   456 0001:0001447E   459 0001:00014484   460 0001:0001449A
   461 0001:000144AC   462 0001:000144D6   475 0001:000144DC   476 0001:000144E8
   477 0001:00014506   479 0001:0001450E   480 0001:00014510   482 0001:00014518
   483 0001:00014545   485 0001:00014549   486 0001:0001454E   488 0001:00014562
   489 0001:0001456C   490 0001:0001457A   491 0001:00014589   493 0001:0001459E
   494 0001:000145B8   496 0001:000145C8   497 0001:000145D6   498 0001:000145E5
   500 0001:000145F8   502 0001:00014603   503 0001:00014607   505 0001:00014616
   510 0001:0001463F   512 0001:0001464F   513 0001:0001465C   515 0001:00014679
   518 0001:00014696   520 0001:000146A6   521 0001:000146CF   526 0001:000146D8
   527 0001:000146DC   529 0001:000146DE   530 0001:000146E5   532 0001:000146E9
   533 0001:000146F2   535 0001:000146F6   536 0001:000146FA   547 0001:00014700
   548 0001:0001473D   549 0001:00014741   550 0001:0001475C   552 0001:00014799
   553 0001:000147BB   555 0001:000147C3   556 0001:000147CA   557 0001:000147D5
   558 0001:000147E3   559 0001:000147EE   561 0001:000147FC   563 0001:0001484B
   566 0001:00014850   567 0001:0001485F   568 0001:0001487A   569 0001:0001487E
   573 0001:00014885   575 0001:00014889   576 0001:00014892   579 0001:0001489D
   581 0001:000148B1   583 0001:000148C1   584 0001:000148F5   591 0001:00014908
   592 0001:00014917   593 0001:0001491C   594 0001:00014927   596 0001:0001492B
   598 0001:00014937   599 0001:00014945   601 0001:00014949   603 0001:00014952
   604 0001:00014959   606 0001:0001495D   596 0001:0001495E   608 0001:00014961
   609 0001:0001496A   614 0001:00014974   615 0001:00014980   617 0001:00014984
   618 0001:0001498C   620 0001:00014992   621 0001:000149A0   623 0001:000149BC
   625 0001:000149CF   627 0001:0001E19C   627 0001:0001E1A3

Line numbers for EHash(EHash.pas) segment .text

    74 0001:0001E1A4    76 0001:0001E1A6    77 0001:0001E1A8    78 0001:0001E1B2
    77 0001:0001E1C7    80 0001:0001E1CA    82 0001:0001E1D1    83 0001:0001E1D3
    85 0001:0001E1D8    86 0001:0001E1E2    83 0001:0001E1E4    88 0001:0001E1E7
    89 0001:0001E1E9    80 0001:0001E1ED    90 0001:0001E1F5    91 0001:0001E1FC
    96 0001:0001E200    97 0001:0001E206   100 0001:0001E20F   101 0001:0001E21D
   103 0001:0001E220   104 0001:0001E23A   105 0001:0001E23B   106 0001:0001E23C
   107 0001:0001E240   109 0001:0001E243   114 0001:0001E248   115 0001:0001E24D
   116 0001:0001E24F   117 0001:0001E25F   116 0001:0001E289   118 0001:0001E28E
   133 0001:0001E294   134 0001:0001E295   135 0001:0001E2A8   137 0001:0001E2AC
   138 0001:0001E2B5   139 0001:0001E2C8   140 0001:0001E2CE   141 0001:0001E2D4
   142 0001:0001E2DA   144 0001:0001E2E3   145 0001:0001E305   146 0001:0001E327
   147 0001:0001E349   148 0001:0001E36A   149 0001:0001E38C   150 0001:0001E3AE
   151 0001:0001E3D0   152 0001:0001E3F1   153 0001:0001E413   154 0001:0001E435
   155 0001:0001E457   156 0001:0001E478   157 0001:0001E49A   158 0001:0001E4BC
   159 0001:0001E4DE   161 0001:0001E4FF   162 0001:0001E520   163 0001:0001E542
   164 0001:0001E564   165 0001:0001E586   166 0001:0001E5A7   167 0001:0001E5C9
   168 0001:0001E5EB   169 0001:0001E60D   170 0001:0001E62E   171 0001:0001E650
   172 0001:0001E672   173 0001:0001E694   174 0001:0001E6B5   175 0001:0001E6D7
   176 0001:0001E6F9   178 0001:0001E71B   179 0001:0001E73A   180 0001:0001E75A
   181 0001:0001E77A   182 0001:0001E799   183 0001:0001E7B8   184 0001:0001E7D8
   185 0001:0001E7F8   186 0001:0001E817   187 0001:0001E836   188 0001:0001E856
   189 0001:0001E876   190 0001:0001E895   191 0001:0001E8B4   192 0001:0001E8D4
   193 0001:0001E8F4   195 0001:0001E913   196 0001:0001E934   197 0001:0001E956
   198 0001:0001E978   199 0001:0001E999   200 0001:0001E9BA   201 0001:0001E9DC
   202 0001:0001E9FE   203 0001:0001EA1F   204 0001:0001EA40   205 0001:0001EA62
   206 0001:0001EA84   207 0001:0001EAA5   208 0001:0001EAC6   209 0001:0001EAE8
   210 0001:0001EB0A   212 0001:0001EB2B   213 0001:0001EB31   214 0001:0001EB37
   215 0001:0001EB3D   216 0001:0001EB46   217 0001:0001EB4E   218 0001:0001EB60
   220 0001:0001EB68   221 0001:0001EB77   222 0001:0001EB7C   223 0001:0001EB81
   224 0001:0001EB86   225 0001:0001EB95   227 0001:0001EBA4   228 0001:0001EBAB
   229 0001:0001EBB2   230 0001:0001EBB9   232 0001:0001EBC0   233 0001:0001EBC8
   234 0001:0001EBD0   237 0001:0001EBD8   239 0001:0001EBDC   241 0001:0001EBE8
   242 0001:0001EBF8   243 0001:0001EC02   244 0001:0001EC04   248 0001:0001EC0D
   249 0001:0001EC1D   250 0001:0001EC20   237 0001:0001EC22   253 0001:0001EC26
   254 0001:0001EC2E   255 0001:0001EC3B   256 0001:0001EC43   257 0001:0001EC4B
   258 0001:0001EC52   259 0001:0001EC62   261 0001:0001EC98   261 0001:0001EC9F

Line numbers for EEncrypt(EEncrypt.pas) segment .text

    40 0001:0001ECA0    41 0001:0001ECA3    42 0001:0001ECAE    43 0001:0001ECBC
    41 0001:0001ECBD    44 0001:0001ECC0    48 0001:0001ECC4    50 0001:0001ECF5
    57 0001:0001ECF8    58 0001:0001ED04    59 0001:0001ED0D    60 0001:0001ED19
    61 0001:0001ED1B    62 0001:0001ED21    63 0001:0001ED2B    64 0001:0001ED35
    65 0001:0001ED3F    67 0001:0001ED44    68 0001:0001ED49    69 0001:0001ED63
    65 0001:0001ED7F    71 0001:0001ED82    72 0001:0001ED8E    73 0001:0001ED9D
    78 0001:0001EDA8    79 0001:0001EDB4    80 0001:0001EDBD    81 0001:0001EDC9
    82 0001:0001EDCE    83 0001:0001EDD4    84 0001:0001EDDE    85 0001:0001EDE8
    86 0001:0001EDF2    88 0001:0001EDF7    89 0001:0001EE13    90 0001:0001EE2D
    86 0001:0001EE32    92 0001:0001EE35    93 0001:0001EE41    94 0001:0001EE50
    99 0001:0001EE58   100 0001:0001EE66   101 0001:0001EE73   102 0001:0001EE81
   103 0001:0001EE9D   104 0001:0001EEAB   105 0001:0001EEB4   106 0001:0001EEBF
   107 0001:0001EECA   109 0001:0001EEE2   111 0001:0001EEF2   117 0001:0001EEF8
   118 0001:0001EF04   119 0001:0001EF18   120 0001:0001EF1A   121 0001:0001EF1C
   123 0001:0001EF26   124 0001:0001EF36   125 0001:0001EF47   126 0001:0001EF50
   127 0001:0001EF61   128 0001:0001EF64   121 0001:0001EF67   130 0001:0001EF6A
   132 0001:0001EF74   133 0001:0001EF83   134 0001:0001EF90   136 0001:0001EF9E
   143 0001:0001EFA4   144 0001:0001EFB2   145 0001:0001EFC6   146 0001:0001EFC8
   147 0001:0001EFCA   149 0001:0001EFD4   150 0001:0001EFE4   151 0001:0001EFF4
   152 0001:0001EFFD   153 0001:0001F00E   154 0001:0001F021   155 0001:0001F024
   147 0001:0001F027   157 0001:0001F02A   159 0001:0001F034   160 0001:0001F043
   161 0001:0001F050   163 0001:0001F05E   165 0001:0001F098   165 0001:0001F09F

Line numbers for EBase64(EBase64.pas) segment .text

    98 0001:0001F0A0   100 0001:0001F0A3   101 0001:0001F0B3   102 0001:0001F0C2
   103 0001:0001F0C7   106 0001:0001F0CC   107 0001:0001F0CE   108 0001:0001F0D0
   109 0001:0001F0D4   110 0001:0001F0DD   111 0001:0001F0E5   113 0001:0001F0F8
   114 0001:0001F101   120 0001:0001F104   123 0001:0001F10A   125 0001:0001F10C
   129 0001:0001F10E   131 0001:0001F110   133 0001:0001F115   135 0001:0001F117
   137 0001:0001F119   139 0001:0001F11C   141 0001:0001F11F   144 0001:0001F125
   145 0001:0001F127   146 0001:0001F129   147 0001:0001F12B   148 0001:0001F12F
   151 0001:0001F131   153 0001:0001F133   154 0001:0001F135   155 0001:0001F138
   157 0001:0001F13B   158 0001:0001F13D   160 0001:0001F140   161 0001:0001F144
   162 0001:0001F148   163 0001:0001F14B   165 0001:0001F14E   167 0001:0001F150
   169 0001:0001F151   170 0001:0001F153   171 0001:0001F157   173 0001:0001F15A
   174 0001:0001F15C   175 0001:0001F15E   176 0001:0001F161   178 0001:0001F164
   179 0001:0001F166   180 0001:0001F169   183 0001:0001F16B   184 0001:0001F16F
   186 0001:0001F171   187 0001:0001F173   188 0001:0001F175   190 0001:0001F177
   192 0001:0001F178   193 0001:0001F17C   195 0001:0001F17E   197 0001:0001F181
   198 0001:0001F184   200 0001:0001F186   201 0001:0001F18A   203 0001:0001F18D
   205 0001:0001F18E   206 0001:0001F192   208 0001:0001F194   209 0001:0001F197
   211 0001:0001F19A   212 0001:0001F19D   214 0001:0001F19F   216 0001:0001F1A2
   217 0001:0001F1A4   220 0001:0001F1A6   221 0001:0001F1A9   223 0001:0001F1AB
   224 0001:0001F1AE   226 0001:0001F1B1   227 0001:0001F1B3   232 0001:0001F1B5
   233 0001:0001F1B7   235 0001:0001F1BA   237 0001:0001F1BB   258 0001:0001F1C0
   259 0001:0001F1C1   260 0001:0001F1C3   261 0001:0001F1C5   262 0001:0001F1C7
   263 0001:0001F1CA   264 0001:0001F1D0   265 0001:0001F1D6   266 0001:0001F1D8
   267 0001:0001F1D9   268 0001:0001F1DB   269 0001:0001F1DC   272 0001:0001F1DE
   274 0001:0001F1DF   276 0001:0001F1E1   278 0001:0001F1E3   280 0001:0001F1E6
   282 0001:0001F1E8   284 0001:0001F1EB   286 0001:0001F1EE   288 0001:0001F1F2
   290 0001:0001F1F3   292 0001:0001F1F7   294 0001:0001F1FA   296 0001:0001F1FC
   298 0001:0001F1FF   300 0001:0001F202   302 0001:0001F206   304 0001:0001F208
   306 0001:0001F20B   308 0001:0001F20D   310 0001:0001F20F   311 0001:0001F210
   312 0001:0001F212   318 0001:0001F213   320 0001:0001F214   322 0001:0001F216
   324 0001:0001F218   326 0001:0001F21B   328 0001:0001F21D   330 0001:0001F220
   332 0001:0001F223   334 0001:0001F227   336 0001:0001F228   338 0001:0001F22B
   339 0001:0001F22E   341 0001:0001F230   343 0001:0001F234   345 0001:0001F236
   347 0001:0001F239   349 0001:0001F23C   351 0001:0001F240   353 0001:0001F241
   354 0001:0001F244   356 0001:0001F246   358 0001:0001F248   360 0001:0001F24B
   362 0001:0001F24D   364 0001:0001F24F   367 0001:0001F250   368 0001:0001F251
   374 0001:0001F254   376 0001:0001F25E   378 0001:0001F267   380 0001:0001F26E
   381 0001:0001F276   382 0001:0001F280   384 0001:0001F28B   385 0001:0001F298
   391 0001:0001F2A0   393 0001:0001F2AA   395 0001:0001F2B3   396 0001:0001F2BD
   398 0001:0001F2C8   399 0001:0001F2D1   400 0001:0001F2E1   402 0001:0001F2EC
   403 0001:0001F2F9   407 0001:0001F300   408 0001:0001F305   412 0001:0001F308
   413 0001:0001F30D   418 0001:0001F310   419 0001:0001F31A   420 0001:0001F32A
   421 0001:0001F334   422 0001:0001F33F   424 0001:0001F374   424 0001:0001F37B

Line numbers for EZip(EZip.pas) segment .text

    47 0001:0001F48C    48 0001:0001F4BA    49 0001:0001F506    54 0001:0001F510
    55 0001:0001F528    56 0001:0001F537    57 0001:0001F559    60 0001:0001F560
    61 0001:0001F583    62 0001:0001F5C4    65 0001:0001F5CC    66 0001:0001F5D7
    67 0001:0001F5DF    68 0001:0001F5F6    70 0001:0001F62C    70 0001:0001F633

Line numbers for EWebTools(EWebTools.pas) segment .text

   377 0001:0001FC34   378 0001:0001FC39   379 0001:0001FC4B   378 0001:0001FC61
   380 0001:0001FC64   405 0001:0001FC68   406 0001:0001FC8A   407 0001:0001FC94
   406 0001:0001FCC9   409 0001:0001FCCC   411 0001:0001FCD1   412 0001:0001FCE1
   414 0001:0001FCE9   415 0001:0001FCEC   416 0001:0001FCFE   418 0001:0001FD04
   419 0001:0001FD1A   420 0001:0001FD28   421 0001:0001FD2E   424 0001:0001FD79
   425 0001:0001FDA3   437 0001:0001FDC4   438 0001:0001FDE0   439 0001:0001FDE4
   441 0001:0001FDF5   442 0001:0001FE03   444 0001:0001FE1C   445 0001:0001FE20
   447 0001:0001FE22   439 0001:0001FE28   448 0001:0001FE50   450 0001:0001FE58
   451 0001:0001FE8C   452 0001:0001FE93   453 0001:0001FE97   454 0001:0001FE9B
   455 0001:0001FE9F   456 0001:0001FEB4   457 0001:0001FED7   458 0001:0001FEE9
   460 0001:0001FEF1   461 0001:0001FEFB   465 0001:0001FEFD   467 0001:0001FF03
   469 0001:0001FF13   471 0001:0001FF21   474 0001:0001FF34   475 0001:0001FF3D
   462 0001:0001FF3E   477 0001:0001FF5E   478 0001:0001FF66   479 0001:0001FF87
   482 0001:0001FF8E   486 0001:0001FF99   487 0001:0001FFA7   484 0001:0001FFA8
   489 0001:0001FFCE   491 0001:00020000   480 0001:00020001   494 0001:0002000C
   495 0001:00020035   500 0001:0002004C   501 0001:00020054   503 0001:00020058
   504 0001:0002005F   507 0001:00020061   508 0001:00020066   509 0001:0002006F
   510 0001:0002007A   511 0001:0002008E   512 0001:0002009D   518 0001:000200A4
   519 0001:000200E1   520 0001:000200E5   521 0001:000200EC   523 0001:000200F1
   524 0001:00020128   526 0001:00020132   527 0001:00020179   528 0001:0002017E
   529 0001:000201AB   530 0001:000201D8   532 0001:000201EC   533 0001:000201F6
   534 0001:000201FA   537 0001:000201FC   538 0001:0002023B   544 0001:00020284
   545 0001:000202C4   546 0001:000202CB   547 0001:000202CF   549 0001:000202D4
   550 0001:00020314   552 0001:0002031E   553 0001:00020365   554 0001:0002036A
   555 0001:00020397   557 0001:000203A5   558 0001:000203B5   560 0001:000203BB
   561 0001:000203F6   563 0001:000203FA   566 0001:000203FC   567 0001:0002043B
   573 0001:00020490   574 0001:000204C8   575 0001:000204D0   577 0001:000204D5
   578 0001:00020504   580 0001:0002050E   581 0001:00020519   582 0001:0002051E
   583 0001:0002054B   584 0001:00020565   587 0001:0002056C   588 0001:00020578
   589 0001:0002059D   585 0001:0002059E   591 0001:000205AA   592 0001:000205BA
   593 0001:000205DA   594 0001:000205F6   596 0001:00020604   597 0001:0002060F
   600 0001:00020611   601 0001:0002064D   607 0001:00020690   608 0001:000206C8
   609 0001:000206CF   610 0001:000206D3   612 0001:000206D8   613 0001:00020707
   615 0001:0002070D   616 0001:00020712   617 0001:0002073F   619 0001:0002074D
   620 0001:00020767   621 0001:00020785   622 0001:00020789   625 0001:0002078B
   626 0001:000207CA   637 0001:00020804   638 0001:0002082D   639 0001:00020831
   640 0001:00020847   641 0001:00020849   642 0001:0002084D   645 0001:00020854
   647 0001:00020864   648 0001:00020870   650 0001:00020892   651 0001:00020896
   653 0001:00020898   643 0001:00020899   655 0001:000208D2   657 0001:000208EC
   658 0001:00020918   659 0001:0002091F   661 0001:00020924   662 0001:00020951
   664 0001:00020957   666 0001:00020963   667 0001:00020968   668 0001:00020995
   669 0001:0002099F   672 0001:000209A1   673 0001:000209D8   679 0001:00020A10
   680 0001:00020A44   681 0001:00020A4B   682 0001:00020A4F   684 0001:00020A54
   685 0001:00020A83   687 0001:00020A89   688 0001:00020A8E   689 0001:00020ABB
   691 0001:00020AC9   692 0001:00020AE3   693 0001:00020AFE   694 0001:00020B02
   697 0001:00020B04   698 0001:00020B43   703 0001:00020B7C   704 0001:00020BB5
   705 0001:00020BBC   706 0001:00020BD2   707 0001:00020BE8   708 0001:00020BED
   710 0001:00020BF1   711 0001:00020C00   708 0001:00020C0E   713 0001:00020C11
   717 0001:00020C17   718 0001:00020C30   715 0001:00020C31   721 0001:00020C78
   727 0001:00020C8C   728 0001:00020CA0   731 0001:00020CA4   732 0001:00020CAB
   733 0001:00020CAD   734 0001:00020CB9   736 0001:00020CC2   737 0001:00020CD4
   738 0001:00020CE6   739 0001:00020CF8   740 0001:00020D0A   741 0001:00020D1C
   742 0001:00020D2E   743 0001:00020D40   744 0001:00020D52   745 0001:00020D64
   746 0001:00020D76   747 0001:00020D88   748 0001:00020D9A   749 0001:00020DAC
   750 0001:00020DBE   751 0001:00020DD0   753 0001:00020DE2   762 0001:00020E7C
   763 0001:00020E87   768 0001:00020FE0   769 0001:00020FE3   770 0001:00020FF8
   775 0001:00020FFC   776 0001:00021006   777 0001:00021015   778 0001:00021023
   779 0001:0002102D   781 0001:00021050   783 0001:00021060   790 0001:00021068
   791 0001:0002108E   792 0001:00021096   793 0001:0002109D   794 0001:000210A7
   796 0001:000210C1   797 0001:000210CB   800 0001:000210D0   801 0001:000210D7
   802 0001:000210E1   804 0001:000210EB   805 0001:0002111E   806 0001:00021142
   802 0001:00021148   807 0001:00021170   810 0001:00021178   811 0001:00021191
   813 0001:00021195   814 0001:000211A1   815 0001:000211B8   816 0001:000211C0
   817 0001:000211DA   819 0001:000211DE   820 0001:00021204   828 0001:0002120C
   829 0001:0002122A   830 0001:00021253   832 0001:0002125B   833 0001:00021274
   834 0001:00021280   835 0001:00021292   837 0001:000212C1   850 0001:000212F0
   851 0001:00021300   852 0001:00021308   853 0001:00021314   855 0001:0002131A
   856 0001:00021327   855 0001:0002133D   857 0001:00021340   858 0001:00021349
   859 0001:0002135D   861 0001:00021373   866 0001:0002137C   867 0001:00021396
   868 0001:0002139D   870 0001:000213A2   871 0001:000213B1   870 0001:000213BE
   872 0001:000213C2   874 0001:000213CB   875 0001:000213E2   877 0001:00021421
   879 0001:00021434   880 0001:00021466   881 0001:00021468   882 0001:0002147E
   883 0001:000214A3   884 0001:000214A8   885 0001:000214B3   887 0001:000214B9
   888 0001:000214C7   890 0001:000214CD   891 0001:000214CF   895 0001:000214D1
   896 0001:000214E0   897 0001:000214F0   898 0001:00021500   899 0001:00021510
   900 0001:0002155B   905 0001:00021594   906 0001:000215A2   907 0001:000215AA
   908 0001:000215B3   910 0001:000215BB   911 0001:000215C9   913 0001:000215CD
   914 0001:000215E3   917 0001:000215F3   918 0001:000215FE   919 0001:0002160B
   921 0001:0002160F   922 0001:00021623   924 0001:00021635   931 0001:0002164C
   932 0001:00021671   933 0001:00021675   934 0001:0002167C   935 0001:00021681
   936 0001:0002168D   939 0001:0002169D   941 0001:000216A7   942 0001:000216AF
   946 0001:000216BD   947 0001:000216C1   937 0001:000216CB   950 0001:000216E6
   952 0001:00021701   955 0001:00021711   957 0001:0002171D   958 0001:0002172E
   960 0001:00021783   967 0001:00021798   968 0001:000217B7   969 0001:000217BE
   970 0001:000217D1   971 0001:00021801   969 0001:0002182D   972 0001:00021852
   980 0001:00021868   981 0001:0002189E   983 0001:000218AB   985 0001:000218BA
   986 0001:000218C2   987 0001:000218DF   988 0001:000218EE   990 0001:000218F2
   991 0001:0002190B   993 0001:0002191F   994 0001:00021956   995 0001:0002196D
   996 0001:00021971   997 0001:00021978   998 0001:00021983   999 0001:0002198B
  1003 0001:00021991  1006 0001:000219B5  1007 0001:000219D2  1008 0001:000219DF
  1010 0001:000219E5  1012 0001:000219E9  1013 0001:000219F8  1014 0001:00021A07
  1015 0001:00021A48  1018 0001:00021A8C  1019 0001:00021A97  1020 0001:00021A9E
  1021 0001:00021AA6  1022 0001:00021AAB  1023 0001:00021AB0  1024 0001:00021AB8
  1025 0001:00021ABD  1026 0001:00021AC5  1027 0001:00021ACA  1028 0001:00021AE1
  1045 0001:00021AE4  1046 0001:00021AEC  1048 0001:00021AF7  1049 0001:00021AF9
  1051 0001:00021B06  1052 0001:00021B0C  1054 0001:00021B24  1056 0001:00021B44
  1058 0001:00021B4B  1061 0001:00021B80  1062 0001:00021B87  1065 0001:00021B96
  1066 0001:00021B9A  1067 0001:00021BC0  1070 0001:00021C18  1071 0001:00021C20
  1072 0001:00021C2B  1074 0001:00021C56  1076 0001:00021C65  1077 0001:00021C69
  1078 0001:00021C8F  1094 0001:00021CD4  1095 0001:00021CEE  1097 0001:00021D6F
  1100 0001:00021D98  1101 0001:00021DB9  1102 0001:00021DBD  1104 0001:00021DF7
  1105 0001:00021E21  1110 0001:00021E28  1111 0001:00021E60  1113 0001:00021E67
  1115 0001:00021E6D  1117 0001:00021E7F  1122 0001:00021ED7  1115 0001:00021ED8
  1125 0001:00021EDB  1127 0001:00021EE5  1129 0001:00021EFB  1130 0001:00021F18
  1138 0001:00021F9F  1143 0001:00021FE6  1127 0001:00021FE7  1146 0001:00021FEE
  1147 0001:00022050  1149 0001:000221A8  1150 0001:000221D6  1151 0001:000221DA
  1153 0001:000221E7  1154 0001:000221F1  1156 0001:0002220B  1160 0001:00022212
  1161 0001:0002221B  1164 0001:00022222  1167 0001:0002223F  1168 0001:0002224C
  1169 0001:00022254  1170 0001:0002225C  1171 0001:0002226A  1173 0001:0002227F
  1174 0001:00022294  1175 0001:000222A1  1177 0001:0002230A  1171 0001:0002230B
  1181 0001:00022317  1182 0001:00022324  1183 0001:0002232C  1184 0001:00022339
  1185 0001:00022347  1187 0001:0002235C  1188 0001:0002236D  1190 0001:000223C5
  1185 0001:000223C6  1194 0001:000223CB  1195 0001:000223D8  1196 0001:000223E0
  1197 0001:000223F0  1201 0001:00022408  1204 0001:00022459  1206 0001:00022470
  1208 0001:00022476  1210 0001:00022496  1213 0001:000224AA  1215 0001:000224BC
  1217 0001:00022501  1219 0001:00022521  1222 0001:00022535  1224 0001:0002253E
  1226 0001:00022569  1228 0001:0002257D  1230 0001:000225A8  1236 0001:000225BC
  1237 0001:000225C7  1238 0001:000225D9  1239 0001:000225E3  1240 0001:000225EC
  1241 0001:00022609  1242 0001:0002261D  1243 0001:0002262B  1244 0001:0002263A
  1245 0001:00022652  1247 0001:00022660  1248 0001:00022665  1249 0001:00022679
  1251 0001:000226AC  1253 0001:000226B6  1255 0001:000226BC  1256 0001:000226E0
  1257 0001:000226EA  1259 0001:000226F6  1245 0001:000226F7  1261 0001:0002270B
  1262 0001:0002271B  1266 0001:00022743  1267 0001:00022757  1270 0001:00022767
  1273 0001:0002277C  1275 0001:00022791  1276 0001:00022793  1277 0001:000227A7
  1278 0001:000227B1  1282 0001:000227BA  1283 0001:000227D4  1284 0001:000227DA
  1285 0001:00022820  1286 0001:00022826  1287 0001:0002286A  1289 0001:00022874
  1293 0001:00022897  1294 0001:000228AA  1295 0001:000228C4  1296 0001:000228D5
  1297 0001:000228DC  1298 0001:000228E7  1301 0001:000228F4  1303 0001:000228FE
  1305 0001:00022915  1306 0001:0002292F  1307 0001:00022940  1308 0001:00022947
  1309 0001:00022952  1310 0001:0002295D  1314 0001:00022969  1316 0001:0002297B
  1318 0001:0002298D  1319 0001:0002299A  1329 0001:000229A9  1330 0001:000229F2
  1333 0001:00022AE4  1334 0001:00022AED  1335 0001:00022AFA  1336 0001:00022AFD
  1337 0001:00022B05  1338 0001:00022B0D  1341 0001:00022B14  1342 0001:00022B30
  1343 0001:00022B6C  1348 0001:00022B80  1349 0001:00022B9B  1350 0001:00022BAF
  1351 0001:00022BF2  1356 0001:00022C04  1357 0001:00022C1F  1358 0001:00022C33
  1359 0001:00022C76  1364 0001:00022C88  1365 0001:00022CA3  1366 0001:00022CB7
  1367 0001:00022CFA  1372 0001:00022D0C  1373 0001:00022D2E  1375 0001:00022D45
  1376 0001:00022D59  1378 0001:00022D7C  1379 0001:00022DBF  1393 0001:00022DD4
  1394 0001:00022DF0  1395 0001:00022E04  1396 0001:00022E0E  1397 0001:00022E18
  1398 0001:00022E59  1400 0001:00022E6C  1401 0001:00022E99  1402 0001:00022E9B
  1403 0001:00022EAC  1404 0001:00022EBB  1406 0001:00022EC3  1407 0001:00022ECA
  1408 0001:00022EDC  1409 0001:00022EEE  1410 0001:00022F15  1412 0001:00022F1B
  1414 0001:00022F2F  1415 0001:00022F32  1418 0001:00022F85  1421 0001:00022F87
  1422 0001:00022FBC  1426 0001:00022FDC  1427 0001:00022FFE  1430 0001:0002309C
  1433 0001:000230A8  1434 0001:000230CA  1435 0001:00023124  1438 0001:0002314C
  1439 0001:0002316B  1440 0001:000231BE  1453 0001:000231D8  1454 0001:00023207
  1455 0001:0002321E  1458 0001:0002322C  1459 0001:00023238  1460 0001:00023247
  1461 0001:00023259  1462 0001:00023269  1463 0001:00023279  1464 0001:00023287
  1467 0001:000232AB  1468 0001:000232B7  1469 0001:000232C6  1470 0001:000232D6
  1471 0001:000232E4  1475 0001:00023350  1476 0001:0002335C  1477 0001:0002336B
  1478 0001:0002337D  1479 0001:0002338F  1480 0001:000233A1  1481 0001:000233B9
  1483 0001:000233C7  1489 0001:00023403  1491 0001:0002341C  1492 0001:0002342B
  1493 0001:00023439  1496 0001:0002345D  1498 0001:0002346C  1499 0001:00023479
  1500 0001:00023486  1501 0001:00023496  1502 0001:000234A6  1503 0001:000234B8
  1504 0001:000234C5  1505 0001:000234D2  1506 0001:000234DF  1507 0001:000234EC
  1508 0001:000234F9  1509 0001:00023506  1510 0001:0002351E  1511 0001:0002352E
  1512 0001:0002353D  1513 0001:0002354C  1514 0001:0002355E  1516 0001:0002356B
  1517 0001:0002358F  1518 0001:0002359D  1519 0001:000235B9  1520 0001:000235C2
  1522 0001:000235CB  1526 0001:000235D4  1527 0001:000235E0  1528 0001:000235F8
  1529 0001:00023610  1530 0001:0002361F  1531 0001:0002362F  1532 0001:0002363D
  1535 0001:00023661  1536 0001:00023670  1538 0001:00023685  1539 0001:00023697
  1540 0001:000236BB  1544 0001:000236C8  1545 0001:000236D8  1546 0001:000236E5
  1547 0001:000236F2  1548 0001:000236FF  1549 0001:0002370C  1550 0001:00023719
  1551 0001:00023726  1552 0001:00023733  1553 0001:00023740  1554 0001:0002374D
  1555 0001:0002375A  1556 0001:00023767  1557 0001:00023774  1558 0001:00023782
  1559 0001:0002379E  1560 0001:000237A4  1563 0001:000237AA  1565 0001:000237B0
  1568 0001:000237B6  1570 0001:000237BC  1572 0001:000237C2  1578 0001:000237D3
  1580 0001:00023808  1593 0001:00023D10  1594 0001:00023D3F  1595 0001:00023D56
  1598 0001:00023D64  1599 0001:00023D70  1600 0001:00023D7F  1601 0001:00023D8F
  1602 0001:00023D9F  1603 0001:00023DAF  1604 0001:00023DBD  1607 0001:00023DE1
  1608 0001:00023DED  1609 0001:00023DFC  1610 0001:00023E0E  1611 0001:00023E20
  1612 0001:00023E32  1613 0001:00023E42  1614 0001:00023E5A  1616 0001:00023E68
  1619 0001:00023E8C  1621 0001:00023EA5  1622 0001:00023EB1  1623 0001:00023EC0
  1624 0001:00023ED0  1625 0001:00023EDE  1628 0001:00023F02  1630 0001:00023F11
  1631 0001:00023F1E  1632 0001:00023F2B  1633 0001:00023F38  1634 0001:00023F45
  1635 0001:00023F52  1636 0001:00023F5F  1637 0001:00023F6C  1638 0001:00023F79
  1639 0001:00023F86  1640 0001:00023F96  1641 0001:00023FA3  1642 0001:00023FB0
  1643 0001:00023FBD  1644 0001:00023FCA  1645 0001:00023FD7  1646 0001:00023FEF
  1647 0001:00023FFF  1648 0001:0002400C  1649 0001:00024019  1650 0001:00024026
  1651 0001:00024038  1652 0001:00024046  1655 0001:0002406A  1657 0001:00024079
  1658 0001:0002408B  1659 0001:0002409B  1660 0001:000240AD  1661 0001:000240BF
  1662 0001:000240D1  1663 0001:000240E3  1664 0001:000240F2  1665 0001:00024104
  1666 0001:00024116  1667 0001:00024128  1668 0001:0002413A  1670 0001:00024149
  1671 0001:0002416D  1672 0001:0002417B  1673 0001:00024197  1674 0001:000241A0
  1676 0001:000241A9  1678 0001:000241B2  1682 0001:000241BB  1683 0001:000241C7
  1684 0001:000241DF  1685 0001:000241F7  1686 0001:00024206  1687 0001:00024216
  1688 0001:00024224  1691 0001:00024248  1692 0001:00024257  1694 0001:0002426C
  1695 0001:00024298  1699 0001:000242A5  1700 0001:000242B2  1701 0001:000242BF
  1702 0001:000242CC  1703 0001:000242D9  1704 0001:000242E6  1705 0001:000242F3
  1706 0001:00024300  1707 0001:0002430D  1708 0001:0002431A  1709 0001:00024327
  1710 0001:00024334  1711 0001:00024341  1712 0001:0002434E  1713 0001:0002435B
  1714 0001:00024368  1715 0001:00024375  1716 0001:00024382  1717 0001:0002438F
  1718 0001:000243A1  1719 0001:000243AE  1720 0001:000243BB  1721 0001:000243C8
  1722 0001:000243D5  1723 0001:000243E7  1724 0001:000243F4  1725 0001:00024401
  1726 0001:0002440E  1727 0001:0002441B  1728 0001:00024429  1729 0001:00024445
  1730 0001:0002444B  1733 0001:00024451  1735 0001:00024457  1738 0001:0002445D
  1740 0001:00024463  1746 0001:00024474  1748 0001:000244A9  1761 0001:00024AAC
  1762 0001:00024ADF  1763 0001:00024AF6  1766 0001:00024B04  1767 0001:00024B10
  1768 0001:00024B1F  1769 0001:00024B31  1770 0001:00024B41  1771 0001:00024B51
  1772 0001:00024B63  1773 0001:00024B74  1774 0001:00024B82  1776 0001:00024BA6
  1777 0001:00024BB2  1778 0001:00024BC1  1779 0001:00024BD3  1780 0001:00024BE5
  1781 0001:00024BF7  1782 0001:00024C09  1783 0001:00024C1B  1784 0001:00024C33
  1786 0001:00024C41  1790 0001:00024C65  1794 0001:00024C97  1795 0001:00024CA3
  1796 0001:00024CB2  1797 0001:00024CC4  1798 0001:00024CD6  1799 0001:00024CE4
  1802 0001:00024D03  1804 0001:00024D12  1805 0001:00024D1F  1806 0001:00024D2C
  1807 0001:00024D39  1808 0001:00024D46  1809 0001:00024D53  1810 0001:00024D60
  1811 0001:00024D6D  1812 0001:00024D7A  1813 0001:00024D92  1814 0001:00024DA2
  1815 0001:00024DB2  1816 0001:00024DDA  1817 0001:00024DEF  1818 0001:00024DFF
  1819 0001:00024E0C  1820 0001:00024E19  1821 0001:00024E2B  1822 0001:00024E38
  1823 0001:00024E45  1824 0001:00024E54  1826 0001:00024E61  1827 0001:00024E85
  1828 0001:00024E93  1829 0001:00024EAF  1830 0001:00024EB8  1832 0001:00024EC1
  1836 0001:00024ECA  1837 0001:00024ED6  1838 0001:00024EEE  1839 0001:00024F06
  1840 0001:00024F15  1841 0001:00024F27  1842 0001:00024F39  1843 0001:00024F49
  1844 0001:00024F57  1847 0001:00024F7B  1848 0001:00024F8A  1850 0001:00024F9F
  1852 0001:00024FCB  1856 0001:00024FD8  1857 0001:00024FE5  1858 0001:00024FF2
  1859 0001:00024FFF  1860 0001:0002500C  1861 0001:00025019  1862 0001:00025026
  1863 0001:00025033  1864 0001:00025040  1865 0001:0002504D  1866 0001:0002505A
  1867 0001:00025067  1868 0001:00025074  1869 0001:00025081  1870 0001:0002508E
  1871 0001:0002509B  1872 0001:000250A8  1873 0001:000250B5  1874 0001:000250C2
  1875 0001:000250CF  1876 0001:000250DD  1877 0001:000250F9  1878 0001:000250FF
  1881 0001:00025105  1883 0001:0002510B  1886 0001:00025111  1888 0001:00025117
  1894 0001:00025128  1896 0001:0002515D  1907 0001:000255C0  1908 0001:000255CF
  1909 0001:000255DE  1910 0001:000255EA  1911 0001:000255F8  1912 0001:00025602
  1938 0001:0002564E  1939 0001:00025656  1941 0001:00025669  1946 0001:00025674
  1947 0001:00025677  1949 0001:0002567B  1950 0001:00025682  1952 0001:00025686
  1953 0001:00025688  1958 0001:0002568C  1959 0001:000256A5  1960 0001:000256E5
  1963 0001:000256F8  1964 0001:000256FE  1965 0001:0002570A  1966 0001:00025716
  1971 0001:0002571C  1972 0001:00025722  1973 0001:00025726  1974 0001:0002572F
  1975 0001:0002573D  1980 0001:0002577E  1982 0001:0002578E  1996 0001:00025794
  1997 0001:000257AE  1999 0001:0002582F  2004 0001:00025858  2005 0001:00025862
  2006 0001:00025871  2007 0001:0002587F  2008 0001:00025889  2010 0001:000258AC
  2012 0001:000258BC  2018 0001:000258C4  2019 0001:00025908  2021 0001:00025910
  2023 0001:00025914  2025 0001:00025925  2030 0001:0002598C  2023 0001:0002598D
  2033 0001:00025990  2035 0001:000259A4  2037 0001:000259BA  2038 0001:000259D3
  2044 0001:00025A41  2035 0001:00025A42  2047 0001:00025A49  2048 0001:00025AA7
  2054 0001:00025B98  2055 0001:00025BA4  2056 0001:00025BAB  2057 0001:00025BB0
  2058 0001:00025BBC  2061 0001:00025BCC  2063 0001:00025BD6  2064 0001:00025BDE
  2068 0001:00025BEC  2069 0001:00025BF9  2059 0001:00025C00  2072 0001:00025C1E
  2074 0001:00025C38  2076 0001:00025C48  2081 0001:00025C50  2082 0001:00025C66
  2086 0001:00025C6B  2087 0001:00025C7A  2089 0001:00025CA7  2091 0001:00025CC4
  2093 0001:00025CF0  2095 0001:00025D0B  2097 0001:00025D1D  2099 0001:00025D59
  2103 0001:00025D85  2104 0001:00025DBC  2106 0001:00025DF8  2107 0001:00025E2B
  2108 0001:00025E30  2109 0001:00025E38  2111 0001:00025E41  2112 0001:00025E48
  2114 0001:00025E4D  2115 0001:00025E5B  2117 0001:00025E63  2118 0001:00025E73
  2119 0001:00025E89  2121 0001:00025E93  2123 0001:00025EA3  2124 0001:00025EAC
  2126 0001:00025EC4  2128 0001:00025EE6  2129 0001:00025F03  2130 0001:00025F11
  2132 0001:00025F36  2133 0001:00025F58  2134 0001:00025F66  2136 0001:00025F73
  2137 0001:00025F7A  2139 0001:00025F94  2141 0001:00025FAA  2143 0001:00025FD6
  2145 0001:00025FFB  2147 0001:00026027  2150 0001:0002604C  2151 0001:0002605B
  2152 0001:00026062  2153 0001:00026065  2154 0001:00026082  2155 0001:000260A7
  2156 0001:000260B5  2157 0001:000260BA  2158 0001:000260C7  2160 0001:000260D7
  2161 0001:000260DD  2162 0001:000260F1  2163 0001:00026111  2165 0001:00026117
  2166 0001:0002611D  2167 0001:00026123  2169 0001:0002612C  2158 0001:0002612F
  2171 0001:00026141  2174 0001:00026159  2175 0001:00026168  2176 0001:00026173
  2177 0001:00026179  2178 0001:00026187  2180 0001:0002618C  2181 0001:00026193
  2184 0001:000261B5  2187 0001:000261D4  2190 0001:000261F3  2191 0001:00026201
  2192 0001:00026217  2194 0001:00026259  2208 0001:000262B0  2209 0001:000262BC
  2210 0001:000262DA  2211 0001:000262E2  2212 0001:000262E4  2214 0001:000262EC
  2215 0001:00026327  2216 0001:0002632C  2217 0001:00026334  2218 0001:00026344
  2220 0001:0002634D  2221 0001:00026354  2223 0001:00026359  2224 0001:00026367
  2225 0001:0002636C  2226 0001:00026384  2225 0001:000263BA  2228 0001:000263BF
  2230 0001:000263D0  2231 0001:000263D9  2233 0001:000263F1  2235 0001:00026413
  2236 0001:00026430  2237 0001:0002643E  2240 0001:00026473  2241 0001:00026495
  2242 0001:000264A3  2244 0001:000264B1  2245 0001:000264C0  2246 0001:000264CE
  2247 0001:000264EA  2249 0001:00026508  2250 0001:00026532  2251 0001:0002653D
  2253 0001:00026583  2255 0001:000265AF  2256 0001:000265BD  2257 0001:000265D6
  2258 0001:000265E0  2259 0001:000265E6  2260 0001:000265F4  2261 0001:000265F6
  2263 0001:000265FF  2264 0001:00026604  2265 0001:00026610  2266 0001:00026628
  2267 0001:0002662E  2261 0001:0002663E  2270 0001:00026650  2272 0001:00026662
  2246 0001:00026665  2274 0001:0002667B  2277 0001:00026698  2280 0001:000266B7
  2283 0001:000266D6  2284 0001:000266E4  2285 0001:000266FA  2287 0001:00026734
  2296 0001:0002675C  2297 0001:00026787  2298 0001:0002678B  2299 0001:00026798
  2300 0001:000267A6  2301 0001:000267AD  2302 0001:000267B6  2304 0001:000267CE
  2306 0001:000267F0  2307 0001:000267FE  2308 0001:0002681B  2309 0001:00026825
  2311 0001:00026833  2312 0001:0002684D  2313 0001:00026890  2314 0001:00026896
  2316 0001:000268A7  2319 0001:000268C6  2322 0001:000268E5  2324 0001:0002691A
  2329 0001:00026934  2330 0001:00026946  2331 0001:0002696A  2335 0001:00026970
  2336 0001:00026973  2341 0001:00026974  2342 0001:0002697A  2343 0001:00026992
  2344 0001:00026998  2345 0001:000269A3  2346 0001:000269AE  2347 0001:000269B9
  2348 0001:000269C4  2349 0001:000269CA  2350 0001:000269D5  2353 0001:00026A50
  2354 0001:00026A53  2355 0001:00026A58  2356 0001:00026A60  2357 0001:00026A68
  2358 0001:00026A70  2359 0001:00026A78  2360 0001:00026A7D  2361 0001:00026A85
  2363 0001:00026AD8  2363 0001:00026ADF

Line numbers for EXMLBuilder(EXMLBuilder.pas) segment .text

    60 0001:00026C20    61 0001:00026C26    62 0001:00026C46    67 0001:00026C4C
    68 0001:00026C58    70 0001:00026C61    71 0001:00026C6F    72 0001:00026C78
    68 0001:00026C79    73 0001:00026C7E    74 0001:00026C95    77 0001:00026C9C
    78 0001:00026CA2    79 0001:00026CAB    84 0001:00026CB0    85 0001:00026CCC
    86 0001:00026D18    89 0001:00026D44    90 0001:00026D47    91 0001:00026D4F
    92 0001:00026D52    95 0001:00026D54    96 0001:00026D83    97 0001:00026D8E
    98 0001:00026D96    99 0001:00026D9E   100 0001:00026DA6   101 0001:00026DAE
   102 0001:00026DB3   103 0001:00026DF6   106 0001:00026DFC   107 0001:00026E07
   108 0001:00026E0F   109 0001:00026E26   118 0001:00026E2C   119 0001:00026E38
   120 0001:00026E4E   121 0001:00026E53   123 0001:00026E6D   124 0001:00026E78
   126 0001:00026E88   127 0001:00026E93   132 0001:00026E99   133 0001:00026EA5
   134 0001:00026EB0   135 0001:00026ECF   136 0001:00026EF9   137 0001:00026F23
   138 0001:00026F2F   140 0001:00026F32   121 0001:00026F36   141 0001:00026F3D
   142 0001:00026F47   147 0001:00026F50   148 0001:00026F58   149 0001:00026F74
   152 0001:00026F94   153 0001:00026FA0   154 0001:00026FB0   156 0001:00026FBA
   157 0001:00026FC6   159 0001:00026FD0   160 0001:00026FEA   161 0001:00026FFB
   157 0001:00026FFC   162 0001:00026FFF   164 0001:00027009   166 0001:00027024
   169 0001:00027084   170 0001:0002708A   171 0001:00027091   172 0001:0002709A
   175 0001:000270A0   176 0001:000270B9   178 0001:000270C5   179 0001:000270CF
   180 0001:00027104   185 0001:0002710C   186 0001:0002712B   187 0001:0002713A
   188 0001:00027148   189 0001:0002715D   191 0001:00027174   193 0001:000271A1
   197 0001:000271D8   197 0001:000271DF

Line numbers for ELogManager(ELogManager.pas) segment .text

   114 0001:00027308   115 0001:00027325   116 0001:0002732D   117 0001:00027337
   119 0001:00027343   120 0001:00027352   122 0001:0002735E   123 0001:00027368
   124 0001:0002736A   125 0001:0002736E   126 0001:00027383   128 0001:0002738E
   129 0001:000273AC   132 0001:000273B4   133 0001:000273BF   134 0001:000273CB
   135 0001:000273DE   149 0001:000273E4   150 0001:000273E5   151 0001:000273E7
   154 0001:000273EB   157 0001:00027409   158 0001:0002740B   160 0001:0002740D
   152 0001:0002740E   162 0001:00027415   163 0001:00027418   164 0001:00027420
   165 0001:0002742F   166 0001:00027434   167 0001:00027436   170 0001:00027451
   172 0001:0002745E   173 0001:0002746E   174 0001:0002746F   177 0001:00027481
   179 0001:00027492   180 0001:000274A2   181 0001:000274A3   183 0001:000274B5
   184 0001:000274C6   185 0001:000274C7   168 0001:000274C8   187 0001:000274CD
   188 0001:000274DB   189 0001:000274E8   193 0001:000274F0   194 0001:000274F2
   197 0001:000274F8   199 0001:000274FD   204 0001:00027535   205 0001:00027537
   208 0001:00027539   195 0001:0002753A   210 0001:00027542   211 0001:00027544
   212 0001:00027563   213 0001:0002756D   215 0001:00027570   216 0001:0002757A
   217 0001:0002757D   218 0001:00027581   220 0001:00027598   221 0001:000275A1
   223 0001:000275A9   225 0001:000275AD   228 0001:000275BE   231 0001:000275DC
   232 0001:000275DF   233 0001:0002760C   240 0001:00027624   241 0001:00027644
   242 0001:00027655   243 0001:00027660   244 0001:0002766E   245 0001:0002767A
   247 0001:0002767F   250 0001:00027696   252 0001:000276A5   253 0001:000276B6
   256 0001:000276BC   259 0001:000276D4   261 0001:00027701   266 0001:00027720
   267 0001:0002773B   268 0001:00027746   270 0001:0002774C   271 0001:00027779
   273 0001:00027799   274 0001:000277D6   279 0001:000277E8   280 0001:00027804
   281 0001:00027809   282 0001:00027829   283 0001:00027860   286 0001:00027878
   287 0001:0002787B   288 0001:00027883   292 0001:00027888   293 0001:00027890
   309 0001:00027894   310 0001:000278BF   311 0001:000278C7   312 0001:000278DB
   313 0001:000278EA   314 0001:000278F8   315 0001:00027918   317 0001:0002792C
   318 0001:00027959   319 0001:00027981   315 0001:00027982   320 0001:00027985
   322 0001:0002799D   324 0001:000279CF   326 0001:00027A08   327 0001:00027A2A
   328 0001:00027A2E   329 0001:00027A52   331 0001:00027A56   332 0001:00027A6D
   333 0001:00027A7F   334 0001:00027A8C   335 0001:00027AA4   337 0001:00027AD8
   339 0001:00027B08   340 0001:00027B2D   341 0001:00027B34   343 0001:00027B4A
   344 0001:00027B4C   346 0001:00027B51   348 0001:00027B79   349 0001:00027B7C
   351 0001:00027B7E   344 0001:00027B7F   353 0001:00027B84   341 0001:00027B85
   354 0001:00027BAA   357 0001:00027BB4   358 0001:00027BB8   359 0001:00027BBE
   360 0001:00027BD5   361 0001:00027BE1   362 0001:00027BEB   363 0001:00027BFE
   373 0001:00027C04   374 0001:00027C0D   375 0001:00027C16   376 0001:00027C25
   375 0001:00027C31   377 0001:00027C34   379 0001:00027C44   380 0001:00027C72
   382 0001:00027C90   383 0001:00027CA1   384 0001:00027CC8   386 0001:00027CD0
   387 0001:00027CE1   389 0001:00027CEA   390 0001:00027CED   391 0001:00027CF0
   394 0001:00027CF7   396 0001:00027D19   400 0001:00027D83   401 0001:00027D86
   392 0001:00027D87   403 0001:00027D97   404 0001:00027DA7   405 0001:00027DB4
   410 0001:00027DDA   411 0001:00027DDC   412 0001:00027DEC   414 0001:00027DF6
   415 0001:00027DFD   417 0001:00027E02   418 0001:00027E30   419 0001:00027E57
   421 0001:00027E5B   422 0001:00027E6C   423 0001:00027E71   425 0001:00027E74
   415 0001:00027E75   426 0001:00027E7A   428 0001:00027E84   429 0001:00027E96
   431 0001:00027E9A   432 0001:00027E9D   433 0001:00027EDC   434 0001:00027F01
   439 0001:00027F34   446 0001:00027F9C   447 0001:00027FC7   448 0001:00027FCF
   450 0001:00027FE7   451 0001:00027FF4   452 0001:0002801B   454 0001:00028023
   456 0001:00028038   458 0001:0002803A   459 0001:0002804E   461 0001:000280B5
   464 0001:000280B9   466 0001:000280DF   468 0001:000280F1   469 0001:00028101
   470 0001:00028106   471 0001:00028111   473 0001:00028113   462 0001:00028114
   475 0001:0002811D   477 0001:00028134   478 0001:0002813D   479 0001:00028146
   480 0001:00028158   482 0001:00028167   483 0001:0002817D   475 0001:0002817E
   484 0001:00028181   486 0001:000281BB   490 0001:00028204   491 0001:0002820C
   494 0001:00028210   495 0001:00028216   496 0001:00028220   499 0001:00028224
   500 0001:0002822D   501 0001:00028239   506 0001:00028240   507 0001:0002824A
   508 0001:0002825D   509 0001:00028263   510 0001:00028267   509 0001:0002827B
   512 0001:00028280   513 0001:00028284   512 0001:00028297   514 0001:0002829C
   519 0001:000282D4   520 0001:000282DD   521 0001:000282E9   522 0001:000282FC
   525 0001:00028302   527 0001:00028311   528 0001:00028314   530 0001:00028325
   531 0001:0002833D   532 0001:00028341   534 0001:00028352   536 0001:0002835B
   537 0001:00028362   542 0001:00028378   543 0001:00028381   544 0001:0002838D
   545 0001:000283A0   549 0001:000283A6   548 0001:000283A7   550 0001:000283B5
   551 0001:000283C5   552 0001:000283C9   554 0001:000283DA   557 0001:000283E3
   558 0001:000283EA   563 0001:00028410   564 0001:00028433   565 0001:00028440
   566 0001:00028452   569 0001:00028486   570 0001:00028495   571 0001:000284A5
   572 0001:000284A9   574 0001:000284BA   576 0001:000284C3   577 0001:000284E7
   582 0001:00028518   583 0001:00028539   584 0001:00028540   586 0001:00028560
   587 0001:0002856D   588 0001:0002857F   591 0001:000285B3   592 0001:000285C2
   593 0001:000285D2   594 0001:000285D6   596 0001:000285E7   598 0001:000285F0
   599 0001:00028619   604 0001:00028654   605 0001:00028677   606 0001:0002867E
   608 0001:0002869A   609 0001:000286A7   610 0001:000286B9   611 0001:000286CC
   612 0001:000286DC   613 0001:00028707   618 0001:00028738   619 0001:0002875B
   620 0001:00028768   621 0001:0002876D   622 0001:0002878C   624 0001:0002879D
   625 0001:000287AC   626 0001:000287AE   627 0001:000287B5   626 0001:000287C6
   628 0001:000287CB   629 0001:000287CF   631 0001:000287E0   632 0001:000287E7
   633 0001:00028820   638 0001:00028850   639 0001:00028872   640 0001:0002887F
   642 0001:00028895   643 0001:0002889A   642 0001:000288AE   644 0001:000288B1
   646 0001:000288B9   647 0001:000288BE   646 0001:000288D2   648 0001:000288D5
   653 0001:000288DB   651 0001:000288DC   654 0001:00028911   655 0001:00028925
   656 0001:00028929   658 0001:00028940   661 0001:0002894A   663 0001:0002896F
   674 0001:000289B4   675 0001:000289D2   676 0001:00028A07   677 0001:00028A32
   678 0001:00028A47   679 0001:00028A66   680 0001:00028A85   681 0001:00028AB9
   683 0001:00028B18   684 0001:00028B43   685 0001:00028B48   686 0001:00028B4D
   687 0001:00028B61   688 0001:00028B6F   689 0001:00028B73   690 0001:00028B77
   691 0001:00028B86   692 0001:00028B94   693 0001:00028BAB   696 0001:00028BB5
   698 0001:00028BBB   699 0001:00028BCB   700 0001:00028BD8   701 0001:00028BEF
   702 0001:00028BF7   703 0001:00028BFF   704 0001:00028C07   705 0001:00028C0F
   706 0001:00028C13   710 0001:00028C19   711 0001:00028C31   712 0001:00028C40
   713 0001:00028C78   715 0001:00028C80   716 0001:00028C8D   717 0001:00028C9C
   718 0001:00028CB0   719 0001:00028CC0   721 0001:00028CC6   722 0001:00028CDB
   723 0001:00028CEB   725 0001:00028CFB   726 0001:00028D1A   727 0001:00028D33
   728 0001:00028D43   729 0001:00028D53   730 0001:00028D63   733 0001:00028D69
   735 0001:00028D6F   736 0001:00028D73   737 0001:00028D7A   739 0001:00028D80
   741 0001:00028D98   742 0001:00028D99   744 0001:00028DA5   745 0001:00028DAC
   694 0001:00028DB0   749 0001:00028DCE   751 0001:00028DDE   753 0001:00028DF6
   755 0001:00028E3D   766 0001:00028ECC   767 0001:00028ED2   768 0001:00028EF2
   775 0001:00028F04   776 0001:00028F09   777 0001:00028F0B   778 0001:00028F1B
   780 0001:00028F2E   781 0001:00028F30   782 0001:00028F32   777 0001:00028F33
   783 0001:00028F38   785 0001:00028F3C   786 0001:00028F68   787 0001:00028F77
   788 0001:00028F86   789 0001:00028F9A   790 0001:00028FC8   791 0001:00028FCD
   792 0001:00028FDA   793 0001:00028FE8   794 0001:00028FEC   795 0001:00028FF0
   796 0001:00028FFB   798 0001:0002901A   799 0001:00029022   800 0001:00029040
   801 0001:00029077   803 0001:00029088   804 0001:00029098   805 0001:000290A8
   807 0001:000290B8   809 0001:000290EE   810 0001:00029104   811 0001:0002911F
   812 0001:0002912A   813 0001:0002914B   814 0001:00029167   815 0001:00029185
   816 0001:00029192   817 0001:000291AD   818 0001:000291B8   819 0001:000291D9
   820 0001:000291E8   822 0001:000291EC   823 0001:00029200   826 0001:0002921B
   828 0001:00029221   829 0001:0002923C   830 0001:00029247   833 0001:00029268
   836 0001:0002928C   837 0001:0002929C   838 0001:000292AC   841 0001:000292BC
   843 0001:000292D5   844 0001:000292E4   845 0001:00029300   846 0001:0002931F
   847 0001:0002932E   848 0001:0002933D   850 0001:0002934C   851 0001:0002936B
   853 0001:0002936F   854 0001:00029393   858 0001:000293D1   859 0001:000293E1
   861 0001:000293E9   862 0001:000293F8   866 0001:0002940C   868 0001:00029423
   869 0001:00029445   870 0001:00029484   871 0001:00029494   873 0001:0002949A
   875 0001:000294A0   876 0001:000294B0   878 0001:000294B6   879 0001:000294C6
   881 0001:000294CC   882 0001:000294DC   883 0001:0002951E   884 0001:00029562
   885 0001:000295A6   886 0001:000295C7   888 0001:000295DB   890 0001:000295DF
   796 0001:000295E2   891 0001:000295EB   893 0001:00029603   894 0001:0002960B
   895 0001:00029613   897 0001:00029655   905 0001:00029844   906 0001:0002986F
   907 0001:0002987E   908 0001:0002988D   909 0001:000298A1   910 0001:000298AD
   911 0001:000298BB   912 0001:000298C6   914 0001:000298E3   915 0001:000298EB
   916 0001:00029908   917 0001:0002993E   918 0001:0002994D   919 0001:00029969
   920 0001:00029988   921 0001:000299A7   922 0001:000299C6   923 0001:000299E5
   925 0001:000299F2   926 0001:00029A11   928 0001:00029A32   929 0001:00029A51
   912 0001:00029A52   930 0001:00029A5B   932 0001:00029A73   933 0001:00029A7B
   934 0001:00029A83   936 0001:00029ABD   944 0001:00029B88   945 0001:00029BB3
   946 0001:00029BC2   947 0001:00029BD1   948 0001:00029BE5   949 0001:00029BF1
   950 0001:00029BFF   951 0001:00029C0A   953 0001:00029C27   954 0001:00029C2F
   955 0001:00029C4C   956 0001:00029C82   957 0001:00029C91   958 0001:00029CAD
   959 0001:00029CCC   960 0001:00029CEB   961 0001:00029D0A   962 0001:00029D29
   963 0001:00029D48   964 0001:00029D67   965 0001:00029D86   951 0001:00029D87
   966 0001:00029D90   968 0001:00029DA8   969 0001:00029DB0   970 0001:00029DB8
   972 0001:00029DF2   980 0001:00029ED0   981 0001:00029EFC   982 0001:00029F0B
   983 0001:00029F1A   984 0001:00029F2E   985 0001:00029F3A   986 0001:00029F48
   987 0001:00029F53   989 0001:00029F6E   990 0001:00029F7D   991 0001:00029F96
   993 0001:00029FBB   994 0001:00029FC3   995 0001:00029FCB   999 0001:00029FE3
  1000 0001:00029FF9  1001 0001:0002A008  1003 0001:0002A00C  1004 0001:0002A022
  1008 0001:0002A02C  1009 0001:0002A042  1012 0001:0002A056  1013 0001:0002A065
  1014 0001:0002A074  1015 0001:0002A083   987 0001:0002A086  1016 0001:0002A08D
  1018 0001:0002A0A5  1019 0001:0002A0AD  1020 0001:0002A0B5  1022 0001:0002A0F4
  1033 0001:0002A15C  1034 0001:0002A187  1035 0001:0002A196  1036 0001:0002A1AA
  1037 0001:0002A1B6  1038 0001:0002A1C4  1040 0001:0002A1D9  1041 0001:0002A1E4
  1042 0001:0002A20A  1043 0001:0002A230  1044 0001:0002A256  1045 0001:0002A27C
  1046 0001:0002A2A2  1047 0001:0002A2C8  1048 0001:0002A2EE  1049 0001:0002A314
  1050 0001:0002A323  1051 0001:0002A341  1052 0001:0002A35F  1053 0001:0002A37D
  1054 0001:0002A39B  1055 0001:0002A3B9  1056 0001:0002A3D7  1057 0001:0002A3F5
  1058 0001:0002A413  1059 0001:0002A423  1061 0001:0002A43E  1062 0001:0002A44D
  1063 0001:0002A470  1064 0001:0002A493  1065 0001:0002A4A2  1066 0001:0002A4B1
  1059 0001:0002A4B2  1067 0001:0002A4B7  1068 0001:0002A4C7  1070 0001:0002A4E2
  1071 0001:0002A4F1  1072 0001:0002A514  1073 0001:0002A537  1074 0001:0002A560
  1075 0001:0002A56F  1076 0001:0002A57E  1077 0001:0002A58D  1068 0001:0002A58E
  1079 0001:0002A597  1081 0001:0002A5AF  1082 0001:0002A5B7  1084 0001:0002A5F9
  1089 0001:0002A708  1090 0001:0002A728  1092 0001:0002A743  1093 0001:0002A757
  1094 0001:0002A765  1095 0001:0002A781  1097 0001:0002A798  1100 0001:0002A7A8
  1101 0001:0002A7D1  1107 0001:0002A80C  1108 0001:0002A837  1109 0001:0002A846
  1110 0001:0002A854  1115 0001:0002A8F3  1116 0001:0002A909  1115 0001:0002A934
  1117 0001:0002A937  1119 0001:0002A94F  1121 0001:0002A981  1128 0001:0002A9CC
  1129 0001:0002A9EE  1130 0001:0002A9F6  1131 0001:0002AA05  1132 0001:0002AA13
  1133 0001:0002AA25  1132 0001:0002AA3D  1134 0001:0002AA40  1135 0001:0002AA65
  1136 0001:0002AA7B  1135 0001:0002AAA6  1137 0001:0002AAA9  1139 0001:0002AAC1
  1141 0001:0002AAFB  1146 0001:0002AB30  1147 0001:0002AB54  1148 0001:0002AB63
  1149 0001:0002AB71  1150 0001:0002AB89  1152 0001:0002ABCB  1154 0001:0002ABFD
  1159 0001:0002AC04  1160 0001:0002AC22  1161 0001:0002AC31  1162 0001:0002AC3F
  1163 0001:0002AC57  1165 0001:0002AC9C  1167 0001:0002ACD1  1172 0001:0002ACEC
  1173 0001:0002AD0B  1174 0001:0002AD1A  1175 0001:0002AD28  1176 0001:0002AD3D
  1178 0001:0002AD54  1180 0001:0002AD81  1185 0001:0002AD88  1186 0001:0002AD9A
  1187 0001:0002AD9D  1188 0001:0002ADBB  1191 0001:0002ADC0  1192 0001:0002ADC3
  1193 0001:0002ADCB  1194 0001:0002ADD1  1195 0001:0002ADD6  1198 0001:0002ADD8
  1199 0001:0002ADDE  1200 0001:0002ADE1  1201 0001:0002ADE6  1202 0001:0002AE06
  1203 0001:0002AE26  1210 0001:0002AE50  1211 0001:0002AE7C  1212 0001:0002AE82
  1214 0001:0002AE8C  1215 0001:0002AED0  1218 0001:0002AF04  1219 0001:0002AF19
  1220 0001:0002AF28  1221 0001:0002AF36  1222 0001:0002AF41  1224 0001:0002AF53
  1225 0001:0002AF80  1226 0001:0002AFAE  1222 0001:0002AFAF  1227 0001:0002AFB2
  1228 0001:0002AFBD  1230 0001:0002AFFE  1232 0001:0002B00E  1235 0001:0002B05E
  1246 0001:0002B0B0  1247 0001:0002B0C1  1248 0001:0002B0CA  1249 0001:0002B0D8
  1250 0001:0002B0E4  1249 0001:0002B0F2  1251 0001:0002B0F5  1252 0001:0002B10F
  1258 0001:0002B130  1259 0001:0002B163  1260 0001:0002B167  1261 0001:0002B16E
  1262 0001:0002B177  1263 0001:0002B184  1264 0001:0002B194  1267 0001:0002B19D
  1268 0001:0002B1B1  1269 0001:0002B1BD  1270 0001:0002B1D6  1271 0001:0002B1E2
  1265 0001:0002B1E4  1273 0001:0002B225  1275 0001:0002B22E  1278 0001:0002B237
  1279 0001:0002B24B  1280 0001:0002B257  1281 0001:0002B270  1282 0001:0002B27C
  1276 0001:0002B27E  1284 0001:0002B299  1286 0001:0002B2A2  1287 0001:0002B2A9
  1290 0001:0002B2D2  1292 0001:0002B2F4  1293 0001:0002B31B  1294 0001:0002B32A
  1295 0001:0002B338  1296 0001:0002B343  1297 0001:0002B34D  1298 0001:0002B352
  1302 0001:0002B363  1303 0001:0002B36E  1304 0001:0002B380  1305 0001:0002B38B
  1303 0001:0002B38E  1307 0001:0002B396  1308 0001:0002B3A2  1307 0001:0002B3D3
  1309 0001:0002B3D6  1310 0001:0002B3E4  1311 0001:0002B3F2  1310 0001:0002B420
  1312 0001:0002B423  1299 0001:0002B42A  1315 0001:0002B44A  1316 0001:0002B45D
  1318 0001:0002B475  1320 0001:0002B4A7  1322 0001:0002B4EC  1322 0001:0002B4F3

Line numbers for EListView(EListView.pas) segment .text

   155 0001:0002B5C8   156 0001:0002B5D1   157 0001:0002B5DF   158 0001:0002B5EC
   167 0001:0002B5F0   168 0001:0002B601   169 0001:0002B60C   170 0001:0002B613
   172 0001:0002B620   173 0001:0002B626   176 0001:0002B62C   177 0001:0002B638
   178 0001:0002B644   179 0001:0002B650   184 0001:0002B65C   187 0001:0002B66F
   189 0001:0002B67F   190 0001:0002B68D   193 0001:0002B69B   194 0001:0002B6AB
   195 0001:0002B6BB   196 0001:0002B6CB   199 0001:0002B6DB   202 0001:0002B6EB
   206 0001:0002B704   210 0001:0002B711   213 0001:0002B72A   216 0001:0002B734
   219 0001:0002B750   222 0001:0002B770   225 0001:0002B78C   228 0001:0002B7A5
   231 0001:0002B7BE   234 0001:0002B7DE   237 0001:0002B7F7   238 0001:0002B80A
   239 0001:0002B81D   240 0001:0002B830   243 0001:0002B843   244 0001:0002B84C
   245 0001:0002B855   246 0001:0002B85E   247 0001:0002B867   248 0001:0002B86D
   251 0001:0002B878   254 0001:0002B880   257 0001:0002B888   262 0001:0002B890
   263 0001:0002B8AF   264 0001:0002B8B8   265 0001:0002B8BC   266 0001:0002B8C1
   267 0001:0002B8C4   268 0001:0002B8C9   269 0001:0002B8D1   270 0001:0002B8DD
   271 0001:0002B8E2   272 0001:0002B8E7   273 0001:0002B8F7   274 0001:0002B907
   275 0001:0002B917   276 0001:0002B927   277 0001:0002B937   278 0001:0002B947
   279 0001:0002B95E   280 0001:0002B96A   281 0001:0002B979   282 0001:0002B988
   283 0001:0002B997   285 0001:0002B9AB   286 0001:0002B9B8   287 0001:0002B9C5
   288 0001:0002B9D2   289 0001:0002B9DF   290 0001:0002B9EC   291 0001:0002BA12
   296 0001:0002BA4C   297 0001:0002BA58   298 0001:0002BA61   299 0001:0002BA6A
   300 0001:0002BA73   301 0001:0002BA7C   302 0001:0002BA85   303 0001:0002BA8E
   304 0001:0002BA97   305 0001:0002BAA0   306 0001:0002BAA9   307 0001:0002BABB
   308 0001:0002BAC8   309 0001:0002BADF   316 0001:0002BAE4   317 0001:0002BB3B
   319 0001:0002BB4C   320 0001:0002BB5F   322 0001:0002BB64   323 0001:0002BB6C
   324 0001:0002BB7B   325 0001:0002BB96   326 0001:0002BB9C   327 0001:0002BBA2
   328 0001:0002BBCD   329 0001:0002BBD3   330 0001:0002BBD7   331 0001:0002BBDB
   332 0001:0002BBE9   333 0001:0002BBF7   335 0001:0002BC06   336 0001:0002BC32
   338 0001:0002BC3B   339 0001:0002BC40   340 0001:0002BC4B   341 0001:0002BC54
   342 0001:0002BC64   344 0001:0002BC6D   345 0001:0002BC78   346 0001:0002BCC2
   352 0001:0002BCD4   355 0001:0002BCFB   356 0001:0002BD02   357 0001:0002BD07
   358 0001:0002BD10   359 0001:0002BD15   360 0001:0002BD1A   363 0001:0002BD20
   367 0001:0002BD2F   368 0001:0002BD34   370 0001:0002BD4E   371 0001:0002BD51
   372 0001:0002BD56   374 0001:0002BD71   377 0001:0002BD88   381 0001:0002BD9F
   382 0001:0002BDA2   384 0001:0002BDBD   385 0001:0002BDD6   377 0001:0002BDD7
   386 0001:0002BDFC   390 0001:0002BE04   391 0001:0002BE15   395 0001:0002BE18
   396 0001:0002BE28   408 0001:0002BE2C   409 0001:0002BE2F   410 0001:0002BE37
   411 0001:0002BE40   413 0001:0002BE6F   415 0001:0002BE74   416 0001:0002BE8A
   417 0001:0002BE9B   418 0001:0002BEA1   419 0001:0002BEA7   420 0001:0002BEB4
   422 0001:0002BEB6   424 0001:0002BEC0   426 0001:0002BEDC   428 0001:0002BEE4
   429 0001:0002BEE8   431 0001:0002BEF5   432 0001:0002BEFF   435 0001:0002BF0F
   436 0001:0002BF1F   437 0001:0002BF2F   439 0001:0002BF3F   443 0001:0002BF51
   444 0001:0002BF67   445 0001:0002BF68   447 0001:0002BF88   433 0001:0002BF89
   450 0001:0002BFB5   452 0001:0002BFC7   454 0001:0002BFD5   460 0001:0002BFE0
   461 0001:0002BFE7   462 0001:0002BFF0   463 0001:0002BFF2   464 0001:0002BFFA
   465 0001:0002C007   466 0001:0002C014   467 0001:0002C01D   472 0001:0002C024
   473 0001:0002C028   474 0001:0002C03D   475 0001:0002C044   478 0001:0002C048
   479 0001:0002C04E   480 0001:0002C057   485 0001:0002C05C   486 0001:0002C05F
   487 0001:0002C066   488 0001:0002C06A   489 0001:0002C070   490 0001:0002C083
   491 0001:0002C087   511 0001:0002C08C   512 0001:0002C094   513 0001:0002C0A7
   514 0001:0002C0AD   515 0001:0002C0B1   517 0001:0002C0D6   518 0001:0002C0F9
   523 0001:0002C100   524 0001:0002C108   525 0001:0002C11B   526 0001:0002C121
   527 0001:0002C125   529 0001:0002C14A   530 0001:0002C16D   535 0001:0002C174
   536 0001:0002C17C   537 0001:0002C18F   538 0001:0002C193   539 0001:0002C19C
   540 0001:0002C1BF   545 0001:0002C1C8   546 0001:0002C1D0   547 0001:0002C1E3
   548 0001:0002C1E9   549 0001:0002C1F0   550 0001:0002C213   552 0001:0002C21C
   553 0001:0002C23B   554 0001:0002C245   555 0001:0002C247   557 0001:0002C257
   558 0001:0002C278   559 0001:0002C299   560 0001:0002C2BA   561 0001:0002C2DB
   562 0001:0002C2FC   563 0001:0002C30D   565 0001:0002C317   566 0001:0002C32D
   567 0001:0002C344   568 0001:0002C357   570 0001:0002C361   571 0001:0002C369
   573 0001:0002C3AA   574 0001:0002C3B6   576 0001:0002C3D1   577 0001:0002C3DA
   578 0001:0002C3E4   579 0001:0002C3E8   580 0001:0002C3FF   581 0001:0002C402
   582 0001:0002C411   583 0001:0002C41A   584 0001:0002C427   585 0001:0002C433
   586 0001:0002C43F   587 0001:0002C458   589 0001:0002C48D   574 0001:0002C48E
   590 0001:0002C497   591 0001:0002C4AA   592 0001:0002C4BD   596 0001:0002C4F2
   597 0001:0002C4F5   598 0001:0002C4FA   601 0001:0002C508   602 0001:0002C50D
   604 0001:0002C521   605 0001:0002C528   607 0001:0002C52D   608 0001:0002C534
   609 0001:0002C546   610 0001:0002C54A   611 0001:0002C54D   612 0001:0002C560
   613 0001:0002C57B   615 0001:0002C5A5   616 0001:0002C5B5   617 0001:0002C5C8
   618 0001:0002C5CC   619 0001:0002C5DD   620 0001:0002C5E6   622 0001:0002C62B
   624 0001:0002C634   625 0001:0002C63D   626 0001:0002C640   627 0001:0002C654
   628 0001:0002C656   633 0001:0002C65C   634 0001:0002C66C   635 0001:0002C678
   636 0001:0002C694   637 0001:0002C697   638 0001:0002C69D   639 0001:0002C6A7
   640 0001:0002C6B1   641 0001:0002C6BA   652 0001:0002C6C4   653 0001:0002C6C7
   654 0001:0002C6EE   659 0001:0002C6F0   660 0001:0002C6FA   661 0001:0002C6FC
   662 0001:0002C703   664 0001:0002C720   665 0001:0002C732   666 0001:0002C736
   667 0001:0002C73D   670 0001:0002C744   672 0001:0002C74C   673 0001:0002C757
   674 0001:0002C769   675 0001:0002C787   676 0001:0002C79C   677 0001:0002C7A6
   678 0001:0002C7B4   680 0001:0002C7C1   681 0001:0002C7D1   682 0001:0002C7F6
   683 0001:0002C7FE   685 0001:0002C811   687 0001:0002C824   688 0001:0002C833
   689 0001:0002C83A   690 0001:0002C849   694 0001:0002C85C   695 0001:0002C86D
   697 0001:0002C8A0   697 0001:0002C8A7

Line numbers for EDisAsm(EDisAsm.pas) segment .text

   428 0001:00031F6C   429 0001:00031F8A   430 0001:00031F8E   432 0001:00031FAD
   433 0001:00031FEA   447 0001:0003200C   448 0001:0003200F   449 0001:0003201F
   450 0001:00032028   453 0001:0003202C   454 0001:0003202F   455 0001:00032040
   456 0001:00032049   459 0001:0003204C   460 0001:0003204F   461 0001:0003205F
   462 0001:00032067   467 0001:0003206C   468 0001:0003208D   469 0001:00032099
   470 0001:000320A1   471 0001:000320C3   472 0001:000320CF   473 0001:000320F5
   474 0001:0003215A   483 0001:00032174   484 0001:00032177   486 0001:00032180
   487 0001:00032190   489 0001:00032197   490 0001:0003219D   499 0001:000321A0
   500 0001:000321A3   502 0001:000321AC   503 0001:000321BC   505 0001:000321C3
   506 0001:000321C9   527 0001:000321CC   528 0001:000321EF   529 0001:000321FB
   532 0001:0003224D   533 0001:00032259   535 0001:00032267   536 0001:0003226E
   538 0001:000322CA   551 0001:000322E0   552 0001:000322FD   553 0001:00032312
   554 0001:0003232C   557 0001:00032349   558 0001:0003237E   559 0001:0003238F
   560 0001:0003239D   561 0001:000323AB   562 0001:000323B9   563 0001:000323C7
   564 0001:000323D0   566 0001:000323DE   567 0001:00032402   568 0001:00032410
   570 0001:0003241C   572 0001:0003242B   573 0001:0003243A   577 0001:0003244A
   578 0001:0003247E   579 0001:0003248C   580 0001:0003249A   581 0001:000324A8
   582 0001:000324B6   583 0001:000324C4   584 0001:000324D2   586 0001:000324DE
   587 0001:000324E3   590 0001:000324EF   592 0001:000324F8   595 0001:0003250B
   596 0001:00032514   600 0001:00032526   601 0001:00032532   605 0001:00032544
   606 0001:00032550   610 0001:00032562   611 0001:0003256E   614 0001:0003259B
   618 0001:000326C4   619 0001:000326E2   620 0001:000326F4   623 0001:0003270E
   625 0001:00032714   626 0001:00032722   629 0001:00032727   632 0001:00032747
   633 0001:00032753   636 0001:0003276F   637 0001:00032787   639 0001:00032791
   642 0001:000327A1   644 0001:000327B4   645 0001:000327DF   646 0001:000327F2
   647 0001:0003281D   653 0001:00032822   655 0001:0003282D   656 0001:00032858
   657 0001:0003286B   658 0001:00032896   663 0001:0003289B   664 0001:000328AB
   665 0001:000328DF   666 0001:000328F0   667 0001:00032901   668 0001:00032912
   669 0001:00032923   670 0001:00032934   671 0001:00032945   672 0001:00032956
   676 0001:00032967   677 0001:0003299B   678 0001:000329A9   679 0001:000329B7
   680 0001:000329C5   681 0001:000329D3   682 0001:000329E9   683 0001:000329F7
   684 0001:00032A05   686 0001:00032A11   688 0001:00032A16   689 0001:00032A1F
   694 0001:00032A2C   696 0001:00032A3B   700 0001:00032A49   701 0001:00032A59
   702 0001:00032A7E   705 0001:00032A89   709 0001:00032AB4   710 0001:00032AC3
   711 0001:00032B10   715 0001:00032C34   716 0001:00032C63   718 0001:00032C6A
   720 0001:00032CD3   721 0001:00032CDC   723 0001:00032CEB   725 0001:00032CFA
   727 0001:00032D09   728 0001:00032D12   730 0001:00032D1E   732 0001:00032D2A
   734 0001:00032D36   736 0001:00032D47   738 0001:00032D53   740 0001:00032D5F
   742 0001:00032D6D   744 0001:00032D79   746 0001:00032D85   749 0001:00032D8C
   751 0001:00032DF4   754 0001:00032DF9   755 0001:00032E02   757 0001:00032E16
   758 0001:00032E1D   759 0001:00032E26   761 0001:00032E42   765 0001:00032E77
   768 0001:00032E88   771 0001:00032E8D   772 0001:00032EB8   776 0001:00032EC4
   779 0001:00032ED5   782 0001:00032EDA   783 0001:00032F05   787 0001:00032F11
   791 0001:00032F22   799 0001:00032F3D   800 0001:00032F65   806 0001:00032F71
   807 0001:00032F84   808 0001:00032F93   809 0001:00032FA2   810 0001:00032FB0
   812 0001:00032FB5   813 0001:00032FC6   814 0001:00032FD2   815 0001:00033001
   820 0001:00033049   821 0001:00033050   822 0001:0003305B   821 0001:00033083
   823 0001:00033088   824 0001:00033096   825 0001:000330A2   827 0001:000330D1
   833 0001:00033119   834 0001:0003312C   835 0001:0003313B   836 0001:0003314A
   837 0001:00033158   840 0001:0003315D   842 0001:0003316E   844 0001:00033184
   845 0001:000331BA   847 0001:000331FD   849 0001:00033217   850 0001:0003324D
   855 0001:00033295   856 0001:0003329E   859 0001:000332EC   860 0001:00033328
   861 0001:00033338   867 0001:0003335C   868 0001:00033387   872 0001:00033393
   875 0001:000333A3   876 0001:000333CE   880 0001:000333DA   883 0001:000333F5
   884 0001:00033431   885 0001:0003343F   886 0001:0003344D   887 0001:0003345B
   888 0001:00033469   889 0001:00033477   895 0001:00033485   896 0001:000334B0
   900 0001:000334F3   905 0001:000335D0   906 0001:000335DC   908 0001:00033638
   909 0001:0003363D   911 0001:0003365F   912 0001:0003366D   914 0001:000336A5
   917 0001:000336D8   918 0001:000336E1   920 0001:00033715   925 0001:00033723
   926 0001:0003372A   927 0001:0003375D   933 0001:0003377F   934 0001:00033789
   935 0001:00033795   937 0001:0003379F   941 0001:000337C1   942 0001:000337CA
   943 0001:000337DE   944 0001:000337EF   945 0001:00033800   948 0001:00033811
   949 0001:00033825   950 0001:00033836   951 0001:00033847   957 0001:00033855
   958 0001:0003385C   963 0001:00033865   967 0001:00033897   969 0001:000338C7
   973 0001:00033908   974 0001:00033942   975 0001:00033949   976 0001:0003394E
   977 0001:00033955   978 0001:00033959   979 0001:00033960   980 0001:00033964
   981 0001:00033968   982 0001:0003396C   983 0001:00033971   984 0001:00033976
   985 0001:0003397B   986 0001:00033995   988 0001:0003399F   991 0001:000339B6
   992 0001:000339DF   996 0001:000339EF   997 0001:00033A11  1002 0001:00033A21
  1003 0001:00033A23  1004 0001:00033A2B  1006 0001:00033A3B   987 0001:00033A3C
  1009 0001:00033A4C  1011 0001:00033A56  1014 0001:00033A64  1015 0001:00033A79
  1016 0001:00033A83  1017 0001:00033AC6  1018 0001:00033ADA  1019 0001:00033AEE
  1021 0001:00033B02  1022 0001:00033B16  1024 0001:00033B2A  1029 0001:00033B3E
  1030 0001:00033B4D  1031 0001:00033B58  1030 0001:00033B8B  1032 0001:00033B8F
  1035 0001:00033BBF  1037 0001:00033BCF  1010 0001:00033BD0  1039 0001:00033C0A
  1041 0001:00033D44  1041 0001:00033D4B

Line numbers for ExceptionLog(ExceptionLog.pas) segment .text

  1207 0001:00035284  1208 0001:0003529C  1209 0001:000352A8  1210 0001:000352C9
  1216 0001:000352D0  1217 0001:000352E3  1228 0001:000352E4  1229 0001:000352F2
  1231 0001:000352F6  1232 0001:00035304  1234 0001:00035322  1237 0001:00035331
  1238 0001:0003533B  1239 0001:00035349  1240 0001:00035357  1242 0001:00035368
  1246 0001:00035379  1247 0001:00035381  1248 0001:00035389  1249 0001:00035391
  1250 0001:00035399  1251 0001:0003539D  1253 0001:0003539F  1240 0001:000353A2
  1255 0001:000353B4  1258 0001:000353CA  1260 0001:000353DF  1269 0001:000353E8
  1270 0001:000353F1  1271 0001:000353FD  1272 0001:00035407  1273 0001:00035411
  1274 0001:0003541B  1275 0001:00035425  1276 0001:0003542F  1277 0001:00035439
  1279 0001:0003543C  1280 0001:0003544D  1281 0001:0003545B  1283 0001:0003547F
  1286 0001:0003548E  1287 0001:00035498  1288 0001:000354A6  1289 0001:000354B4
  1291 0001:000354BD  1292 0001:000354D1  1296 0001:000354E0  1297 0001:000354EC
  1301 0001:00035501  1304 0001:0003551A  1306 0001:0003552C  1312 0001:00035538
  1313 0001:00035550  1317 0001:00035554  1318 0001:00035566  1319 0001:0003556D
  1327 0001:00035570  1328 0001:00035595  1330 0001:000355AB  1331 0001:000355BD
  1332 0001:000355CB  1334 0001:000355CF  1336 0001:000355D2  1335 0001:000355D3
  1337 0001:000355E7  1338 0001:000355F2  1340 0001:00035606  1343 0001:00035622
  1344 0001:00035649  1347 0001:0003565C  1348 0001:00035672  1349 0001:000356A4
  1390 0001:000356A8  1391 0001:000356AE  1392 0001:000356B7  1402 0001:000356BC
  1403 0001:000356EA  1404 0001:000356F3  1405 0001:000356FC  1406 0001:00035708
  1407 0001:00035711  1408 0001:00035788  1413 0001:00035838  1414 0001:00035843
  1416 0001:0003584C  1417 0001:00035858  1419 0001:00035869  1420 0001:00035880
  1425 0001:00035884  1426 0001:000358B5  1427 0001:000358B9  1429 0001:000358C5
  1430 0001:000358F1  1433 0001:000358FC  1434 0001:0003591F  1435 0001:00035949
  1440 0001:00035950  1441 0001:00035959  1442 0001:00035964  1443 0001:00035972
  1449 0001:0003597C  1450 0001:0003599D  1451 0001:000359A5  1453 0001:000359A9
  1454 0001:000359AD  1455 0001:000359BF  1457 0001:000359C6  1458 0001:000359E0
  1461 0001:000359E6  1463 0001:000359EC  1464 0001:000359FC  1465 0001:00035A00
  1454 0001:00035A01  1467 0001:00035A21  1472 0001:00035A34  1473 0001:00035A3D
  1474 0001:00035A46  1475 0001:00035A55  1474 0001:00035A61  1476 0001:00035A64
  1483 0001:00035A74  1484 0001:00035A7D  1485 0001:00035A86  1486 0001:00035AA8
  1488 0001:00035ABC  1489 0001:00035AED  1490 0001:00035AF4  1491 0001:00035B12
  1492 0001:00035B30  1493 0001:00035B4E  1494 0001:00035BB9  1495 0001:00035C24
  1496 0001:00035C8F  1497 0001:00035D0E  1504 0001:00035D7C  1505 0001:00035D82
  1506 0001:00035D84  1507 0001:00035D92  1509 0001:00035DB4  1511 0001:00035DC0
  1513 0001:00035DC8  1516 0001:00035DCB  1517 0001:00035DCE  1518 0001:00035DD7
  1520 0001:00035DDD  1521 0001:00035DED  1526 0001:00035DF4  1527 0001:00035E17
  1528 0001:00035E26  1529 0001:00035E34  1530 0001:00035E50  1531 0001:00035E5C
  1533 0001:00035E73  1535 0001:00035EA0  1538 0001:00035EA8  1539 0001:00035EAB
  1540 0001:00035EBD  1541 0001:00035ECB  1544 0001:00035ED0  1545 0001:00035EED
  1546 0001:00035EFF  1547 0001:00035F1E  1548 0001:00035F3D  1549 0001:00035F7E
  1556 0001:00035FE8  1557 0001:0003600E  1558 0001:0003601D  1559 0001:0003602B
  1560 0001:00036040  1561 0001:00036074  1563 0001:0003608D  1564 0001:0003609A
  1565 0001:000360A9  1567 0001:000360D7  1570 0001:000360F4  1571 0001:00036103
  1573 0001:00036107  1574 0001:0003612C  1576 0001:00036175  1579 0001:00036185
  1580 0001:00036192  1561 0001:00036193  1581 0001:0003619C  1582 0001:000361A7
  1584 0001:000361E0  1586 0001:000361F0  1587 0001:00036265  1594 0001:00036428
  1595 0001:00036457  1596 0001:00036466  1597 0001:00036474  1598 0001:00036489
  1600 0001:000364A0  1601 0001:000364AD  1603 0001:000364D2  1604 0001:000364E2
  1605 0001:000364F4  1606 0001:00036506  1607 0001:0003651B  1609 0001:00036528
  1610 0001:00036535  1611 0001:00036548  1612 0001:00036555  1598 0001:00036556
  1613 0001:0003655F  1614 0001:0003656A  1616 0001:000365A3  1618 0001:000365B3
  1619 0001:00036628  1631 0001:000367C4  1632 0001:000367EA  1633 0001:000367F4
  1634 0001:00036802  1635 0001:00036811  1637 0001:00036832  1639 0001:00036845
  1640 0001:00036854  1641 0001:00036862  1642 0001:00036878  1643 0001:000368AC
  1644 0001:000368E6  1646 0001:000368EB  1647 0001:000368F8  1648 0001:0003690A
  1649 0001:0003691C  1650 0001:0003692E  1651 0001:00036940  1652 0001:0003694D
  1644 0001:0003694E  1653 0001:00036953  1654 0001:00036963  1655 0001:000369C2
  1656 0001:00036A06  1657 0001:00036A16  1658 0001:00036A28  1659 0001:00036A3A
  1660 0001:00036A64  1662 0001:00036A7E  1663 0001:00036A8B  1664 0001:00036A9D
  1665 0001:00036AAF  1666 0001:00036AC1  1667 0001:00036AD3  1668 0001:00036AE5
  1669 0001:00036AF7  1670 0001:00036B04  1671 0001:00036B11  1660 0001:00036B12
  1672 0001:00036B19  1673 0001:00036B24  1675 0001:00036B5D  1677 0001:00036B6D
  1678 0001:00036BE2  1686 0001:00036DC4  1687 0001:00036DCD  1688 0001:00036DD4
  1689 0001:00036DDF  1690 0001:00036DEF  1696 0001:00036DF8  1697 0001:00036E01
  1698 0001:00036E08  1699 0001:00036E13  1700 0001:00036E23  1703 0001:00036E2C
  1704 0001:00036E2F  1707 0001:00036E44  1708 0001:00036E49  1710 0001:00036E5E
  1711 0001:00036E63  1713 0001:00036E78  1717 0001:00036F48  1718 0001:00036F77
  1719 0001:00036F7B  1720 0001:00036F7E  1722 0001:00036FD7  1724 0001:00036FDF
  1726 0001:00036FF0  1727 0001:00036FF6  1732 0001:00036FFD  1734 0001:00037009
  1735 0001:0003701C  1736 0001:00037020  1737 0001:00037028  1738 0001:0003702E
  1741 0001:00037087  1742 0001:0003709A  1743 0001:0003709E  1746 0001:000370C9
  1749 0001:000370D4  1750 0001:000370DA  1752 0001:000370DF  1753 0001:000370E6
  1754 0001:000370EE  1755 0001:000370F2  1756 0001:000370FA  1758 0001:000370FE
  1763 0001:00037104  1764 0001:00037124  1765 0001:0003712D  1766 0001:0003714C
  1767 0001:0003716B  1768 0001:0003718A  1769 0001:000371A9  1770 0001:000371C8
  1771 0001:000371E7  1772 0001:00037228  1779 0001:000372FC  1780 0001:0003730B
  1781 0001:0003731B  1783 0001:0003731F  1784 0001:0003732B  1786 0001:00037332
  1787 0001:00037337  1788 0001:0003733A  1789 0001:00037346  1796 0001:00037350
  1797 0001:00037353  1798 0001:0003735F  1799 0001:0003736E  1800 0001:00037372
  1803 0001:00037376  1804 0001:00037381  1806 0001:00037386  1812 0001:000373C0
  1813 0001:000373C6  1814 0001:000373D0  1816 0001:000373DF  1817 0001:000373E1
  1820 0001:000373E5  1822 0001:00037408  1824 0001:0003741C  1829 0001:00037420
  1830 0001:00037425  1831 0001:0003742E  1833 0001:00037432  1834 0001:0003743D
  1836 0001:00037449  1841 0001:00037450  1842 0001:00037456  1843 0001:00037458
  1846 0001:0003745C  1848 0001:00037465  1850 0001:00037470  1851 0001:0003747D
  1854 0001:00037484  1855 0001:00037487  1857 0001:0003748C  1858 0001:0003749E
  1859 0001:000374A2  1865 0001:000374A4  1866 0001:000374AB  1869 0001:000374AC
  1870 0001:000374B0  1882 0001:00037508  1885 0001:0003750C  1886 0001:0003750F
  1891 0001:00037534  1896 0001:00037538  1897 0001:0003756A  1900 0001:0003756E
  1902 0001:00037579  1903 0001:000375D0  1898 0001:000375DD  1905 0001:00037619
  1910 0001:00037620  1911 0001:00037626  1912 0001:0003763A  1913 0001:0003763C
  1914 0001:00037643  1917 0001:00037648  1918 0001:0003766A  1919 0001:000376B0
  1924 0001:000376B8  1925 0001:000376D1  1926 0001:000376D3  1927 0001:000376DC
  1926 0001:000376F9  1928 0001:000376FE  1940 0001:0003770C  1941 0001:0003773E
  1944 0001:00037742  1945 0001:00037799  1942 0001:000377A6  1947 0001:000377E2
  1952 0001:000377EC  1953 0001:000377EF  1954 0001:000377FA  1955 0001:000377FC
  1956 0001:00037803  1962 0001:00037808  1963 0001:0003780B  1964 0001:0003782C
  1968 0001:00037840  1970 0001:0003785B  1974 0001:0003785C  1976 0001:00037875
  1979 0001:00037878  1980 0001:00037890  1981 0001:0003789C  1983 0001:000378B2
  1985 0001:000378CE  1986 0001:000378EC  1988 0001:000378FD  1990 0001:0003790E
  1991 0001:0003792C  1993 0001:0003793D  1994 0001:0003794B  1997 0001:00037959
  1998 0001:0003796D  1999 0001:0003797B  2001 0001:0003798E  2003 0001:0003799C
  2005 0001:000379AA  2007 0001:000379B8  2010 0001:000379E6  2018 0001:00037AB4
  2024 0001:00037AF9  2025 0001:00037B06  2026 0001:00037B13  2027 0001:00037B20
  2028 0001:00037B2D  2029 0001:00037B3A  2030 0001:00037B47  2031 0001:00037B54
  2032 0001:00037B61  2033 0001:00037B6E  2034 0001:00037B7B  2035 0001:00037B88
  2036 0001:00037B95  2037 0001:00037BA2  2038 0001:00037BAF  2039 0001:00037BBC
  2040 0001:00037BC9  2041 0001:00037BD6  2042 0001:00037BE3  2044 0001:00037BF0
  2045 0001:00037BFD  2046 0001:00037C15  2047 0001:00037C34  2048 0001:00037C41
  2049 0001:00037C55  2050 0001:00037C6D  2052 0001:00037D47  2057 0001:00037E84
  2059 0001:00037E87  2063 0001:00037E96  2092 0001:00037E98  2093 0001:00037E9A
  2094 0001:00037E9D  2098 0001:00037EA0  2099 0001:00037EA7  2101 0001:00037EA8
  2102 0001:00037ED6  2103 0001:00037EDE  2104 0001:00037EED  2105 0001:00037EFB
  2106 0001:00037F0E  2107 0001:00037F1C  2109 0001:00037F2A  2113 0001:00037F5E
  2116 0001:00037F88  2118 0001:00037F9A  2119 0001:00037FAE  2121 0001:00037FC5
  2126 0001:00038069  2127 0001:00038071  2130 0001:00038104  2116 0001:00038105
  2132 0001:00038119  2134 0001:00038153  2139 0001:000381BC  2140 0001:000381E3
  2141 0001:000381F0  2142 0001:000381FE  2143 0001:00038215  2149 0001:000382CC
  2151 0001:00038303  2153 0001:00038340  2154 0001:00038364  2155 0001:0003836B
  2156 0001:00038379  2158 0001:000383AB  2161 0001:000383C7  2162 0001:000383CE
  2164 0001:000383E2  2165 0001:000383F4  2167 0001:000383F7  2168 0001:00038407
  2172 0001:00038429  2173 0001:00038436  2175 0001:0003843E  2176 0001:0003844C
  2178 0001:0003846E  2179 0001:00038476  2181 0001:000384DA  2183 0001:000384E8
  2184 0001:000384F0  2185 0001:00038500  2187 0001:0003850B  2188 0001:0003853F
  2185 0001:00038540  2190 0001:00038543  2197 0001:00038656  2198 0001:00038676
  2200 0001:00038690  2202 0001:0003869E  2203 0001:000386A8  2204 0001:000386B2
  2207 0001:000386B9  2210 0001:000386FB  2212 0001:0003871B  2215 0001:00038737
  2221 0001:00038781  2223 0001:000387D2  2228 0001:00038A7C  2229 0001:00038AA1
  2230 0001:00038AA7  2231 0001:00038AB3  2234 0001:00038B0B  2236 0001:00038B19
  2237 0001:00038B2A  2240 0001:00038B6D  2244 0001:00038BB8  2245 0001:00038BBF
  2246 0001:00038BC9  2249 0001:00038BCC  2250 0001:00038BF6  2251 0001:00038C0A
  2254 0001:00038C45  2258 0001:00038C96  2269 0001:00038CC8  2270 0001:00038CD2
  2271 0001:00038CD4  2273 0001:00038CE2  2274 0001:00038CE8  2275 0001:00038CEE
  2277 0001:00038CFE  2279 0001:00038D04  2280 0001:00038D09  2281 0001:00038D24
  2283 0001:00038D28  2284 0001:00038D32  2286 0001:00038D3F  2287 0001:00038D49
  2288 0001:00038D51  2290 0001:00038D5B  2291 0001:00038D65  2294 0001:00038D88
  2309 0001:00038D8C  2310 0001:00038D98  2311 0001:00038DA2  2313 0001:00038DB4
  2314 0001:00038DB7  2317 0001:00038DBB  2318 0001:00038DBD  2320 0001:00038DC4
  2321 0001:00038DC7  2322 0001:00038DCA  2323 0001:00038DD0  2324 0001:00038DDD
  2325 0001:00038DE1  2372 0001:00038DE4  2373 0001:00038DF2  2374 0001:00038DFC
  2376 0001:00038E0D  2378 0001:00038E25  2379 0001:00038E30  2380 0001:00038E3B
  2381 0001:00038E46  2384 0001:00038E51  2385 0001:00038E53  2387 0001:00038E5C
  2388 0001:00038E64  2389 0001:00038E67  2390 0001:00038E8B  2391 0001:00038E98
  2392 0001:00038EA2  2393 0001:00038EBB  2398 0001:00038EC4  2399 0001:00038EC5
  2400 0001:00038ECC  2401 0001:00038ED7  2404 0001:00038EDC  2405 0001:00038EDF
  2406 0001:00038EEF  2413 0001:00038EF4  2414 0001:00038EFC  2415 0001:00038F06
  2416 0001:00038F1A  2417 0001:00038F1C  2420 0001:00038F24  2421 0001:00038F2E
  2422 0001:00038F3E  2430 0001:00038F40  2431 0001:00038F4A  2433 0001:00038F52
  2434 0001:00038F5C  2435 0001:00038F63  2436 0001:00038F71  2437 0001:00038F7F
  2438 0001:00038F8D  2439 0001:00038F99  2440 0001:00038FA7  2441 0001:00038FB8
  2442 0001:00038FBD  2444 0001:00038FD5  2447 0001:00038FF3  2450 0001:00039011
  2452 0001:0003901E  2458 0001:00039024  2459 0001:00039027  2461 0001:0003902B
  2462 0001:00039031  2463 0001:00039041  2468 0001:00039070  2469 0001:0003907D
  2476 0001:00039084  2477 0001:00039099  2478 0001:000390A2  2479 0001:000390C7
  2482 0001:000390CC  2483 0001:000390D7  2484 0001:000390E2  2485 0001:000390F9
  2488 0001:000390FC  2489 0001:00039107  2490 0001:00039109  2491 0001:0003911E
  2492 0001:00039131  2521 0001:00039138  2529 0001:00039143  2530 0001:00039145
  2532 0001:00039157  2534 0001:0003915B  2533 0001:0003915C  2535 0001:00039175
  2537 0001:00039180  2538 0001:00039199  2541 0001:000391A7  2542 0001:000391B1
  2543 0001:000391BC  2547 0001:000391CF  2548 0001:000391DA  2550 0001:000391ED
  2555 0001:000391F4  2556 0001:000391F7  2557 0001:00039203  2565 0001:00039208
  2566 0001:0003920E  2567 0001:00039219  2568 0001:0003922A  2569 0001:00039238
  2571 0001:00039254  2572 0001:00039260  2574 0001:0003927A  2575 0001:00039289
  2577 0001:000392BA  2581 0001:000392CF  2583 0001:000392E2  2592 0001:000392E8
  2593 0001:00039304  2594 0001:00039308  2595 0001:00039319  2596 0001:00039327
  2598 0001:0003934B  2599 0001:00039357  2601 0001:00039379  2602 0001:00039388
  2604 0001:000393AD  2607 0001:000393CB  2609 0001:000393EA  2610 0001:000393F8
  2612 0001:00039420  2615 0001:00039426  2618 0001:00039437  2622 0001:00039448
  2627 0001:00039459  2629 0001:00039489  2632 0001:000394AC  2633 0001:000394C7
  2634 0001:000394D0  2635 0001:000394F9  2636 0001:0003950E  2637 0001:00039565
  2640 0001:00039588  2641 0001:000395A7  2642 0001:000395B4  2643 0001:00039600
  2648 0001:00039618  2649 0001:00039632  2650 0001:0003963B  2651 0001:00039640
  2654 0001:00039644  2655 0001:0003964E  2652 0001:0003964F  2657 0001:0003965F
  2658 0001:000396A3  2673 0001:000396B8  2674 0001:000396E2  2675 0001:000396E9
  2676 0001:000396F0  2677 0001:000396F5  2678 0001:00039709  2680 0001:00039713
  2681 0001:0003971E  2682 0001:0003972C  2684 0001:0003974B  2686 0001:00039769
  2690 0001:000397AD  2691 0001:000397B2  2692 0001:000397D6  2694 0001:000397EA
  2696 0001:00039808  2697 0001:00039815  2698 0001:0003981C  2699 0001:0003982B
  2700 0001:00039836  2702 0001:0003988B  2706 0001:000398AD  2709 0001:000398E2
  2712 0001:00039960  2713 0001:00039966  2715 0001:0003996D  2716 0001:0003999A
  2717 0001:000399A9  2718 0001:000399B8  2719 0001:000399C7  2720 0001:000399D6
  2721 0001:000399E5  2723 0001:000399F1  2726 0001:00039A64  2727 0001:00039A6A
  2728 0001:00039A7D  2729 0001:00039A8A  2734 0001:00039A9C  2735 0001:00039AB4
  2736 0001:00039AF2  2741 0001:00039AF8  2742 0001:00039B01  2743 0001:00039B19
  2744 0001:00039B1F  2745 0001:00039B21  2749 0001:00039B2C  2750 0001:00039B30
  2767 0001:00039B34  2768 0001:00039B3C  2769 0001:00039B49  2770 0001:00039B53
  2771 0001:00039B61  2772 0001:00039B71  2774 0001:00039B79  2776 0001:00039B8E
  2777 0001:00039B98  2778 0001:00039BA6  2780 0001:00039BB8  2781 0001:00039BC3
  2782 0001:00039BD1  2783 0001:00039BE7  2784 0001:00039BF5  2785 0001:00039C04
  2783 0001:00039C10  2787 0001:00039C20  2791 0001:00039C40  2795 0001:00039C5E
  2797 0001:00039C6F  2807 0001:00039C98  2808 0001:00039CA4  2809 0001:00039CB1
  2810 0001:00039CBB  2811 0001:00039CC9  2812 0001:00039CD9  2813 0001:00039CE9
  2814 0001:00039CF9  2817 0001:00039D11  2818 0001:00039D1E  2819 0001:00039D28
  2820 0001:00039D36  2821 0001:00039D48  2822 0001:00039D52  2825 0001:00039D67
  2826 0001:00039D76  2827 0001:00039D81  2823 0001:00039D94  2830 0001:00039DA5
  2834 0001:00039DC3  2836 0001:00039DD4  2838 0001:00039E28  2839 0001:00039E32
  2841 0001:00039E36  2842 0001:00039E4D  2840 0001:00039E56  2844 0001:00039E60
  2845 0001:00039E67  2846 0001:00039E75  2847 0001:00039E7F  2849 0001:00039E86
  2850 0001:00039E8B  2852 0001:00039EA4  2854 0001:00039EB3  2858 0001:00039EB8
  2859 0001:00039EBC  2939 0001:00039EC0  2940 0001:00039ED9  2944 0001:00039EDC
  2945 0001:00039EF5  2950 0001:00039EF8  2951 0001:00039F04  2953 0001:00039F0B
  2954 0001:00039F0D  2956 0001:00039F16  2958 0001:00039F1A  2959 0001:00039F1F
  2961 0001:00039F37  2963 0001:00039F4F  2965 0001:00039F62  2966 0001:00039F65
  2956 0001:00039F67  2969 0001:00039F6E  2974 0001:00039F78  2975 0001:00039F82
  2976 0001:00039F84  2978 0001:00039F8D  2979 0001:00039FA0  2980 0001:00039FA5
  2988 0001:00039FAC  2989 0001:00039FB4  2992 0001:00039FDB  2994 0001:00039FEA
  2995 0001:00039FEC  2996 0001:00039FFA  2998 0001:0003A003  2999 0001:0003A012
  3000 0001:0003A019  3003 0001:0003A02E  3005 0001:0003A046  3008 0001:0003A057
  3009 0001:0003A061  3011 0001:0003A075  3001 0001:0003A088  3013 0001:0003A08C
  3015 0001:0003A092  3058 0001:0003A098  3059 0001:0003A0B5  3061 0001:0003A0C5
  3062 0001:0003A0CF  3064 0001:0003A0DD  3065 0001:0003A0E5  3067 0001:0003A0EE
  3068 0001:0003A0FB  3069 0001:0003A117  3070 0001:0003A126  3072 0001:0003A12E
  3074 0001:0003A13E  3076 0001:0003A154  3078 0001:0003A161  3079 0001:0003A173
  3082 0001:0003A17E  3086 0001:0003A18C  3087 0001:0003A18E  3088 0001:0003A19A
  3089 0001:0003A1AA  3091 0001:0003A1AF  3093 0001:0003A1C8  3095 0001:0003A1FB
  3104 0001:0003A204  3106 0001:0003A20B  3108 0001:0003A217  3110 0001:0003A223
  3112 0001:0003A22F  3114 0001:0003A23B  3115 0001:0003A247  3116 0001:0003A24C
  3126 0001:0003A250  3127 0001:0003A276  3129 0001:0003A27F  3130 0001:0003A28C
  3131 0001:0003A296  3132 0001:0003A2A4  3133 0001:0003A2BB  3134 0001:0003A2CC
  3135 0001:0003A2DC  3138 0001:0003A2FE  3139 0001:0003A312  3140 0001:0003A31C
  3141 0001:0003A32A  3142 0001:0003A33C  3143 0001:0003A346  3146 0001:0003A35C
  3147 0001:0003A36F  3149 0001:0003A37D  3150 0001:0003A38F  3152 0001:0003A39B
  3144 0001:0003A3AE  3155 0001:0003A3BF  3159 0001:0003A3DD  3161 0001:0003A40B
  3198 0001:0003A460  3199 0001:0003A4A6  3201 0001:0003A4B9  3203 0001:0003A4C3
  3204 0001:0003A4DA  3206 0001:0003A50F  3207 0001:0003A521  3210 0001:0003A52C
  3211 0001:0003A543  3215 0001:0003A551  3216 0001:0003A559  3217 0001:0003A567
  3218 0001:0003A56C  3219 0001:0003A575  3221 0001:0003A57C  3222 0001:0003A5B5
  3229 0001:0003A5BC  3230 0001:0003A5DB  3233 0001:0003A602  3234 0001:0003A611
  3235 0001:0003A61B  3236 0001:0003A629  3237 0001:0003A633  3240 0001:0003A64E
  3241 0001:0003A669  3242 0001:0003A695  3238 0001:0003A6AE  3245 0001:0003A6BF
  3247 0001:0003A6F0  3254 0001:0003A6F4  3255 0001:0003A703  3257 0001:0003A70C
  3259 0001:0003A728  3261 0001:0003A73A  3262 0001:0003A748  3259 0001:0003A74B
  3264 0001:0003A74E  3266 0001:0003A754  3267 0001:0003A75B  3269 0001:0003A75F
  3271 0001:0003A769  3272 0001:0003A776  3273 0001:0003A782  3275 0001:0003A790
  3276 0001:0003A7A1  3277 0001:0003A7B2  3280 0001:0003A7C3  3281 0001:0003A7D1
  3282 0001:0003A7DF  3283 0001:0003A7ED  3284 0001:0003A7FB  3286 0001:0003A809
  3287 0001:0003A81B  3289 0001:0003A822  3290 0001:0003A831  3293 0001:0003A84B
  3295 0001:0003A862  3305 0001:0003A920  3310 0001:0003A92D  3321 0001:0003A930
  3322 0001:0003A939  3330 0001:0003A93C  3331 0001:0003A95D  3340 0001:0003A970
  3341 0001:0003A974  3343 0001:0003A9A5  3345 0001:0003A9A9  3346 0001:0003A9B5
  3347 0001:0003A9BA  3349 0001:0003A9C5  3351 0001:0003A9E0  3352 0001:0003A9FA
  3353 0001:0003A9FC  3356 0001:0003AA47  3358 0001:0003AA72  3359 0001:0003AA81
  3360 0001:0003AA8A  3361 0001:0003AABC  3364 0001:0003AAEC  3370 0001:0003AB3C
  3373 0001:0003AB63  3379 0001:0003AB78  3380 0001:0003AB82  3386 0001:0003AB84
  3387 0001:0003ABAD  3393 0001:0003ABB0  3394 0001:0003ABC8  3411 0001:0003ABCC
  3412 0001:0003AC02  3413 0001:0003AC06  3419 0001:0003AC93  3421 0001:0003ACA0
  3423 0001:0003ACAD  3424 0001:0003ACB4  3425 0001:0003ACC2  3426 0001:0003ACCE
  3428 0001:0003AD0F  3429 0001:0003AD1A  3431 0001:0003AD45  3436 0001:0003AD54
  3437 0001:0003AD58  3441 0001:0003AD69  3443 0001:0003AD72  3445 0001:0003AD90
  3446 0001:0003AD96  3449 0001:0003ADB4  3453 0001:0003ADC5  3455 0001:0003ADD2
  3456 0001:0003ADE0  3457 0001:0003ADEE  3460 0001:0003AE07  3461 0001:0003AE21
  3462 0001:0003AE2F  3463 0001:0003AE44  3465 0001:0003AE66  3468 0001:0003AE85
  3469 0001:0003AE89  3472 0001:0003AED7  3481 0001:0003AFD4  3482 0001:0003AFF9
  3483 0001:0003B001  3484 0001:0003B025  3487 0001:0003B03B  3488 0001:0003B04E
  3489 0001:0003B05C  3491 0001:0003B07A  3496 0001:0003B08A  3497 0001:0003B0B1
  3499 0001:0003B0B5  3500 0001:0003B0C4  3504 0001:0003B0D3  3505 0001:0003B0ED
  3506 0001:0003B105  3507 0001:0003B10D  3510 0001:0003B147  3513 0001:0003B186
  3514 0001:0003B1E2  3517 0001:0003B264  3518 0001:0003B27F  3519 0001:0003B283
  3521 0001:0003B2A6  3522 0001:0003B2DC  3536 0001:0003B388  3537 0001:0003B38B
  3538 0001:0003B398  3539 0001:0003B3A7  3545 0001:0003B3AC  3546 0001:0003B3C6
  3547 0001:0003B3D0  3548 0001:0003B3EE  3550 0001:0003B3F2  3551 0001:0003B3FB
  3552 0001:0003B400  3554 0001:0003B404  3555 0001:0003B424  3558 0001:0003B44A
  3560 0001:0003B450  3561 0001:0003B470  3562 0001:0003B474  3564 0001:0003B48E
  3565 0001:0003B49C  3567 0001:0003B4B6  3569 0001:0003B4D4  3570 0001:0003B4FD
  3572 0001:0003B50A  3574 0001:0003B53A  3576 0001:0003B542  3577 0001:0003B57D
  3578 0001:0003B59D  3580 0001:0003B5A1  3582 0001:0003B5A7  3583 0001:0003B5C2
  3585 0001:0003B5E0  3587 0001:0003B5E6  3588 0001:0003B5F1  3591 0001:0003B60F
  3592 0001:0003B615  3593 0001:0003B635  3595 0001:0003B63D  3596 0001:0003B64B
  3599 0001:0003B671  3601 0001:0003B682  3602 0001:0003B688  3604 0001:0003B6BF
  3606 0001:0003B6D2  3610 0001:0003B6E5  3612 0001:0003B72B  3616 0001:0003B878
  3617 0001:0003B87B  3618 0001:0003B889  3619 0001:0003B89D  3622 0001:0003B8A0
  3623 0001:0003B8A3  3624 0001:0003B8BE  3629 0001:0003B8C0  3630 0001:0003B8C4
  3631 0001:0003B8C6  3633 0001:0003B8EA  3640 0001:0003B8F0  3642 0001:0003B8FA
  3646 0001:0003B8FC  3647 0001:0003B90F  3652 0001:0003B910  3653 0001:0003B914
  3654 0001:0003B916  3655 0001:0003B917  3657 0001:0003B927  3658 0001:0003B933
  3659 0001:0003B93B  3661 0001:0003B93F  3662 0001:0003B947  3664 0001:0003B94B
  3665 0001:0003B953  3667 0001:0003B957  3675 0001:0003B95C  3676 0001:0003B968
  3678 0001:0003B96A  3680 0001:0003B970  3681 0001:0003B973  3684 0001:0003B975
  3686 0001:0003B97E  3688 0001:0003B99E  3690 0001:0003B9A4  3694 0001:0003B9A8
  3695 0001:0003B9AA  3696 0001:0003B9AE  3698 0001:0003B9B1  3699 0001:0003B9B4
  3701 0001:0003B9BB  3702 0001:0003B9BE  3703 0001:0003B9BF  3704 0001:0003B9D6
  3705 0001:0003B9ED  3712 0001:0003B9F4  3713 0001:0003B9FC  3714 0001:0003BA01
  3715 0001:0003BA0B  3717 0001:0003BA0F  3718 0001:0003BA1B  3719 0001:0003BA22
  3721 0001:0003BA32  3729 0001:0003BA3C  3730 0001:0003BA71  3731 0001:0003BA75
  3732 0001:0003BA85  3734 0001:0003BA8D  3736 0001:0003BA93  3737 0001:0003BA97
  3740 0001:0003BA9B  3741 0001:0003BAA7  3743 0001:0003BAB7  3745 0001:0003BAC3
  3747 0001:0003BAC9  3749 0001:0003BAD8  3750 0001:0003BAE0  3752 0001:0003BAED
  3755 0001:0003BAFE  3756 0001:0003BB37  3757 0001:0003BB3D  3762 0001:0003BB8E
  3763 0001:0003BB99  3764 0001:0003BB9C  3762 0001:0003BB9D  3765 0001:0003BBC2
  3791 0001:0003BBE4  3792 0001:0003BBF7  3794 0001:0003BC1C  3796 0001:0003BC26
  3797 0001:0003BC2B  3798 0001:0003BC30  3799 0001:0003BC45  3800 0001:0003BC5C
  3801 0001:0003BC73  3802 0001:0003BC7E  3804 0001:0003BC8A  3806 0001:0003BCE0
  3807 0001:0003BCE9  3809 0001:0003BCFA  3810 0001:0003BCFC  3811 0001:0003BD0A
  3813 0001:0003BD17  3815 0001:0003BD40  3816 0001:0003BD74  3817 0001:0003BD7B
  3821 0001:0003BD88  3824 0001:0003BD9A  3825 0001:0003BD9D  3827 0001:0003BDA8
  3830 0001:0003BDB2  3833 0001:0003BDCA  3834 0001:0003BDDC  3838 0001:0003BDFF
  3839 0001:0003BE11  3842 0001:0003BE1E  3843 0001:0003BE26  3844 0001:0003BE2E
  3845 0001:0003BE36  3846 0001:0003BE3E  3847 0001:0003BE4D  3848 0001:0003BE53
  3849 0001:0003BE6A  3850 0001:0003BE84  3851 0001:0003BEBB  3852 0001:0003BECD
  3853 0001:0003BEDF  3854 0001:0003BEF1  3855 0001:0003BF03  3856 0001:0003BF10
  3857 0001:0003BF1C  3858 0001:0003BF28  3859 0001:0003BF2F  3860 0001:0003BF36
  3861 0001:0003BF3D  3862 0001:0003BF44  3863 0001:0003BF4B  3864 0001:0003BF52
  3868 0001:0003BF8B  3869 0001:0003BF91  3871 0001:0003BF95  3872 0001:0003BFA1
  3874 0001:0003BFAD  3876 0001:0003BFBF  3878 0001:0003BFC8  3879 0001:0003BFD8
  3880 0001:0003BFDF  3881 0001:0003BFF2  3886 0001:0003C005  3888 0001:0003C00E
  3889 0001:0003C01F  3890 0001:0003C026  3891 0001:0003C039  3895 0001:0003C04C
  3896 0001:0003C05A  3898 0001:0003C063  3899 0001:0003C079  3900 0001:0003C08B
  3901 0001:0003C09C  3902 0001:0003C0AE  3906 0001:0003C0C2  3907 0001:0003C0D8
  3908 0001:0003C0EA  3909 0001:0003C0F1  3911 0001:0003C109  3912 0001:0003C11C
  3913 0001:0003C125  3914 0001:0003C130  3918 0001:0003C133  3919 0001:0003C145
  3920 0001:0003C14C  3921 0001:0003C15E  3926 0001:0003C166  3927 0001:0003C179
  3928 0001:0003C181  3930 0001:0003C18E  3931 0001:0003C19A  3932 0001:0003C1A9
  3933 0001:0003C1B8  3935 0001:0003C1C1  3936 0001:0003C1D7  3938 0001:0003C1E0
  3939 0001:0003C1FE  3941 0001:0003C21E  3945 0001:0003C227  3946 0001:0003C238
  3948 0001:0003C254  3949 0001:0003C266  3950 0001:0003C26D  3951 0001:0003C287
  3952 0001:0003C290  3954 0001:0003C2A1  3956 0001:0003C2CE  3957 0001:0003C2DF
  3958 0001:0003C2F0  3959 0001:0003C2FC  3960 0001:0003C302  3962 0001:0003C33A
  3963 0001:0003C360  3967 0001:0003C399  3968 0001:0003C3A9  3840 0001:0003C3AF
  3970 0001:0003C3CB  3973 0001:0003C3E5  3975 0001:0003C416  3976 0001:0003C41F
  3977 0001:0003C429  3978 0001:0003C436  3979 0001:0003C443  3980 0001:0003C451
  3981 0001:0003C45F  3985 0001:0003C491  3997 0001:0003C4B0  3998 0001:0003C4BB
  3999 0001:0003C4C0  4000 0001:0003C4D8  4002 0001:0003C4E0  4003 0001:0003C4F1
  4005 0001:0003C4FF  4007 0001:0003C50F  4010 0001:0003C51F  4012 0001:0003C52F
  4015 0001:0003C537  4017 0001:0003C547  4019 0001:0003C557  4022 0001:0003C567
  4023 0001:0003C577  4024 0001:0003C584  4027 0001:0003C58A  4028 0001:0003C59A
  4029 0001:0003C5AA  4025 0001:0003C5BA  4031 0001:0003C5DF  4032 0001:0003C5E4
  4036 0001:0003C601  4039 0001:0003C614  4081 0001:0003C624  4082 0001:0003C667
  4083 0001:0003C676  4084 0001:0003C67B  4087 0001:0003C67F  4086 0001:0003C680
  4088 0001:0003C694  4089 0001:0003C6B0  4090 0001:0003C6B1  4091 0001:0003C6B3
  4092 0001:0003C6BE  4095 0001:0003C6D7  4096 0001:0003C723  4097 0001:0003C730
  4098 0001:0003C771  4099 0001:0003C77A  4103 0001:0003C786  4104 0001:0003C7D2
  4105 0001:0003C813  4106 0001:0003C854  4107 0001:0003C85D  4110 0001:0003C864
  4111 0001:0003C899  4113 0001:0003C8B0  4114 0001:0003C8D6  4115 0001:0003C8DA
  4117 0001:0003C8E4  4119 0001:0003C8F0  4121 0001:0003C90C  4122 0001:0003C91B
  4124 0001:0003C923  4125 0001:0003C937  4126 0001:0003C94F  4127 0001:0003C966
  4129 0001:0003C970  4130 0001:0003C982  4131 0001:0003C991  4132 0001:0003C9A1
  4135 0001:0003C9A8  4137 0001:0003C9B2  4138 0001:0003C9BF  4140 0001:0003C9C0
  4133 0001:0003C9C1  4142 0001:0003C9CD  4148 0001:0003C9D9  4150 0001:0003C9EA
  4151 0001:0003C9F9  4152 0001:0003C9FD  4153 0001:0003CA11  4157 0001:0003CA1A
  4159 0001:0003CA22  4160 0001:0003CA29  4161 0001:0003CA33  4162 0001:0003CA5B
  4163 0001:0003CA61  4167 0001:0003CA65  4169 0001:0003CA7D  4170 0001:0003CAA7
  4183 0001:0003CADC  4184 0001:0003CAED  4185 0001:0003CAF1  4186 0001:0003CAF3
  4187 0001:0003CAFD  4189 0001:0003CB02  4190 0001:0003CB09  4192 0001:0003CB3C
  4193 0001:0003CB40  4194 0001:0003CB50  4197 0001:0003CB59  4198 0001:0003CB5D
  4187 0001:0003CB65  4201 0001:0003CB6A  4202 0001:0003CB72  4208 0001:0003CB7C
  4209 0001:0003CBCB  4210 0001:0003CBCF  4215 0001:0003CC04  4216 0001:0003CC07
  4217 0001:0003CC0D  4218 0001:0003CC13  4220 0001:0003CC49  4221 0001:0003CC7D
  4222 0001:0003CC88  4223 0001:0003CC90  4224 0001:0003CC98  4225 0001:0003CCAB
  4227 0001:0003CCB4  4228 0001:0003CCCC  4229 0001:0003CCE4  4230 0001:0003CCF7
  4232 0001:0003CD00  4233 0001:0003CD18  4236 0001:0003CD30  4238 0001:0003CD42
  4239 0001:0003CD68  4242 0001:0003CD93  4244 0001:0003CDA7  4246 0001:0003CDDA
  4247 0001:0003CDE1  4251 0001:0003CE09  4252 0001:0003CE2F  4257 0001:0003CE57
  4258 0001:0003CE5E  4260 0001:0003CE84  4261 0001:0003CE96  4262 0001:0003CE9D
  4263 0001:0003CEA6  4264 0001:0003CEAF  4266 0001:0003CEBD  4268 0001:0003CEC8
  4270 0001:0003CED6  4271 0001:0003CEE1  4272 0001:0003CEE4  4273 0001:0003CF2B
  4275 0001:0003CF40  4276 0001:0003CF4D  4277 0001:0003CF5B  4278 0001:0003CF65
  4279 0001:0003CF6B  4280 0001:0003CF71  4281 0001:0003CF75  4282 0001:0003CF78
  4285 0001:0003CF94  4286 0001:0003CF97  4287 0001:0003CF9A  4288 0001:0003CFA2
  4290 0001:0003CFA8  4291 0001:0003CFAB  4293 0001:0003CFB7  4294 0001:0003CFC7
  4298 0001:0003CFDE  4303 0001:0003CFE8  4304 0001:0003CFFF  4307 0001:0003D031
  4308 0001:0003D03B  4311 0001:0003D042  4313 0001:0003D04B  4314 0001:0003D072
  4316 0001:0003D0AD  4320 0001:0003D0B4  4322 0001:0003D0BD  4323 0001:0003D0C7
  4325 0001:0003D0CE  4331 0001:0003D0D0  4335 0001:0003D0F0  4337 0001:0003D0FD
  4339 0001:0003D10F  4340 0001:0003D114  4341 0001:0003D122  4342 0001:0003D149
  4344 0001:0003D153  4346 0001:0003D160  4347 0001:0003D18B  4348 0001:0003D1A3
  4351 0001:0003D1BA  4355 0001:0003D1C7  4360 0001:0003D1F3  4369 0001:0003D224
  4370 0001:0003D263  4371 0001:0003D268  4372 0001:0003D27E  4374 0001:0003D291
  4376 0001:0003D2A3  4377 0001:0003D2C0  4378 0001:0003D2D1  4380 0001:0003D2D4
  4372 0001:0003D2D5  4381 0001:0003D2D8  4382 0001:0003D2FE  4383 0001:0003D341
  4386 0001:0003D348  4387 0001:0003D367  4388 0001:0003D370  4389 0001:0003D37E
  4391 0001:0003D3B6  4392 0001:0003D3C4  4394 0001:0003D42F  4397 0001:0003D45C
  4398 0001:0003D472  4399 0001:0003D480  4401 0001:0003D499  4402 0001:0003D4BD
  4405 0001:0003D4DC  4406 0001:0003D4DF  4407 0001:0003D4F1  4408 0001:0003D4F8
  4411 0001:0003D4FC  4412 0001:0003D516  4413 0001:0003D574  4416 0001:0003D57C
  4417 0001:0003D592  4418 0001:0003D5C6  4423 0001:0003D5E4  4424 0001:0003D5FE
  4426 0001:0003D66E  4431 0001:0003D684  4432 0001:0003D69A  4433 0001:0003D6A8
  4435 0001:0003D6C1  4436 0001:0003D6E5  4439 0001:0003D708  4440 0001:0003D70B
  4441 0001:0003D71D  4442 0001:0003D724  4445 0001:0003D728  4446 0001:0003D743
  4447 0001:0003D751  4449 0001:0003D79F  4450 0001:0003D7C8  4455 0001:0003D7E0
  4456 0001:0003D7FC  4458 0001:0003D80A  4459 0001:0003D819  4460 0001:0003D827
  4461 0001:0003D831  4462 0001:0003D83F  4465 0001:0003D861  4467 0001:0003D873
  4469 0001:0003D8A5  4474 0001:0003D8AC  4475 0001:0003D8C4  4477 0001:0003D8D6
  4480 0001:0003D902  4481 0001:0003D915  4483 0001:0003D928  4484 0001:0003D936
  4485 0001:0003D947  4487 0001:0003D967  4489 0001:0003D999  4494 0001:0003D9A0
  4495 0001:0003D9AB  4496 0001:0003D9B2  4498 0001:0003D9C1  4499 0001:0003D9D0
  4500 0001:0003D9DE  4501 0001:0003D9EC  4502 0001:0003D9F6  4505 0001:0003DA0F
  4507 0001:0003DA21  4509 0001:0003DA31  4512 0001:0003DA38  4513 0001:0003DA59
  4514 0001:0003DA60  4515 0001:0003DA77  4516 0001:0003DA97  4517 0001:0003DAA9
  4518 0001:0003DAC9  4519 0001:0003DAE9  4520 0001:0003DB2B  4527 0001:0003DB54
  4528 0001:0003DB59  4532 0001:0003DB5C  4533 0001:0003DB70  4534 0001:0003DB72
  4538 0001:0003DB74  4539 0001:0003DB79  4547 0001:0003DB7C  4548 0001:0003DB7F
  4549 0001:0003DB88  4550 0001:0003DB8F  4552 0001:0003DB97  4553 0001:0003DBA6
  4554 0001:0003DBAA  4555 0001:0003DBB6  4560 0001:0003DBDC  4561 0001:0003DBDE
  4562 0001:0003DBE7  4563 0001:0003DBF5  4564 0001:0003DC08  4562 0001:0003DC27
  4565 0001:0003DC2C  4566 0001:0003DC35  4567 0001:0003DC45  4571 0001:0003DC48
  4572 0001:0003DC4D  4573 0001:0003DC52  4579 0001:0003DC54  4580 0001:0003DC57
  4581 0001:0003DC60  4582 0001:0003DC67  4584 0001:0003DC6F  4585 0001:0003DC7E
  4586 0001:0003DC82  4587 0001:0003DC8E  4592 0001:0003DCBC  4593 0001:0003DCBE
  4594 0001:0003DCC7  4595 0001:0003DCD5  4596 0001:0003DCE8  4594 0001:0003DD07
  4597 0001:0003DD0C  4598 0001:0003DD15  4599 0001:0003DD25  4603 0001:0003DD28
  4604 0001:0003DD2D  4605 0001:0003DD32  4614 0001:0003DD34  4615 0001:0003DD6D
  4616 0001:0003DD77  4618 0001:0003DD7F  4619 0001:0003DD8E  4620 0001:0003DD92
  4621 0001:0003DDC0  4627 0001:0003DDF0  4628 0001:0003DE28  4629 0001:0003DE31
  4630 0001:0003DE3F  4631 0001:0003DE52  4632 0001:0003DE6F  4629 0001:0003DE70
  4633 0001:0003DE75  4634 0001:0003DE7E  4635 0001:0003DEAF  4644 0001:0003DEB8
  4645 0001:0003DEF1  4646 0001:0003DEFB  4648 0001:0003DF03  4649 0001:0003DF12
  4650 0001:0003DF16  4651 0001:0003DF44  4657 0001:0003DF70  4658 0001:0003DFA8
  4659 0001:0003DFB1  4660 0001:0003DFBF  4661 0001:0003DFD2  4662 0001:0003DFEF
  4659 0001:0003DFF0  4663 0001:0003DFF5  4664 0001:0003DFFE  4665 0001:0003E02F
  4670 0001:0003E038  4671 0001:0003E03A  4672 0001:0003E043  4673 0001:0003E051
  4674 0001:0003E064  4672 0001:0003E083  4675 0001:0003E088  4676 0001:0003E0A1
  4683 0001:0003E0A4  4684 0001:0003E0A7  4685 0001:0003E0B0  4686 0001:0003E0B7
  4688 0001:0003E0BF  4689 0001:0003E0CE  4690 0001:0003E0D2  4691 0001:0003E0DF
  4696 0001:0003E108  4697 0001:0003E10A  4698 0001:0003E113  4699 0001:0003E121
  4700 0001:0003E134  4698 0001:0003E154  4701 0001:0003E159  4702 0001:0003E162
  4703 0001:0003E173  4707 0001:0003E178  4708 0001:0003E17D  4709 0001:0003E182
  4716 0001:0003E184  4717 0001:0003E187  4718 0001:0003E190  4719 0001:0003E197
  4721 0001:0003E19F  4722 0001:0003E1AE  4723 0001:0003E1B2  4724 0001:0003E1BF
  4729 0001:0003E1E8  4730 0001:0003E1EA  4731 0001:0003E1F3  4732 0001:0003E201
  4733 0001:0003E214  4731 0001:0003E234  4734 0001:0003E239  4735 0001:0003E242
  4736 0001:0003E253  4740 0001:0003E258  4741 0001:0003E25D  4742 0001:0003E262
  4748 0001:0003E264  4749 0001:0003E267  4750 0001:0003E270  4751 0001:0003E277
  4753 0001:0003E27F  4754 0001:0003E28E  4755 0001:0003E292  4756 0001:0003E29F
  4761 0001:0003E2CC  4762 0001:0003E2CE  4763 0001:0003E2D7  4764 0001:0003E2E5
  4765 0001:0003E2F8  4766 0001:0003E317  4763 0001:0003E318  4767 0001:0003E31D
  4768 0001:0003E326  4769 0001:0003E337  4773 0001:0003E33C  4774 0001:0003E341
  4775 0001:0003E346  4782 0001:0003E348  4783 0001:0003E34B  4784 0001:0003E354
  4785 0001:0003E35B  4787 0001:0003E363  4788 0001:0003E372  4789 0001:0003E376
  4790 0001:0003E382  4795 0001:0003E3AC  4796 0001:0003E3AE  4797 0001:0003E3B7
  4798 0001:0003E3C5  4799 0001:0003E3D8  4800 0001:0003E3F6  4797 0001:0003E3F7
  4801 0001:0003E3FC  4802 0001:0003E405  4803 0001:0003E415  4807 0001:0003E418
  4808 0001:0003E41D  4809 0001:0003E422  4818 0001:0003E424  4819 0001:0003E42C
  4820 0001:0003E440  4822 0001:0003E444  4823 0001:0003E456  4824 0001:0003E464
  4828 0001:0003E472  4829 0001:0003E486  4831 0001:0003E48A  4832 0001:0003E49C
  4833 0001:0003E4A5  4836 0001:0003E4B1  4845 0001:0003E500  4846 0001:0003E507
  4847 0001:0003E50A  4848 0001:0003E50C  4851 0001:0003E52B  4853 0001:0003E532
  4855 0001:0003E547  4856 0001:0003E549  4857 0001:0003E552  4859 0001:0003E55F
  4860 0001:0003E56A  4861 0001:0003E579  4862 0001:0003E580  4866 0001:0003E585
  4868 0001:0003E58C  4869 0001:0003E5BC  4870 0001:0003E5D1  4872 0001:0003E5E4
  4873 0001:0003E5EE  4875 0001:0003E625  4878 0001:0003E62C  4879 0001:0003E63D
  4881 0001:0003E646  4882 0001:0003E650  4884 0001:0003E657  4885 0001:0003E681
  4892 0001:0003E684  4893 0001:0003E6A6  4894 0001:0003E6AE  4896 0001:0003E6C0
  4897 0001:0003E6CD  4898 0001:0003E6D5  4899 0001:0003E6E0  4894 0001:0003E6E1
  4900 0001:0003E701  4903 0001:0003E708  4904 0001:0003E714  4906 0001:0003E720
  4908 0001:0003E725  4909 0001:0003E742  4913 0001:0003E74C  4914 0001:0003E786
  4915 0001:0003E78E  4916 0001:0003E79C  4917 0001:0003E7A8  4918 0001:0003E7AD
  4920 0001:0003E7DF  4922 0001:0003E812  4926 0001:0003E81C  4927 0001:0003E84F
  4928 0001:0003E857  4929 0001:0003E865  4930 0001:0003E86C  4931 0001:0003E871
  4933 0001:0003E885  4935 0001:0003E8B8  4939 0001:0003E8C0  4940 0001:0003E8F3
  4941 0001:0003E8FB  4942 0001:0003E909  4943 0001:0003E910  4944 0001:0003E915
  4946 0001:0003E929  4948 0001:0003E95C  4952 0001:0003E964  4953 0001:0003E99B
  4954 0001:0003E9A3  4955 0001:0003E9B1  4957 0001:0003E9CC  4959 0001:0003E9FF
  4963 0001:0003EA08  4964 0001:0003EA3F  4965 0001:0003EA47  4966 0001:0003EA55
  4968 0001:0003EA70  4970 0001:0003EAA3  4974 0001:0003EAAC  4975 0001:0003EADF
  4976 0001:0003EAE7  4977 0001:0003EAF5  4978 0001:0003EB02  4980 0001:0003EB14
  4982 0001:0003EB47  4986 0001:0003EB50  4987 0001:0003EB83  4988 0001:0003EB8B
  4989 0001:0003EB99  4990 0001:0003EBA6  4992 0001:0003EBB8  4994 0001:0003EBEB
  4998 0001:0003EBF4  4999 0001:0003EC27  5000 0001:0003EC2F  5001 0001:0003EC3D
  5002 0001:0003EC4A  5004 0001:0003EC5C  5006 0001:0003EC8F  5010 0001:0003EC98
  5011 0001:0003ECCB  5012 0001:0003ECD3  5013 0001:0003ECE1  5014 0001:0003ECE8
  5015 0001:0003ECED  5017 0001:0003ED01  5019 0001:0003ED34  5032 0001:0003ED3C
  5033 0001:0003ED46  5035 0001:0003ED48  5036 0001:0003ED50  5038 0001:0003ED5D
  5044 0001:0003ED76  5050 0001:0003ED7C  5051 0001:0003ED83  5055 0001:0003ED8E
  5056 0001:0003ED9C  5057 0001:0003EDA6  5058 0001:0003EDB4  5060 0001:0003EDC3
  5064 0001:0003EDE1  5066 0001:0003EDE6  5067 0001:0003EDED  5076 0001:0003EDF4
  5077 0001:0003EDF9  5078 0001:0003EE02  5079 0001:0003EE08  5083 0001:0003EE0C
  5084 0001:0003EE11  5091 0001:0003EE14  5092 0001:0003EE33  5093 0001:0003EE35
  5094 0001:0003EE3E  5095 0001:0003EE42  5096 0001:0003EE91  5102 0001:0003EEAC
  5103 0001:0003EEBC  5106 0001:0003EEBE  5108 0001:0003EECC  5109 0001:0003EEDD
  5110 0001:0003EEE3  5113 0001:0003EEF6  5115 0001:0003EEFC  5116 0001:0003EF00
  5119 0001:0003EF10  5120 0001:0003EF14  5124 0001:0003EF20  5125 0001:0003EF2C
  5127 0001:0003EF40  5143 0001:0003EF48  5144 0001:0003EF4F  5148 0001:0003EF50
  5149 0001:0003EF56  5151 0001:0003EF58  5152 0001:0003EF6A  5153 0001:0003EF6E
  5155 0001:0003EF75  5158 0001:0003EF92  5160 0001:0003EF9A  5161 0001:0003EFA0
  5162 0001:0003EFA4  5164 0001:0003EFA9  5167 0001:0003EFB3  5168 0001:0003EFB8
  5171 0001:0003EFC1  5173 0001:0003EFCB  5174 0001:0003EFD1  5176 0001:0003EFE8
  5177 0001:0003EFEE  5178 0001:0003EFF2  5180 0001:0003EFF4  5181 0001:0003F000
  5182 0001:0003F009  5183 0001:0003F00D  5188 0001:0003F012  5190 0001:0003F017
  5191 0001:0003F01D  5194 0001:0003F02E  5195 0001:0003F03A  5196 0001:0003F043
  5197 0001:0003F047  5200 0001:0003F04A  5165 0001:0003F04C  5202 0001:0003F06B
  5206 0001:0003F08F  5208 0001:0003F0A7  5211 0001:0003F0AB  5213 0001:0003F0B8
  5215 0001:0003F0C2  5217 0001:0003F0C8  5218 0001:0003F0CC  5221 0001:0003F0D2
  5223 0001:0003F0DB  5224 0001:0003F0FF  5226 0001:0003F109  5230 0001:0003F114
  5231 0001:0003F11A  5261 0001:0003F11C  5262 0001:0003F122  5263 0001:0003F124
  5264 0001:0003F133  5266 0001:0003F143  5267 0001:0003F152  5268 0001:0003F15E
  5269 0001:0003F16F  5271 0001:0003F173  5285 0001:0003F178  5287 0001:0003F17A
  5288 0001:0003F190  5289 0001:0003F195  5291 0001:0003F198  5292 0001:0003F1AA
  5293 0001:0003F1AE  5294 0001:0003F1BE  5296 0001:0003F1D3  5297 0001:0003F1DD
  5299 0001:0003F1E7  5300 0001:0003F1F9  5301 0001:0003F207  5302 0001:0003F213
  5304 0001:0003F223  5306 0001:0003F232  5307 0001:0003F24A  5309 0001:0003F25A
  5310 0001:0003F272  5311 0001:0003F282  5312 0001:0003F29A  5315 0001:0003F2A5
  5317 0001:0003F2A7  5318 0001:0003F2BD  5319 0001:0003F2CD  5320 0001:0003F2CE
  5326 0001:0003F2E6  5328 0001:0003F2F2  5329 0001:0003F300  5330 0001:0003F313
  5334 0001:0003F320  5335 0001:0003F326  5336 0001:0003F330  5338 0001:0003F332
  5341 0001:0003F347  5343 0001:0003F355  5345 0001:0003F36B  5346 0001:0003F37B
  5347 0001:0003F389  5348 0001:0003F39C  5349 0001:0003F3AE  5350 0001:0003F3C0
  5351 0001:0003F3C5  5352 0001:0003F3DD  5353 0001:0003F3E6  5356 0001:0003F3EF
  5357 0001:0003F3F7  5360 0001:0003F407  5362 0001:0003F40E  5363 0001:0003F418
  5364 0001:0003F41C  5341 0001:0003F41D  5365 0001:0003F424  5369 0001:0003F43E
  5371 0001:0003F451  5379 0001:0003F458  5380 0001:0003F474  5381 0001:0003F478
  5382 0001:0003F482  5384 0001:0003F4A2  5385 0001:0003F4AC  5386 0001:0003F4BA
  5387 0001:0003F4CC  5389 0001:0003F4DA  5391 0001:0003F4F1  5392 0001:0003F501
  5394 0001:0003F519  5397 0001:0003F536  5399 0001:0003F567  5406 0001:0003F56C
  5407 0001:0003F573  5408 0001:0003F586  5409 0001:0003F58C  5411 0001:0003F592
  5412 0001:0003F5A3  5413 0001:0003F5B1  5414 0001:0003F5C1  5416 0001:0003F5D9
  5419 0001:0003F5EC  5422 0001:0003F5FC  5423 0001:0003F5FF  5425 0001:0003F61B
  5428 0001:0003F620  5429 0001:0003F623  5432 0001:0003F651  5443 0001:0003F654
  5444 0001:0003F670  5445 0001:0003F676  5447 0001:0003F685  5449 0001:0003F690
  5450 0001:0003F6A5  5452 0001:0003F6AD  5453 0001:0003F6BE  5454 0001:0003F6CC
  5455 0001:0003F6D8  5457 0001:0003F6F5  5463 0001:0003F705  5464 0001:0003F70F
  5466 0001:0003F72F  5467 0001:0003F739  5468 0001:0003F747  5469 0001:0003F759
  5471 0001:0003F767  5472 0001:0003F77E  5473 0001:0003F78E  5476 0001:0003F7B5
  5478 0001:0003F7D2  5481 0001:0003F7EF  5484 0001:0003F821  5496 0001:0003F830
  5497 0001:0003F839  5498 0001:0003F847  5500 0001:0003F861  5502 0001:0003F86F
  5503 0001:0003F886  5504 0001:0003F896  5507 0001:0003F8BD  5508 0001:0003F8D0
  5511 0001:0003F8E2  5514 0001:0003F8F8  5517 0001:0003F909  5519 0001:0003F912
  5520 0001:0003F922  5521 0001:0003F939  5523 0001:0003F94E  5525 0001:0003F959
  5527 0001:0003F96D  5531 0001:0003F98C  5533 0001:0003F998  5545 0001:0003F9A0
  5546 0001:0003F9A6  5548 0001:0003F9B0  5550 0001:0003F9B7  5551 0001:0003F9CE
  5552 0001:0003F9D8  5553 0001:0003F9E8  5554 0001:0003F9F4  5555 0001:0003FA00
  5557 0001:0003FA16  5558 0001:0003FA2D  5560 0001:0003FA30  5561 0001:0003FA39
  5562 0001:0003FA47  5563 0001:0003FA64  5564 0001:0003FA6D  5566 0001:0003FA7A
  5567 0001:0003FA8D  5569 0001:0003FA9B  5572 0001:0003FAAB  5574 0001:0003FABE
  5576 0001:0003FAC8  5578 0001:0003FADB  5579 0001:0003FAE2  5582 0001:0003FAF4
  5585 0001:0003FB06  5587 0001:0003FB1C  5589 0001:0003FB28  5590 0001:0003FB38
  5591 0001:0003FB48  5592 0001:0003FB4E  5596 0001:0003FB59  5597 0001:0003FB5F
  5600 0001:0003FB68  5602 0001:0003FB78  5605 0001:0003FB83  5606 0001:0003FB93
  5609 0001:0003FBB5  5610 0001:0003FBC5  5611 0001:0003FBCA  5612 0001:0003FBCF
  5613 0001:0003FBE7  5615 0001:0003FBF3  5616 0001:0003FBFA  5618 0001:0003FC0C
  5619 0001:0003FC1A  5620 0001:0003FC2C  5621 0001:0003FC3A  5623 0001:0003FC58
  5626 0001:0003FC75  5629 0001:0003FC88  5631 0001:0003FC91  5632 0001:0003FCA2
  5634 0001:0003FCAF  5638 0001:0003FCBB  5641 0001:0003FCD4  5642 0001:0003FCDA
  5644 0001:0003FCE0  5647 0001:0003FCEC  5648 0001:0003FCF0  5651 0001:0003FCF4
  5653 0001:0003FCF7  5656 0001:0003FD04  5659 0001:0003FD27  5660 0001:0003FD2C
  5661 0001:0003FD31  5662 0001:0003FD40  5664 0001:0003FD4C  5665 0001:0003FD53
  5667 0001:0003FD65  5668 0001:0003FD6D  5670 0001:0003FD81  5673 0001:0003FD86
  5674 0001:0003FD92  5677 0001:0003FDA3  5679 0001:0003FDAC  5680 0001:0003FDBC
  5681 0001:0003FDD3  5683 0001:0003FDE8  5686 0001:0003FDF3  5689 0001:0003FE11
  5694 0001:0003FE30  5696 0001:0003FE3C  5698 0001:0003FE4C  5699 0001:0003FE55
  5700 0001:0003FE59  5702 0001:0003FE70  5704 0001:0003FE85  5706 0001:0003FE9C
  5707 0001:0003FEB4  5709 0001:0003FEBA  5711 0001:0003FEC2  5712 0001:0003FED5
  5713 0001:0003FEE3  5715 0001:0003FEFE  5718 0001:0003FF0E  5721 0001:0003FF1C
  5726 0001:0003FF30  5727 0001:0003FF48  5728 0001:0003FF4A  5730 0001:0003FF59
  5731 0001:0003FF6B  5732 0001:0003FF6D  5733 0001:0003FF82  5734 0001:0003FF8A
  5735 0001:0003FF8E  5736 0001:0003FF9A  5738 0001:0003FFA8  5739 0001:0003FFB3
  5740 0001:0003FFC4  5742 0001:0003FFCD  5743 0001:0003FFD6  5744 0001:0003FFDF
  5746 0001:0003FFEB  5747 0001:0003FFEF  5748 0001:0003FFF4  5750 0001:00040008
  5752 0001:00040013  5753 0001:0004001F  5754 0001:00040027  5755 0001:0004002C
  5756 0001:00040035  5758 0001:0004003F  5759 0001:0004004B  5761 0001:0004006C
  5764 0001:00040074  5765 0001:00040078  5766 0001:0004007E  5767 0001:00040090
  5768 0001:000400A4  5806 0001:000400B4  5807 0001:000400CE  5808 0001:000400DA
  5809 0001:000400E3  5812 0001:000400FC  5813 0001:0004010A  5814 0001:0004010D
  5815 0001:00040116  5816 0001:00040119  5817 0001:0004011D  5818 0001:00040126
  5819 0001:00040129  5820 0001:0004013E  5821 0001:0004014C  5822 0001:0004015A
  5824 0001:00040172  5827 0001:00040193  5830 0001:000401B8  5831 0001:000401C5
  5833 0001:000401CB  5835 0001:000401EE  5845 0001:000401F4  5846 0001:00040205
  5848 0001:0004020A  5849 0001:0004020D  5852 0001:0004020F  5853 0001:0004021D
  5856 0001:00040220  5854 0001:00040221  5857 0001:0004024C  5858 0001:0004025A
  5859 0001:0004025D  5867 0001:00040264  5868 0001:00040274  5870 0001:00040286
  5873 0001:0004028B  5875 0001:000402B9  5876 0001:000402C4  5871 0001:000402C5
  5880 0001:000402CF  5881 0001:000402D7  5883 0001:000402E0  5885 0001:000402F1
  5886 0001:000402FC  5887 0001:0004031D  5890 0001:0004032B  5891 0001:00040336
  5892 0001:00040357  5895 0001:00040363  5881 0001:00040364  5897 0001:0004036D
  5899 0001:00040384  5900 0001:00040393  5901 0001:00040398  5902 0001:0004039D
  5904 0001:000403A6  5906 0001:000403B5  5909 0001:000403B7  5910 0001:000403CC
  5912 0001:000403D7  5915 0001:000403E3  5917 0001:000403E7  5919 0001:000403FF
  5920 0001:00040417  5923 0001:00040419  5924 0001:00040427  5926 0001:0004042F
  5927 0001:00040434  5928 0001:00040439  5930 0001:0004044D  5935 0001:0004044F
  5937 0001:00040455  5938 0001:00040465  5939 0001:00040480  5941 0001:00040494
  5943 0001:0004049A  5944 0001:000404A3  5945 0001:000404B8  5947 0001:000404C3
  5951 0001:000404D4  5954 0001:000404E6  5957 0001:000404F7  5960 0001:00040510
  5963 0001:00040521  5966 0001:00040538  5969 0001:00040549  5972 0001:00040560
  5975 0001:00040571  5978 0001:00040583  5982 0001:00040591  5985 0001:000405A3
  5989 0001:000405B1  5992 0001:000405C2  5995 0001:000405CF  5997 0001:000405DB
  5998 0001:000405EB  5999 0001:000405FC  6003 0001:00040608  6005 0001:0004061A
  6007 0001:00040621  5912 0001:00040625  6010 0001:00040631  6011 0001:0004063B
  6017 0001:00040644  6018 0001:00040652  6019 0001:00040660  6021 0001:0004068B
  6028 0001:00040694  6029 0001:0004069D  6030 0001:000406AB  6032 0001:000406C0
  6034 0001:000406C6  6035 0001:000406CF  6040 0001:000406E7  6041 0001:000406EC
  6047 0001:000406F4  6048 0001:000406F5  6049 0001:00040701  6051 0001:00040705
  6053 0001:0004070F  6054 0001:00040721  6055 0001:00040726  6056 0001:0004072E
  6060 0001:00040736  6061 0001:0004073E  6063 0001:0004074D  6068 0001:00040750
  6069 0001:0004075A  6070 0001:00040763  6071 0001:00040769  6072 0001:0004076E
  6073 0001:00040774  6077 0001:00040778  6078 0001:0004077D  6083 0001:00040780
  6084 0001:00040783  6085 0001:0004078F  6088 0001:00040794  6089 0001:00040797
  6090 0001:000407AF  6091 0001:000407BC  6106 0001:000407C0  6108 0001:000407D8
  6109 0001:000407DF  6112 0001:000407F0  6113 0001:000407FE  6116 0001:0004080C
  6117 0001:00040813  6118 0001:0004081B  6119 0001:00040824  6120 0001:0004082D
  6123 0001:00040836  6124 0001:0004083D  6125 0001:00040847  6126 0001:00040850
  6127 0001:00040856  6130 0001:00040868  6131 0001:00040875  6132 0001:0004087F
  6134 0001:00040884  6135 0001:00040894  6137 0001:00040896  6139 0001:000408A9
  6141 0001:000408B4  6143 0001:000408BE  6144 0001:000408C6  6146 0001:000408CF
  6148 0001:000408D8  6149 0001:000408DD  6150 0001:000408E4  6154 0001:000408ED
  6155 0001:000408F2  6156 0001:000408F9  6159 0001:00040900  6161 0001:0004090D
  6163 0001:00040926  6164 0001:00040947  6165 0001:00040954  6166 0001:00040976
  6167 0001:00040986  6168 0001:000409A5  6169 0001:000409B1  6170 0001:000409BF
  6171 0001:000409C7  6172 0001:000409D2  6173 0001:000409D6  6174 0001:000409DA
  6161 0001:000409E0  6177 0001:000409E9  6178 0001:000409F4  6179 0001:000409FF
  6181 0001:00040A08  6182 0001:00040A13  6186 0001:00040A20  6187 0001:00040A23
  6188 0001:00040A2E  6190 0001:00040A31  6192 0001:00040A37  6193 0001:00040A42
  6195 0001:00040A6C  6197 0001:00040A96  6199 0001:00040AC0  6201 0001:00040AEA
  6203 0001:00040AF0  6204 0001:00040AF8  6206 0001:00040B04  6208 0001:00040B22
  6210 0001:00040B25  6212 0001:00040B2E  6213 0001:00040B39  6216 0001:00040B65
  6219 0001:00040B72  6221 0001:00040B7D  6225 0001:00040BA9  6226 0001:00040BB3
  6228 0001:00040BB5  6233 0001:00040BCC  6234 0001:00040BD6  6237 0001:00040BDE
  6239 0001:00040BE7  6240 0001:00040BF1  6241 0001:00040C00  6242 0001:00040C0F
  6246 0001:00040C20  6247 0001:00040C2A  6248 0001:00040C39  6249 0001:00040C48
  6252 0001:00040C57  6253 0001:00040C5D  6255 0001:00040C69  6260 0001:00040C9D
  6262 0001:00040CAE  6263 0001:00040CB5  6264 0001:00040CBF  6266 0001:00040CD0
  6267 0001:00040CD7  6268 0001:00040CDF  6270 0001:00040CF0  6271 0001:00040CF7
  6272 0001:00040D01  6274 0001:00040D12  6279 0001:00040D5B  6284 0001:00040DA4
  6285 0001:00040DAB  6289 0001:00040E14  6290 0001:00040E1F  6291 0001:00040E2A
  6292 0001:00040E35  6293 0001:00040E40  6294 0001:00040E4B  6295 0001:00040E56
  6296 0001:00040E61  6301 0001:00040E64  6302 0001:00040E6A  6303 0001:00040E71
  6306 0001:00040E8C  6307 0001:00040EA2  6309 0001:00040EAE  6310 0001:00040EB8
  6311 0001:00040ECC  6312 0001:00040ED5  6314 0001:00040EE7  6315 0001:00040EF3
  6316 0001:00040EFA  6318 0001:00040F25  6319 0001:00040F31  6322 0001:00040F38
  6323 0001:00040F3B  6324 0001:00040F41  6325 0001:00040F54  6326 0001:00040F63
  6330 0001:00040F68  6332 0001:00040F77  6333 0001:00040F7F  6335 0001:00040F91
  6339 0001:00040F94  6340 0001:00040FAB  6344 0001:00040FAC  6345 0001:00040FB3
  6350 0001:00040FB4  6351 0001:00040FB8  6352 0001:00040FBF  6354 0001:00040FE6
  6355 0001:00040FF1  6358 0001:00040FF8  6359 0001:00040FFB  6360 0001:00041000
  6361 0001:00041006  6362 0001:00041015  6366 0001:00041018  6367 0001:00041020
  6368 0001:00041027  6371 0001:00041028  6372 0001:0004102E  6373 0001:00041040
  6380 0001:00041064  6381 0001:00041099  6383 0001:000410A3  6384 0001:000410B4
  6385 0001:000410C2  6386 0001:000410CD  6387 0001:000410DC  6388 0001:000410F7
  6389 0001:00041106  6390 0001:00041115  6391 0001:00041124  6392 0001:00041134
  6395 0001:0004116D  6397 0001:000411AC  6405 0001:000411C0  6406 0001:000411F3
  6408 0001:0004120A  6409 0001:0004121B  6410 0001:00041229  6411 0001:00041234
  6412 0001:00041245  6411 0001:00041293  6413 0001:00041296  6414 0001:000412B1
  6415 0001:000412C0  6416 0001:000412CF  6417 0001:000412DE  6418 0001:000412EE
  6421 0001:00041327  6423 0001:00041361  6431 0001:00041374  6432 0001:0004139C
  6433 0001:000413A1  6434 0001:000413B0  6435 0001:000413BC  6436 0001:000413C6
  6437 0001:000413D4  6438 0001:000413DE  6440 0001:000413F1  6441 0001:00041413
  6442 0001:0004144C  6443 0001:00041462  6438 0001:00041463  6445 0001:00041475
  6446 0001:00041482  6448 0001:000414B7  6454 0001:000414CC  6455 0001:000414DB
  6456 0001:000414E7  6457 0001:000414F1  6458 0001:000414FF  6459 0001:0004151C
  6461 0001:0004152F  6463 0001:00041547  6477 0001:00041550  6478 0001:0004155C
  6479 0001:00041566  6480 0001:00041569  6481 0001:00041587  6483 0001:00041590
  6484 0001:000415B7  6485 0001:000415B9  6488 0001:00041671  6489 0001:0004167A
  6490 0001:00041681  6492 0001:000416A3  6494 0001:000416CD  6496 0001:000416F7
  6497 0001:0004170F  6498 0001:00041727  6499 0001:0004173F  6500 0001:00041749
  6501 0001:00041755  6503 0001:0004177A  6504 0001:00041788  6505 0001:00041794
  6506 0001:000417AF  6507 0001:000417CF  6508 0001:000417F3  6509 0001:000417FA
  6513 0001:00041806  6514 0001:0004180D  6515 0001:00041814  6520 0001:0004181E
  6523 0001:00041828  6524 0001:0004182D  6527 0001:00041839  6529 0001:00041850
  6530 0001:0004185C  6532 0001:00041878  6533 0001:00041893  6535 0001:000418AD
  6539 0001:000418CF  6544 0001:000418D9  6548 0001:00041900  6551 0001:0004192B
  6553 0001:00041934  6554 0001:00041937  6559 0001:0004196E  6560 0001:00041975
  6561 0001:00041983  6563 0001:000419A9  6565 0001:000419B8  6574 0001:000419C8
  6575 0001:000419DC  6576 0001:000419E6  6577 0001:000419F4  6578 0001:00041A0D
  6580 0001:00041A16  6581 0001:00041A44  6584 0001:00041A7A  6586 0001:00041AA9
  6589 0001:00041AB0  6590 0001:00041AB6  6591 0001:00041ABB  6592 0001:00041AC5
  6593 0001:00041AD3  6594 0001:00041AEC  6596 0001:00041AF5  6597 0001:00041B02
  6600 0001:00041B2F  6602 0001:00041B44  6605 0001:00041B4C  6606 0001:00041B69
  6607 0001:00041B6C  6608 0001:00041B79  6609 0001:00041B87  6610 0001:00041B98
  6613 0001:00041BB5  6614 0001:00041BB8  6616 0001:00041BC8  6617 0001:00041BDA
  6619 0001:00041C03  6621 0001:00041C1B  6625 0001:00041C33  6626 0001:00041C43
  6628 0001:00041C6B  6634 0001:00041C7C  6635 0001:00041CB0  6636 0001:00041CBC
  6638 0001:00041CC8  6639 0001:00041CE8  6642 0001:00041D14  6644 0001:00041D38
  6646 0001:00041D5A  6647 0001:00041D6A  6648 0001:00041D77  6650 0001:00041D87
  6653 0001:00041E00  6654 0001:00041E12  6656 0001:00041E62  6657 0001:00041E75
  6658 0001:00041EED  6663 0001:00041F4C  6664 0001:00041F77  6665 0001:00041F88
  6666 0001:00041F97  6667 0001:00041FA6  6668 0001:00041FC6  6673 0001:000420AA
  6675 0001:000420EC  6676 0001:0004210F  6677 0001:00042121  6678 0001:0004214D
  6700 0001:00042154  6701 0001:00042160  6702 0001:00042164  6703 0001:00042171
  6704 0001:0004217B  6705 0001:00042189  6706 0001:00042199  6707 0001:000421A9
  6708 0001:000421B9  6710 0001:000421C1  6711 0001:000421CF  6712 0001:000421DE
  6714 0001:000421E6  6715 0001:000421ED  6717 0001:000421F8  6718 0001:00042204
  6720 0001:0004220F  6721 0001:00042219  6722 0001:00042227  6723 0001:00042236
  6729 0001:00042247  6731 0001:0004225B  6747 0001:000422A8  6748 0001:000422B6
  6750 0001:000422BA  6751 0001:000422C7  6752 0001:000422D1  6753 0001:000422DF
  6754 0001:000422EF  6755 0001:000422FF  6757 0001:00042307  6758 0001:0004230E
  6760 0001:00042312  6761 0001:00042319  6763 0001:00042324  6764 0001:00042330
  6769 0001:00042341  6771 0001:00042355  6774 0001:0004238C  6775 0001:00042392
  6776 0001:0004239F  6777 0001:000423AB  6782 0001:000423B0  6783 0001:000423B4
  6784 0001:000423BB  6785 0001:000423C6  6786 0001:000423CF  6791 0001:000423D4
  6792 0001:000423E0  6793 0001:000423E7  6797 0001:0004241F  6831 0001:00042428
  6834 0001:0004244D  6835 0001:00042454  6836 0001:00042457  6837 0001:0004245D
  6838 0001:00042460  6839 0001:0004246B  6841 0001:00042498  6846 0001:000424A4
  6847 0001:000424B5  6848 0001:000424BC  6849 0001:000424CC  6850 0001:000424D6
  6851 0001:000424E6  6854 0001:000424EC  6855 0001:00042512  6856 0001:00042523
  6857 0001:0004252E  6859 0001:0004253A  6860 0001:00042565  6861 0001:00042590
  6863 0001:000425D7  6865 0001:00042627  6867 0001:0004265D  6868 0001:00042670
  6869 0001:00042684  6870 0001:00042697  6871 0001:000426A3  6872 0001:000426B4
  6873 0001:000426E6  6876 0001:00042788  6877 0001:000427A0  6879 0001:000427AD
  6881 0001:000427BA  6882 0001:000427DF  6883 0001:0004280A  6884 0001:0004282F
  6886 0001:00042854  6888 0001:0004289B  6893 0001:00042920  6894 0001:00042929
  6895 0001:00042930  6896 0001:00042940  6897 0001:00042943  6898 0001:00042953
  6914 0001:00042958  6915 0001:0004295C  6917 0001:0004296B  6918 0001:0004297D
  6919 0001:00042985  6920 0001:0004298A  6921 0001:00042993  6923 0001:00042998
  6924 0001:000429D1  6925 0001:000429E3  6926 0001:000429EF  6927 0001:000429FB
  6928 0001:00042A07  6929 0001:00042A13  6930 0001:00042A1F  6931 0001:00042A2B
  6932 0001:00042A37  6933 0001:00042A45  6934 0001:00042A4A  6935 0001:00042A59
  6936 0001:00042A5F  6937 0001:00042A63  6939 0001:00042A67  6940 0001:00042A6E
  6941 0001:00042A7D  6943 0001:00042A8C  6945 0001:00042A94  6946 0001:00042AA4
  6948 0001:00042AD4  6949 0001:00042ADE  6950 0001:00042AED  6951 0001:00042B06
  6955 0001:00042B4C  6956 0001:00042B59  6958 0001:00042B82  6959 0001:00042B91
  6960 0001:00042BA0  6961 0001:00042BA5  6962 0001:00042BAA  6963 0001:00042BBA
  6964 0001:00042BC9  6965 0001:00042BD7  6966 0001:00042BEA  6968 0001:00042C2B
  6970 0001:00042C41  6971 0001:00042C63  6972 0001:00042C9C  6974 0001:00042CA4
  6975 0001:00042CAA  6978 0001:00042CB7  6979 0001:00042CC6  6982 0001:00042CC9
  6983 0001:00042CCF  6968 0001:00042CD0  6985 0001:00042CE4  6987 0001:00042CF4
  6988 0001:00042D04  6989 0001:00042D10  6990 0001:00042D26  6992 0001:00042D2F
  6994 0001:00042D50  6997 0001:00042D68  6998 0001:00042D7D  6999 0001:00042D8F
  7001 0001:00042DA1  7002 0001:00042DAE  7004 0001:00042DB2  7006 0001:00042DD9
  7007 0001:00042DF8  7008 0001:00042E17  7009 0001:00042E30  7012 0001:00042E71
  7014 0001:00042EC4  7026 0001:00042F00  7027 0001:00042F39  7028 0001:00042F3B
  7029 0001:00042F51  7031 0001:00042F76  7032 0001:00042FBF  7034 0001:00042FF8
  7035 0001:0004301B  7036 0001:00043020  7039 0001:000430E3  7040 0001:000430FE
  7042 0001:00043116  7044 0001:00043140  7046 0001:00043158  7048 0001:00043182
  7050 0001:000431AC  7052 0001:000431D6  7054 0001:00043200  7056 0001:0004322A
  7058 0001:00043254  7061 0001:0004327E  7064 0001:000432A8  7067 0001:000432D5
  7070 0001:00043302  7073 0001:0004332F  7076 0001:0004335C  7079 0001:00043389
  7083 0001:000433B6  7084 0001:000433D0  7085 0001:000433EA  7086 0001:00043401
  7088 0001:00043418  7089 0001:0004342C  7097 0001:00043521  7088 0001:00043522
  7101 0001:0004352E  7102 0001:00043538  7104 0001:0004353F  7107 0001:00043591
  7102 0001:00043593  7111 0001:0004359A  7112 0001:000435A8  7116 0001:000435B2
  7118 0001:000435C0  7119 0001:000435CB  7120 0001:000435D6  7126 0001:000435E0
  7129 0001:000435E7  7132 0001:0004362D  7170 0001:0004372C  7171 0001:0004374F
  7172 0001:00043751  7175 0001:00043814  7176 0001:0004382F  7178 0001:00043847
  7180 0001:00043871  7182 0001:00043889  7184 0001:000438B3  7186 0001:000438DD
  7188 0001:00043907  7190 0001:00043931  7192 0001:0004395B  7194 0001:00043985
  7196 0001:000439AF  7199 0001:000439D9  7202 0001:00043A03  7205 0001:00043A30
  7208 0001:00043A5D  7211 0001:00043A8A  7214 0001:00043AB7  7217 0001:00043AE4
  7220 0001:00043B11  7224 0001:00043B3E  7225 0001:00043B58  7226 0001:00043B72
  7227 0001:00043B89  7229 0001:00043BA0  7230 0001:00043BB4  7239 0001:00043CBF
  7229 0001:00043CC0  7243 0001:00043CCC  7244 0001:00043CD6  7246 0001:00043CD8
  7249 0001:00043D3A  7244 0001:00043D3B  7253 0001:00043D42  7254 0001:00043D50
  7258 0001:00043D58  7260 0001:00043D66  7261 0001:00043D71  7262 0001:00043D7C
  7268 0001:00043D84  7271 0001:00043D8B  7274 0001:00043DD0  7278 0001:00043EF8
  7279 0001:00043F0E  7280 0001:00043F10  7283 0001:00043FC4  7284 0001:00043FDF
  7286 0001:00044001  7287 0001:00044016  7289 0001:00044043  7297 0001:00044060
  7303 0001:00044067  7304 0001:00044075  7308 0001:0004407D  7310 0001:0004408D
  7311 0001:00044098  7312 0001:000440A3  7313 0001:000440B1  7317 0001:000440B9
  7318 0001:000440C4  7319 0001:000440CF  7323 0001:000440F9  7356 0001:00044100
  7357 0001:00044139  7359 0001:0004413B  7362 0001:00044189  7364 0001:0004418E
  7365 0001:000441A6  7367 0001:000441AC  7357 0001:000441AD  7368 0001:000441D7
  7370 0001:000441F8  7371 0001:0004424F  7373 0001:00044259  7374 0001:0004426C
  7375 0001:00044279  7376 0001:00044287  7377 0001:00044295  7378 0001:000442A0
  7379 0001:000442BC  7380 0001:000442D8  7381 0001:000442E4  7382 0001:000442F6
  7384 0001:00044345  7391 0001:00044378  7392 0001:00044381  7393 0001:00044387
  7394 0001:00044391  7395 0001:0004439D  7396 0001:000443B0  7397 0001:000443BE
  7400 0001:000443C4  7401 0001:000443E7  7402 0001:000443EC  7405 0001:000444AF
  7406 0001:000444CA  7408 0001:000444E2  7410 0001:0004450C  7412 0001:00044536
  7414 0001:00044560  7416 0001:0004458A  7418 0001:000445B4  7421 0001:000445DE
  7422 0001:000445F8  7423 0001:00044612  7425 0001:00044629  7428 0001:00044653
  7431 0001:00044680  7434 0001:000446AD  7437 0001:000446DA  7440 0001:00044707
  7444 0001:00044734  7447 0001:0004474B  7448 0001:00044750  7449 0001:00044754
  7450 0001:00044758  7451 0001:0004476C  7455 0001:000447C1  7459 0001:00044805
  7460 0001:0004481D  7462 0001:0004485E  7468 0001:000448E7  7469 0001:00044905
  7472 0001:0004491E  7474 0001:0004495F  7475 0001:00044966  7476 0001:00044977
  7477 0001:00044999  7478 0001:000449A2  7479 0001:000449AB  7481 0001:000449B0
  7482 0001:000449C1  7483 0001:000449DD  7484 0001:000449E5  7489 0001:00044AB1
  7490 0001:00044AC3  7491 0001:00044AD5  7492 0001:00044AD9  7450 0001:00044ADA
  7494 0001:00044AE1  7496 0001:00044B11  7502 0001:00044B2E  7503 0001:00044B38
  7505 0001:00044B3A  7508 0001:00044B9C  7503 0001:00044B9D  7513 0001:00044BA7
  7519 0001:00044BB1  7520 0001:00044BC3  7524 0001:00044BD0  7526 0001:00044BE2
  7527 0001:00044BED  7528 0001:00044BF8  7533 0001:00044C05  7538 0001:00044C1E
  7539 0001:00044C23  7542 0001:00044C38  7544 0001:00044C5B  7546 0001:00044C60
  7547 0001:00044C69  7548 0001:00044C7B  7551 0001:00044C8C  7554 0001:00044CA9
  7556 0001:00044CCC  7557 0001:00044D08  7558 0001:00044D31  7559 0001:00044D5A
  7560 0001:00044D83  7561 0001:00044DAC  7563 0001:00044DB6  7564 0001:00044DC3
  7565 0001:00044DD2  7567 0001:00044DD6  7569 0001:00044DED  7571 0001:00044DFF
  7572 0001:00044E14  7574 0001:00044E16  7567 0001:00044E19  7576 0001:00044E1C
  7578 0001:00044E31  7580 0001:00044E43  7581 0001:00044E58  7583 0001:00044E5A
  7576 0001:00044E5D  7584 0001:00044E60  7585 0001:00044E6D  7586 0001:00044E71
  7588 0001:00044E7F  7589 0001:00044E87  7593 0001:00044EA5  7594 0001:00044EAE
  7595 0001:00044EC0  7601 0001:00044F20  7605 0001:0004503C  7606 0001:00045052
  7607 0001:00045054  7610 0001:00045108  7611 0001:00045123  7613 0001:00045145
  7614 0001:0004515A  7616 0001:00045187  7624 0001:000451A4  7630 0001:000451AB
  7631 0001:000451B9  7635 0001:000451C1  7637 0001:000451D1  7638 0001:000451DC
  7639 0001:000451E7  7640 0001:000451F5  7644 0001:000451FD  7645 0001:00045208
  7646 0001:00045213  7650 0001:0004523D  7654 0001:00045244  7655 0001:0004525A
  7656 0001:0004525C  7659 0001:00045310  7660 0001:0004532B  7661 0001:0004534D
  7662 0001:00045362  7664 0001:0004538F  7669 0001:000453AC  7678 0001:000453B3
  7679 0001:000453C1  7683 0001:000453C9  7685 0001:000453D9  7686 0001:000453E4
  7687 0001:000453EF  7688 0001:000453FD  7692 0001:00045405  7693 0001:00045410
  7694 0001:0004541B  7698 0001:00045445  7703 0001:0004544C  7704 0001:00045452
  7705 0001:00045459  7706 0001:00045469  7707 0001:0004546C  7721 0001:00045470
  7722 0001:0004547B  7723 0001:00045493  7724 0001:000454A4  7725 0001:000454C3
  7726 0001:000454C6  7727 0001:000454C9  7729 0001:000454E9  7731 0001:00045519
  7738 0001:00045520  7739 0001:0004554A  7740 0001:0004554F  7741 0001:00045557
  7742 0001:0004555F  7743 0001:00045567  7744 0001:0004556F  7745 0001:00045577
  7746 0001:0004557F  7747 0001:0004558C  7748 0001:00045599  7749 0001:000455A6
  7750 0001:000455B3  7751 0001:000455C0  7752 0001:000455CD  7755 0001:000455D1
  7757 0001:000455D6  7758 0001:000455EE  7759 0001:000455F1  7760 0001:00045609
  7763 0001:0004560E  7764 0001:00045617  7765 0001:0004562B  7767 0001:0004565D
  7768 0001:0004568F  7771 0001:00045734  7773 0001:0004574C  7774 0001:00045759
  7777 0001:0004576A  7778 0001:00045778  7781 0001:00045786  7782 0001:0004578D
  7783 0001:00045795  7784 0001:0004579E  7785 0001:000457A7  7788 0001:000457B0
  7789 0001:000457B7  7790 0001:000457C1  7791 0001:000457CA  7792 0001:000457D0
  7795 0001:000457E2  7796 0001:000457EF  7797 0001:000457F9  7800 0001:00045800
  7801 0001:00045818  7803 0001:00045825  7804 0001:00045831  7805 0001:00045843
  7806 0001:0004585F  7807 0001:00045867  7808 0001:00045878  7811 0001:000458D7
  7813 0001:000458DC  7814 0001:00045900  7815 0001:00045905  7818 0001:00045A20
  7819 0001:00045A25  7822 0001:00045A54  7827 0001:00045A8F  7828 0001:00045A96
  7832 0001:00045AA6  7833 0001:00045AAD  7834 0001:00045AB4  7838 0001:00045AC4
  7839 0001:00045AD2  7840 0001:00045ADE  7841 0001:00045AEB  7845 0001:00045AFC
  7846 0001:00045B03  7847 0001:00045B0D  7849 0001:00045B1A  7850 0001:00045B21
  7857 0001:00045B31  7859 0001:00045B3E  7860 0001:00045B45  7861 0001:00045B5A
  7867 0001:00045B82  7868 0001:00045B89  7869 0001:00045B94  7870 0001:00045BA6
  7871 0001:00045BB4  7872 0001:00045BD4  7874 0001:00045BE8  7879 0001:00045C06
  7881 0001:00045C18  7883 0001:00045C23  7885 0001:00045C2A  7887 0001:00045C3D
  7889 0001:00045C46  7890 0001:00045C4B  7891 0001:00045C55  7895 0001:00045C61
  7896 0001:00045C66  7897 0001:00045C70  7900 0001:00045C7A  7902 0001:00045C8A
  7904 0001:00045CAC  7905 0001:00045CD3  7906 0001:00045CE0  7907 0001:00045D0B
  7908 0001:00045D21  7909 0001:00045D46  7910 0001:00045D52  7911 0001:00045D63
  7912 0001:00045D6B  7913 0001:00045D79  7914 0001:00045D80  7915 0001:00045D87
  7902 0001:00045D8D  7918 0001:00045D99  7919 0001:00045DA7  7920 0001:00045DB2
  7922 0001:00045DBB  7923 0001:00045DC6  7927 0001:00045DD3  7928 0001:00045DD6
  7929 0001:00045DE1  7931 0001:00045DE4  7933 0001:00045DEA  7934 0001:00045DF8
  7936 0001:00045E22  7938 0001:00045E4C  7940 0001:00045E76  7942 0001:00045EA0
  7944 0001:00045EA6  7945 0001:00045EAE  7947 0001:00045EBA  7951 0001:00045F00
  7953 0001:00045F0C  7955 0001:00045F15  7956 0001:00045F20  7960 0001:00045F7D
  7963 0001:00045F8A  7965 0001:00045F95  7970 0001:00045FF3  7971 0001:00045FFD
  7976 0001:00046009  7977 0001:00046011  7979 0001:00046029  7980 0001:0004603D
  7983 0001:0004604B  7984 0001:00046067  7986 0001:00046073  7987 0001:0004607D
  7988 0001:00046086  7990 0001:0004609B  7993 0001:000460D9  7996 0001:00046109
  7997 0001:0004611D  7998 0001:00046141  7999 0001:00046165  8001 0001:0004616E
  8002 0001:00046192  8003 0001:0004619E  8004 0001:000461A8  8005 0001:000461B0
  8006 0001:000461B9  8009 0001:000461DB  8011 0001:000461F0  8012 0001:00046202
  8013 0001:00046210  8015 0001:00046221  8016 0001:00046233  8018 0001:00046242
  8020 0001:0004624A  8021 0001:00046254  8022 0001:0004625E  8023 0001:00046268
  8024 0001:00046272  8025 0001:0004627C  8026 0001:00046286  8028 0001:00046290
  8030 0001:000462AB  8032 0001:000462DE  8034 0001:000462F9  8035 0001:00046304
  8039 0001:00046339  8043 0001:0004636C  8044 0001:0004637A  8048 0001:000463AF
  8050 0001:000463C2  8052 0001:000463DD  8054 0001:000463F8  8056 0001:00046413
  8058 0001:0004644F  8061 0001:00046485  8063 0001:0004648E  8064 0001:000464A4
  8066 0001:000464BA  8068 0001:000464C3  8070 0001:000464D9  8072 0001:00046515
  8073 0001:00046532  8075 0001:0004653B  8078 0001:00046551  8081 0001:0004657C
  8082 0001:00046586  8083 0001:00046590  8084 0001:000465B3  8085 0001:000465D5
  8087 0001:000465F3  8088 0001:00046616  8089 0001:00046638  8091 0001:00046656
  8093 0001:00046668  8094 0001:0004668B  8095 0001:000466AD  8097 0001:000466CB
  8098 0001:000466EE  8099 0001:00046710  8102 0001:0004672E  8104 0001:00046740
  8105 0001:00046763  8106 0001:00046785  8108 0001:000467A3  8109 0001:000467C6
  8110 0001:000467E8  8113 0001:00046806  8114 0001:00046813  8116 0001:00046818
  8117 0001:00046848  8120 0001:0004684A  8121 0001:0004685B  8122 0001:00046866
  8123 0001:00046882  8124 0001:0004688E  8125 0001:0004689D  8126 0001:000468A5
  8130 0001:000468B2  8131 0001:000468BD  8132 0001:000468C5  8133 0001:000468CD
  8135 0001:000468EF  8137 0001:00046911  8139 0001:00046933  8140 0001:00046938
  8141 0001:00046943  8142 0001:0004694E  8143 0001:00046959  8144 0001:00046962
  8145 0001:0004696D  8150 0001:00046984  8153 0001:0004698E  8154 0001:00046999
  8156 0001:000469A6  8157 0001:000469AD  8162 0001:000469BD  8163 0001:000469C2
  8165 0001:000469D2  8171 0001:000469EF  8172 0001:000469F9  8173 0001:00046A0A
  8174 0001:00046A2B  8175 0001:00046A38  8179 0001:00046A4D  8180 0001:00046A5A
  8181 0001:00046A6A  8182 0001:00046A9E  8183 0001:00046AAA  8184 0001:00046AC1
  8187 0001:00046B01  8188 0001:00046B13  8190 0001:00046B49  8191 0001:00046B57
  8192 0001:00046B73  8194 0001:00046B92  8195 0001:00046B9E  8197 0001:00046BB2
  8200 0001:00046BBB  8201 0001:00046BE2  8204 0001:00046BFC  8206 0001:00046C06
  8207 0001:00046C10  8208 0001:00046C1F  8210 0001:00046C79  8211 0001:00046C8A
  8213 0001:00046CE4  8214 0001:00046CF8  8216 0001:00046D52  8217 0001:00046D66
  8219 0001:00046DC0  8221 0001:00046E1A  8222 0001:00046E2E  8224 0001:00046E39
  8225 0001:00046E50  8226 0001:00046E6A  8228 0001:00046E88  8230 0001:00046E8F
  8231 0001:00046E94  8234 0001:00046EBD  8235 0001:00046ED7  8236 0001:00046EE7
  8237 0001:00046EEC  8238 0001:00046F0A  8239 0001:00046F1B  8242 0001:00046F41
  8243 0001:00046F5B  8245 0001:00046F87  8247 0001:00046FA1  8249 0001:00046FAB
  8251 0001:00046FC1  8253 0001:00046FF8  8254 0001:00047015  8256 0001:0004704B
  8258 0001:00047069  8260 0001:00047091  8261 0001:000470AE  8263 0001:000470E4
  8266 0001:00047102  8267 0001:0004710C  8268 0001:0004711A  8269 0001:00047129
  8272 0001:0004717F  8274 0001:00047192  8275 0001:000471BA  8276 0001:000471D5
  8277 0001:000471E1  8278 0001:000471EE  8280 0001:000471F5  8282 0001:00047229
  8283 0001:00047246  8285 0001:0004727C  8287 0001:0004729A  8288 0001:000472B2
  8290 0001:000472C7  8295 0001:000472DE  8296 0001:00047311  8298 0001:0004732D
  8300 0001:00047340  8302 0001:00047352  8304 0001:00047364  8306 0001:0004736D
  8307 0001:00047377  8308 0001:00047387  8309 0001:000473A2  8311 0001:000473BE
  8312 0001:000473CE  8316 0001:000473DA  8318 0001:000473F7  8319 0001:00047407
  8320 0001:00047417  8321 0001:00047424  8322 0001:00047432  8327 0001:00047444
  8328 0001:00047452  8332 0001:0004745C  8334 0001:0004746A  8335 0001:00047475
  8336 0001:00047480  8340 0001:000474B0  8356 0001:000474E8  8357 0001:00047500
  8358 0001:00047514  8359 0001:00047534  8360 0001:00047557  8361 0001:00047562
  8364 0001:0004756C  8365 0001:00047584  8367 0001:00047596  8368 0001:000475A2
  8369 0001:000475B4  8370 0001:000475D0  8371 0001:000475D8  8373 0001:000475E9
  8377 0001:00047648  8380 0001:00047650  8381 0001:00047666  8383 0001:0004769D
  8384 0001:000476C6  8387 0001:000476D8  8389 0001:000476E9  8390 0001:00047716
  8391 0001:00047735  8396 0001:00047740  8397 0001:0004774A  8398 0001:00047766
  8399 0001:0004776F  8400 0001:0004778D  8401 0001:000477A2  8406 0001:000477A8
  8407 0001:000477C4  8409 0001:000477E1  8410 0001:000477EA  8412 0001:00047809
  8413 0001:0004781E  8415 0001:00047832  8418 0001:00047872  8421 0001:00047878
  8422 0001:0004787B  8423 0001:000478A1  8430 0001:000478BC  8431 0001:000478C7
  8432 0001:000478D3  8434 0001:000478D7  8435 0001:000478E5  8437 0001:000478E9
  8438 0001:000478EC  8439 0001:000478FA  8441 0001:000478FE  8442 0001:0004790B
  8446 0001:00047917  8448 0001:00047948  8449 0001:00047962  8450 0001:0004798C
  8452 0001:0004799A  8453 0001:000479AA  8454 0001:000479BA  8455 0001:000479CA
  8456 0001:000479DA  8457 0001:000479EA  8460 0001:00047A06  8465 0001:00047A0F
  8466 0001:00047A4B  8469 0001:00047A50  8471 0001:00047A7A  8475 0001:00047A9C
  8477 0001:00047AD1  8478 0001:00047ADB  8479 0001:00047B0B  8481 0001:00047B48
  8482 0001:00047B69  8483 0001:00047B6E  8486 0001:00047C3A  8487 0001:00047C44
  8488 0001:00047C4C  8489 0001:00047C61  8490 0001:00047C7C  8491 0001:00047C97
  8492 0001:00047CB2  8493 0001:00047CCD  8494 0001:00047CE8  8495 0001:00047D03
  8496 0001:00047D1E  8497 0001:00047D39  8498 0001:00047D54  8500 0001:00047D6F
  8503 0001:00047DA7  8504 0001:00047DC5  8505 0001:00047DE3  8506 0001:00047E01
  8508 0001:00047E26  8511 0001:00047E64  8513 0001:00047E71  8514 0001:00047E87
  8515 0001:00047E9D  8516 0001:00047EBD  8517 0001:00047EDD  8519 0001:00047EF1
  8522 0001:00047F18  8523 0001:00047F29  8525 0001:00047F5A  8526 0001:00047F61
  8527 0001:00047F8B  8530 0001:00047FA9  8531 0001:00047FAD  8532 0001:00047FB8
  8534 0001:00047FC9  8535 0001:00047FD8  8537 0001:00047FFC  8538 0001:0004800F
  8540 0001:00048018  8541 0001:0004801C  8543 0001:0004804D  8544 0001:00048051
  8549 0001:00048084  8550 0001:00048097  8552 0001:000480AA  8554 0001:000480BC
  8555 0001:000480C0  8557 0001:000480FA  8558 0001:00048102  8559 0001:0004810A
  8562 0001:0004814F  8564 0001:00048177  8566 0001:000481A4  8567 0001:000481B0
  8569 0001:000481BE  8570 0001:000481D1  8571 0001:000481EB  8573 0001:000481FD
  8574 0001:00048201  8576 0001:00048238  8577 0001:0004823C  8578 0001:00048256
  8579 0001:00048269  8581 0001:0004828A  8585 0001:00048292  8586 0001:000482A5
  8588 0001:000482B8  8590 0001:000482C5  8591 0001:000482C9  8593 0001:00048301
  8594 0001:0004831B  8595 0001:00048329  8597 0001:0004834F  8598 0001:0004835B
  8603 0001:000483A0  8604 0001:000483B3  8606 0001:000483C6  8607 0001:000483CA
  8608 0001:000483DB  8610 0001:00048409  8611 0001:00048417  8612 0001:0004842D
  8614 0001:0004844E  8615 0001:00048455  8616 0001:00048467  8619 0001:00048494
  8621 0001:000484BF  8623 0001:000484E0  8625 0001:00048510  8627 0001:0004852A
  8628 0001:0004853A  8629 0001:0004854C  8630 0001:00048553  8631 0001:00048562
  8632 0001:0004856A  8637 0001:00048577  8640 0001:00048581  8641 0001:00048589
  8642 0001:00048591  8643 0001:00048596  8644 0001:000485A1  8648 0001:000485B1
  8649 0001:000485B8  8650 0001:000485C6  8651 0001:000485E1  8652 0001:000485EE
  8656 0001:00048603  8658 0001:00048610  8659 0001:00048617  8664 0001:00048623
  8665 0001:0004862E  8667 0001:0004863B  8668 0001:00048642  8673 0001:0004864E
  8674 0001:00048655  8678 0001:00048661  8679 0001:00048666  8682 0001:00048680
  8686 0001:00048694  8687 0001:0004869B  8689 0001:000486A2  8693 0001:000486AE
  8694 0001:000486CB  8696 0001:000486D2  8700 0001:000486DE  8701 0001:000486E5
  8702 0001:000486EF  8704 0001:000486FC  8705 0001:00048703  8712 0001:0004870F
  8713 0001:00048716  8714 0001:00048721  8715 0001:00048730  8716 0001:0004873E
  8717 0001:0004876A  8718 0001:00048796  8719 0001:000487AE  8721 0001:000487C2
  8726 0001:000487DD  8728 0001:000487ED  8729 0001:000487F8  8733 0001:00048832
  8737 0001:00048898  8739 0001:000488A9  8741 0001:000488BA  8743 0001:000488BC
  8744 0001:000488E4  8745 0001:000488F1  8746 0001:000488FF  8747 0001:00048907
  8748 0001:0004890E  8750 0001:0004891E  8751 0001:00048920  8752 0001:00048927
  8753 0001:0004892C  8755 0001:00048947  8756 0001:0004894C  8758 0001:00048967
  8760 0001:0004896C  8761 0001:00048973  8764 0001:000489A8  8766 0001:000489AD
  8768 0001:000489B4  8769 0001:000489C7  8773 0001:000489FC  8775 0001:00048A01
  8776 0001:00048A06  8777 0001:00048A10  8779 0001:00048A12  8780 0001:00048A1B
  8781 0001:00048A27  8783 0001:00048A3C  8784 0001:00048A43  8786 0001:00048A54
  8787 0001:00048A7F  8806 0001:00048AE0  8808 0001:00048AEC  8809 0001:00048AFC
  8811 0001:00048B11  8813 0001:00048B19  8814 0001:00048B21  8815 0001:00048B29
  8821 0001:00048B30  8823 0001:00048B3F  8824 0001:00048B49  8827 0001:00048B5E
  8828 0001:00048B68  8831 0001:00048B72  8832 0001:00048B82  8833 0001:00048B88
  8834 0001:00048B8E  8835 0001:00048B94  8838 0001:00048B9A  8839 0001:00048BA4
  8840 0001:00048BA8  8841 0001:00048BAD  8842 0001:00048BB0  8843 0001:00048BC2
  8845 0001:00048BCC  8846 0001:00048BEC  8847 0001:00048BF1  8850 0001:00048C3F
  8851 0001:00048C4F  8852 0001:00048C57  8853 0001:00048C5F  8855 0001:00048C84
  8856 0001:00048C9F  8857 0001:00048CB4  8860 0001:00048CC5  8861 0001:00048CD2
  8866 0001:00048CF0  8867 0001:00048CFF  8868 0001:00048D04  8872 0001:00048D14
  8876 0001:00048D20  8877 0001:00048D27  8878 0001:00048D31  8879 0001:00048D3C
  8880 0001:00048D49  8881 0001:00048D57  8883 0001:00048D7A  8888 0001:00048D95
  8891 0001:00048DA2  8894 0001:00048DF2  8896 0001:00048E04  8897 0001:00048E07
  8898 0001:00048E0E  8899 0001:00048E1C  8900 0001:00048E25  8902 0001:00048E42
  8904 0001:00048E6A  8906 0001:00048E79  8909 0001:00048E88  8910 0001:00048E92
  8912 0001:00048EA0  8916 0001:00048ED3  8917 0001:00048EDA  8922 0001:00048EDC
  8925 0001:00048EEE  8927 0001:00048F01  8928 0001:00048F05  8929 0001:00048F0E
  8932 0001:00048F16  8933 0001:00048F1D  8935 0001:00048F23  8951 0001:00048F28
  8952 0001:00048F31  8953 0001:00048F37  8954 0001:00048F3D  8955 0001:00048F43
  8956 0001:00048F49  8957 0001:00048F4F  8958 0001:00048F52  8964 0001:00048F58
  8965 0001:00048F65  8966 0001:00048F67  8968 0001:00048F70  8970 0001:00048F77
  8971 0001:00048F79  8973 0001:00048F7E  8974 0001:00048F82  8976 0001:00048F8B
  8971 0001:00048F8D  8978 0001:00048F90  8979 0001:00048F92  8968 0001:00048F96
  8980 0001:00048F9E  8982 0001:00048FA5  8983 0001:00048FB1  8982 0001:00048FCF
  8984 0001:00048FD2  8985 0001:00048FD4  8988 0001:00048FDC  8989 0001:00048FED
  8990 0001:00048FFB  8991 0001:00049005  8992 0001:00049008  8993 0001:0004900E
  8994 0001:00049011  8995 0001:00049024  9008 0001:00049034  9009 0001:00049041
  9010 0001:0004904B  9011 0001:0004905E  9012 0001:00049073  9013 0001:00049082
  9014 0001:00049097  9015 0001:000490AE  9016 0001:000490C1  9019 0001:000490D8
  9020 0001:000490E2  9021 0001:000490E4  9024 0001:000490E9  9025 0001:000490F2
  9027 0001:000490F8  9028 0001:0004910A  9029 0001:00049110  9022 0001:00049117
  9032 0001:0004911D  9034 0001:00049120  9035 0001:00049134  9036 0001:00049149
  9038 0001:00049150  9039 0001:0004915E  9040 0001:00049170  9041 0001:00049174
  9042 0001:00049183  9043 0001:00049191  9036 0001:00049197  9048 0001:0004919C
  9049 0001:000491B0  9050 0001:000491B6  9046 0001:000491C0  9052 0001:000491D0
  9053 0001:000491DD  9054 0001:000491F4  9093 0001:000491FC  9094 0001:00049203
  9095 0001:00049205  9094 0001:0004921F  9096 0001:00049224  9097 0001:00049230
  9098 0001:00049234  9104 0001:00049238  9105 0001:00049248  9107 0001:0004924D
  9109 0001:00049258  9110 0001:00049266  9111 0001:00049273  9112 0001:00049280
  9114 0001:0004929B  9115 0001:000492A2  9116 0001:000492A9  9118 0001:000492B4
  9120 0001:000492BB  9124 0001:000492C2  9126 0001:000492C4  9127 0001:000492CC
  9129 0001:000492DB  9124 0001:000492DC  9130 0001:000492E1  9144 0001:000492E8
  9145 0001:000492F5  9146 0001:00049301  9147 0001:00049306  9148 0001:0004930B
  9149 0001:00049310  9150 0001:00049315  9151 0001:00049323  9152 0001:0004932B
  9154 0001:0004932F  9155 0001:00049334  9159 0001:0004933B  9160 0001:00049341
  9162 0001:00049346  9164 0001:0004934C  9166 0001:0004935E  9167 0001:00049363
  9169 0001:00049372  9171 0001:00049379  9172 0001:0004937E  9173 0001:00049388
  9174 0001:00049392  9179 0001:0004939E  9180 0001:000493A5  9183 0001:000493ED
  9186 0001:00049411  9192 0001:0004941C  9194 0001:00049428  9195 0001:0004942F
  9198 0001:0004943A  9199 0001:0004943D  9201 0001:00049443  9202 0001:00049445
  9203 0001:0004944A  9204 0001:0004944F  9206 0001:00049454  9208 0001:00049456
  9210 0001:0004945E  9211 0001:00049461  9212 0001:00049467  9213 0001:0004946D
  9214 0001:00049473  9215 0001:00049481  9216 0001:00049487  9218 0001:0004948A
  9206 0001:0004948B  9220 0001:00049490  9221 0001:00049493  9222 0001:00049496
  9223 0001:0004949C  9224 0001:000494A2  9225 0001:000494AB  9238 0001:000494B4
  9239 0001:000494B9  9240 0001:000494BE  9241 0001:000494BF  9242 0001:000494C8
  9243 0001:000494D2  9245 0001:000494D4  9246 0001:000494E2  9247 0001:000494ED
  9248 0001:000494F5  9249 0001:00049503  9252 0001:00049510  9253 0001:00049517
  9254 0001:00049520  9255 0001:00049529  9256 0001:0004952F  9257 0001:00049535
  9260 0001:0004953A  9261 0001:00049544  9262 0001:00049552  9264 0001:0004956C
  9265 0001:0004957F  9266 0001:00049582  9267 0001:0004959F  9269 0001:000495B2
  9270 0001:000495BE  9271 0001:000495E1  9272 0001:00049603  9267 0001:00049606
  9273 0001:00049609  9262 0001:0004960C  9275 0001:00049622  9278 0001:00049642
  9280 0001:00049652  9281 0001:00049658  9282 0001:00049667  9283 0001:0004966C
  9284 0001:00049671  9286 0001:00049680  9287 0001:0004968F  9288 0001:00049696
  9289 0001:0004969E  9291 0001:000496B0  9292 0001:000496C0  9294 0001:000496C8
  9295 0001:000496D4  9296 0001:000496E0  9297 0001:000496EA  9298 0001:000496F8
  9301 0001:0004970A  9302 0001:00049714  9303 0001:0004971D  9304 0001:00049726
  9305 0001:0004972F  9307 0001:00049738  9308 0001:00049755  9309 0001:00049762
  9310 0001:00049771  9311 0001:00049788  9312 0001:00049792  9313 0001:000497A0
  9314 0001:000497AA  9317 0001:000497D9  9320 0001:000497F7  9322 0001:00049808
  9323 0001:0004980B  9336 0001:00049810  9337 0001:00049819  9338 0001:00049829
  9340 0001:0004982E  9342 0001:00049837  9343 0001:00049841  9344 0001:00049850
  9345 0001:00049855  9349 0001:0004985C  9350 0001:00049866  9351 0001:00049873
  9353 0001:00049897  9354 0001:000498A6  9355 0001:000498AC  9357 0001:000498B2
  9358 0001:000498C2  9359 0001:000498D2  9360 0001:000498D8  9361 0001:000498E0
  9362 0001:000498EB  9363 0001:000498F5  9364 0001:00049908  9365 0001:0004991B
  9366 0001:00049931  9367 0001:0004994D  9368 0001:00049961  9369 0001:0004996F
  9370 0001:00049976  9371 0001:0004997D  9373 0001:0004998F  9374 0001:0004999B
  9375 0001:000499A9  9376 0001:000499AE  9378 0001:000499CA  9380 0001:000499CF
  9381 0001:000499DA  9382 0001:000499ED  9385 0001:000499F6  9388 0001:000499FD
  9390 0001:00049A2B  9392 0001:00049A3E  9393 0001:00049A50  9394 0001:00049A5D
  9395 0001:00049A6B  9396 0001:00049A7E  9397 0001:00049A81  9398 0001:00049A84
  9399 0001:00049A87  9400 0001:00049A8A  9402 0001:00049AAA  9405 0001:00049ABB
  9406 0001:00049AC4  9407 0001:00049ACA  9408 0001:00049AD0  9409 0001:00049ADF
  9410 0001:00049AED  9411 0001:00049AF3  9413 0001:00049B06  9414 0001:00049B0F
  9416 0001:00049B20  9418 0001:00049B50  9420 0001:00049B67  9443 0001:00049B70
  9444 0001:00049B79  9445 0001:00049B8F  9446 0001:00049B9C  9447 0001:00049BAF
  9448 0001:00049BC2  9449 0001:00049BE2  9450 0001:00049BF5  9451 0001:00049C14
  9452 0001:00049C27  9454 0001:00049C2C  9455 0001:00049C40  9456 0001:00049C42
  9457 0001:00049C4B  9458 0001:00049C58  9459 0001:00049C5A  9461 0001:00049C68
  9466 0001:00049C7A  9467 0001:00049C84  9468 0001:00049C8F  9469 0001:00049C9A
  9470 0001:00049CA3  9471 0001:00049CAC  9472 0001:00049CB4  9476 0001:00049CC7
  9477 0001:00049CD4  9479 0001:00049CE2  9480 0001:00049D07  9481 0001:00049D16
  9482 0001:00049D24  9483 0001:00049D2E  9484 0001:00049D38  9485 0001:00049D3F
  9486 0001:00049D46  9487 0001:00049D50  9489 0001:00049D62  9490 0001:00049D6C
  9491 0001:00049D7C  9493 0001:00049D7E  9494 0001:00049D87  9495 0001:00049D92
  9497 0001:00049D96  9499 0001:00049DA2  9500 0001:00049DAF  9501 0001:00049DB5
  9503 0001:00049DC7  9504 0001:00049DCB  9505 0001:00049DCC  9506 0001:00049DD1
  9507 0001:00049DD2  9508 0001:00049DD7  9509 0001:00049DD8  9501 0001:00049DDB
  9510 0001:00049DDE  9512 0001:00049DEA  9513 0001:00049DF9  9514 0001:00049E09
  9515 0001:00049E18  9516 0001:00049E28  9517 0001:00049E3B  9518 0001:00049E46
  9519 0001:00049E4E  9520 0001:00049E55  9521 0001:00049E61  9522 0001:00049E69
  9523 0001:00049E79  9525 0001:00049E96  9528 0001:00049EB5  9530 0001:00049EC8
  9535 0001:00049F14  9536 0001:00049F1D  9538 0001:00049F21  9539 0001:00049F30
  9540 0001:00049F3E  9541 0001:00049F46  9542 0001:00049F54  9544 0001:00049F6D
  9547 0001:00049F8B  9549 0001:00049F9B  9553 0001:00049FA4  9554 0001:00049FB8
  9555 0001:00049FC3  9556 0001:00049FCE  9557 0001:00049FDF  9560 0001:00049FE0
  9561 0001:00049FE3  9562 0001:00049FE8  9563 0001:00049FEF  9564 0001:00049FF4
  9567 0001:00049FF8  9568 0001:00049FFB  9569 0001:0004A000  9570 0001:0004A007
  9571 0001:0004A00C  9608 0001:0004A010  9609 0001:0004A019  9611 0001:0004A01C
  9612 0001:0004A088  9614 0001:0004A08C  9615 0001:0004A09F  9617 0001:0004A0A7
  9618 0001:0004A0C3  9619 0001:0004A0DF  9620 0001:0004A0EE  9621 0001:0004A0FC
  9623 0001:0004A10C  9625 0001:0004A137  9626 0001:0004A14D  9628 0001:0004A153
  9630 0001:0004A17E  9632 0001:0004A194  9635 0001:0004A1B0  9637 0001:0004A1C1
  9638 0001:0004A1C7  9639 0001:0004A1D4  9641 0001:0004A1DE  9642 0001:0004A1EE
  9643 0001:0004A1FF  9644 0001:0004A210  9647 0001:0004A22C  9648 0001:0004A23B
  9650 0001:0004A24A  9653 0001:0004A24F  9654 0001:0004A267  9656 0001:0004A271
  9657 0001:0004A280  9658 0001:0004A28F  9660 0001:0004A29D  9661 0001:0004A2A2
  9662 0001:0004A2B1  9663 0001:0004A2BF  9664 0001:0004A2CA  9663 0001:0004A2D7
  9665 0001:0004A2DA  9667 0001:0004A2E0  9668 0001:0004A2F2  9667 0001:0004A311
  9670 0001:0004A314  9671 0001:0004A32A  9673 0001:0004A36A  9674 0001:0004A388
  9675 0001:0004A393  9676 0001:0004A3C2  9677 0001:0004A3DB  9678 0001:0004A3EC
  9679 0001:0004A415  9680 0001:0004A43E  9681 0001:0004A441  9670 0001:0004A442
  9683 0001:0004A456  9686 0001:0004A466  9687 0001:0004A47C  9688 0001:0004A492
  9689 0001:0004A4A0  9690 0001:0004A4BA  9692 0001:0004A4D0  9694 0001:0004A4DC
  9695 0001:0004A4E6  9696 0001:0004A51B  9698 0001:0004A56A  9690 0001:0004A56B
  9700 0001:0004A572  9701 0001:0004A584  9702 0001:0004A5A3  9703 0001:0004A5B1
  9704 0001:0004A5BA  9705 0001:0004A5C8  9706 0001:0004A5CE  9708 0001:0004A5DC
  9709 0001:0004A5E4  9711 0001:0004A5ED  9712 0001:0004A5F2  9713 0001:0004A5FE
  9714 0001:0004A601  9715 0001:0004A616  9716 0001:0004A628  9718 0001:0004A645
  9719 0001:0004A65B  9722 0001:0004A688  9723 0001:0004A690  9725 0001:0004A698
  9727 0001:0004A6A7  9731 0001:0004A6B8  9734 0001:0004A6C4  9737 0001:0004A6D0
  9739 0001:0004A6E7  9741 0001:0004A74B  9746 0001:0004A8BC  9747 0001:0004A8CB
  9748 0001:0004A8DA  9749 0001:0004A8E8  9750 0001:0004A8F8  9752 0001:0004A922
  9754 0001:0004A935  9764 0001:0004A960  9765 0001:0004A983  9767 0001:0004A99E
  9768 0001:0004A9A5  9770 0001:0004A9AA  9771 0001:0004A9B9  9772 0001:0004A9C7
  9773 0001:0004A9D1  9774 0001:0004A9E8  9775 0001:0004A9FB  9776 0001:0004AA0E
  9777 0001:0004AA1F  9778 0001:0004AA28  9779 0001:0004AA32  9780 0001:0004AA3B
  9781 0001:0004AA46  9783 0001:0004AA4D  9784 0001:0004AA5B  9785 0001:0004AA5E
  9786 0001:0004AA6F  9787 0001:0004AA72  9781 0001:0004AA75  9789 0001:0004AA78
  9791 0001:0004AA97  9793 0001:0004AACC  9800 0001:0004AAE0  9801 0001:0004AAE9
  9803 0001:0004AAF2  9806 0001:0004AB02  9808 0001:0004AB08  9809 0001:0004AB11
  9804 0001:0004AB1A  9814 0001:0004AB3E  9816 0001:0004AB43  9819 0001:0004AB4C
  9820 0001:0004AB73  9822 0001:0004AB7C  9823 0001:0004AB81  9826 0001:0004ABD6
  9828 0001:0004ABF6  9830 0001:0004AC25  9833 0001:0004AC40  9834 0001:0004AC43
  9836 0001:0004AC4C  9837 0001:0004AC51  9839 0001:0004AC70  9841 0001:0004AC75
  9844 0001:0004AC78  9845 0001:0004AC7B  9847 0001:0004AC84  9848 0001:0004AC89
  9849 0001:0004ACA4  9851 0001:0004ACA9  9855 0001:0004ACAC  9857 0001:0004ACB5
  9858 0001:0004ACBA  9859 0001:0004ACCE  9861 0001:0004ACD3  9866 0001:0004ACD4
  9867 0001:0004ACD7  9868 0001:0004ACE3  9883 0001:0004ACE8  9884 0001:0004ACEB
  9885 0001:0004ACF7  9886 0001:0004AD0C  9887 0001:0004AD1C  9890 0001:0004AD20
  9891 0001:0004AD23  9892 0001:0004AD2A  9893 0001:0004AD36  9896 0001:0004AD38
  9897 0001:0004AD3B  9898 0001:0004AD44  9899 0001:0004AD5A  9902 0001:0004AD5C
  9903 0001:0004AD5F  9904 0001:0004AD71  9905 0001:0004AD77  9906 0001:0004AD85
  9911 0001:0004AD88  9912 0001:0004ADA7  9914 0001:0004ADC2  9915 0001:0004ADC9
  9918 0001:0004ADCE  9919 0001:0004ADD8  9920 0001:0004AE0B  9922 0001:0004AE18
  9930 0001:0004AEA7  9936 0001:0004AFE4  9937 0001:0004B002  9938 0001:0004B00A
  9939 0001:0004B019  9940 0001:0004B027  9942 0001:0004B030  9943 0001:0004B045
  9942 0001:0004B061  9945 0001:0004B064  9946 0001:0004B075  9945 0001:0004B082
  9947 0001:0004B085  9948 0001:0004B097  9947 0001:0004B0BE  9950 0001:0004B0CE
  9952 0001:0004B100  9955 0001:0004B108  9956 0001:0004B140  9957 0001:0004B145
  9958 0001:0004B158  9959 0001:0004B17C  9961 0001:0004B188  9962 0001:0004B211
  9964 0001:0004B21F  9965 0001:0004B236  9966 0001:0004B254  9967 0001:0004B262
  9968 0001:0004B267  9969 0001:0004B26E  9970 0001:0004B273  9971 0001:0004B27E
  9972 0001:0004B2A0  9974 0001:0004B2D7  9975 0001:0004B2E2  9976 0001:0004B2ED
  9977 0001:0004B2FC  9978 0001:0004B300  9979 0001:0004B31E  9982 0001:0004B32B
  9992 0001:0004B366  9994 0001:0004B37A  9995 0001:0004B391 10001 0001:0004B41E
 10002 0001:0004B435 10009 0001:0004B528 10010 0001:0004B53F 10019 0001:0004B5E7
 10022 0001:0004B64D 10023 0001:0004B654 10024 0001:0004B67C 10026 0001:0004B690
 10029 0001:0004B6AF 10030 0001:0004B6B3 10032 0001:0004B722 10040 0001:0004B9B4
 10041 0001:0004BA40 10042 0001:0004BA44 10043 0001:0004BA5A 10044 0001:0004BA70
 10045 0001:0004BA7F 10046 0001:0004BA8D 10049 0001:0004BA9B 10050 0001:0004BAAB
 10051 0001:0004BAB8 10053 0001:0004BACE 10054 0001:0004BAD5 10055 0001:0004BADD
 10057 0001:0004BAE3 10058 0001:0004BAFA 10059 0001:0004BB17 10060 0001:0004BB1F
 10062 0001:0004BB27 10063 0001:0004BB34 10066 0001:0004BB7A 10051 0001:0004BB7B
 10069 0001:0004BB91 10070 0001:0004BB95 10073 0001:0004BBB3 10075 0001:0004BBC3
 10076 0001:0004BC19 10081 0001:0004BC58 10082 0001:0004BC71 10083 0001:0004BC7C
 10084 0001:0004BC98 10088 0001:0004BCA0 10089 0001:0004BCA8 10094 0001:0004BCAC
 10095 0001:0004BCD1 10098 0001:0004BCDD 10099 0001:0004BCE4 10101 0001:0004BCFD
 10104 0001:0004BD16 10105 0001:0004BD2D 10108 0001:0004BD77 10124 0001:0004BD84
 10125 0001:0004BD98 10126 0001:0004BD9D 10127 0001:0004BDED 10129 0001:0004BE04
 10130 0001:0004BE1E 10132 0001:0004BE30 10133 0001:0004BE3F 10134 0001:0004BE4D
 10135 0001:0004BE7B 10136 0001:0004BE89 10137 0001:0004BE97 10140 0001:0004BEB9
 10142 0001:0004BECB 10144 0001:0004BEFD 10147 0001:0004BF14 10148 0001:0004BF17
 10149 0001:0004BF25 10151 0001:0004BF39 10152 0001:0004BF40 10156 0001:0004BF54
 10157 0001:0004BF66 10171 0001:0004BF68 10172 0001:0004BF8F 10173 0001:0004BF96
 10174 0001:0004BFA9 10175 0001:0004BFCC 10177 0001:0004BFE7 10173 0001:0004C013
 10178 0001:0004C038 10180 0001:0004C04C 10181 0001:0004C091 10182 0001:0004C0A7
 10183 0001:0004C0BD 10184 0001:0004C0D2 10185 0001:0004C0E8 10186 0001:0004C0F7
 10187 0001:0004C106 10188 0001:0004C10D 10189 0001:0004C114 10190 0001:0004C11A
 10191 0001:0004C12D 10193 0001:0004C188 10194 0001:0004C19C 10197 0001:0004C1C9
 10199 0001:0004C1CD 10200 0001:0004C1CF 10201 0001:0004C1D4 10202 0001:0004C1DF
 10203 0001:0004C1E9 10204 0001:0004C1F1 10205 0001:0004C1F5 10206 0001:0004C207
 10207 0001:0004C20F 10208 0001:0004C214 10209 0001:0004C224 10210 0001:0004C22D
 10213 0001:0004C238 10214 0001:0004C289 10218 0001:0004C304 10220 0001:0004C315
 10222 0001:0004C326 10226 0001:0004C328 10228 0001:0004C339 10230 0001:0004C34A
 10234 0001:0004C34C 10236 0001:0004C35D 10238 0001:0004C36E 10242 0001:0004C370
 10244 0001:0004C381 10246 0001:0004C392 10250 0001:0004C394 10252 0001:0004C3A5
 10254 0001:0004C3B6 10258 0001:0004C3B8 10260 0001:0004C3C9 10262 0001:0004C3DA
 10268 0001:0004C3DC 10269 0001:0004C400 10271 0001:0004C40F 10272 0001:0004C421
 10273 0001:0004C42F 10274 0001:0004C441 10273 0001:0004C475 10276 0001:0004C487
 10278 0001:0004C4B9 10281 0001:0004C4C0 10282 0001:0004C4DB 10284 0001:0004C544
 10292 0001:0004C54C 10293 0001:0004C58D 10294 0001:0004C59C 10295 0001:0004C5AA
 10296 0001:0004C5B4 10297 0001:0004C5B9 10300 0001:0004C5E2 10301 0001:0004C5F0
 10302 0001:0004C5FF 10304 0001:0004C60A 10305 0001:0004C617 10307 0001:0004C670
 10309 0001:0004C6B6 10312 0001:0004C6D0 10313 0001:0004C6F5 10314 0001:0004C6F7
 10316 0001:0004C6FA 10318 0001:0004C704 10321 0001:0004C70D 10322 0001:0004C710
 10323 0001:0004C723 10324 0001:0004C736 10325 0001:0004C749 10326 0001:0004C752
 10330 0001:0004C794 10331 0001:0004C7A7 10340 0001:0004C813 10341 0001:0004C821
 10344 0001:0004C83A 10345 0001:0004C841 10346 0001:0004C846 10347 0001:0004C850
 10349 0001:0004C85D 10351 0001:0004C85F 10353 0001:0004C88D 10363 0001:0004C894
 10364 0001:0004C8C1 10366 0001:0004C8C9 10367 0001:0004C8CE 10370 0001:0004C8EF
 10371 0001:0004C917 10373 0001:0004C91F 10375 0001:0004C95C 10376 0001:0004C98D
 10385 0001:0004CA08 10386 0001:0004CA2A 10388 0001:0004CA34 10389 0001:0004CA4A
 10392 0001:0004CA5F 10393 0001:0004CA6F 10395 0001:0004CA75 10396 0001:0004CA79
 10400 0001:0004CA88 10401 0001:0004CA8C 10403 0001:0004CA99 10404 0001:0004CAA8
 10405 0001:0004CAB6 10406 0001:0004CACA 10405 0001:0004CAF0 10407 0001:0004CAF3
 10408 0001:0004CB01 10413 0001:0004CB4C 10414 0001:0004CB51 10417 0001:0004CB69
 10419 0001:0004CB79 10420 0001:0004CB7E 10421 0001:0004CB91 10422 0001:0004CBBC
 10428 0001:0004CBE4 10429 0001:0004CC03 10430 0001:0004CC19 10432 0001:0004CC2E
 10433 0001:0004CC3D 10434 0001:0004CC4B 10435 0001:0004CC5F 10434 0001:0004CC85
 10436 0001:0004CC88 10439 0001:0004CCD4 10441 0001:0004CCE4 10442 0001:0004CCE9
 10443 0001:0004CCFD 10444 0001:0004CD28 10455 0001:0004CD3C 10456 0001:0004CD53
 10457 0001:0004CD5C 10458 0001:0004CD69 10459 0001:0004CD6B 10460 0001:0004CD79
 10465 0001:0004CD84 10466 0001:0004CD97 10468 0001:0004CDA2 10469 0001:0004CDD5
 10470 0001:0004CDE6 10471 0001:0004CDF7 10472 0001:0004CE08 10473 0001:0004CE19
 10474 0001:0004CE2A 10476 0001:0004CE39 10478 0001:0004CE45 10479 0001:0004CE69
 10481 0001:0004CE6C 10482 0001:0004CE92 10483 0001:0004CE94 10484 0001:0004CEB3
 10486 0001:0004CEBB 10487 0001:0004CEC9 10488 0001:0004CED7 10489 0001:0004CEE5
 10490 0001:0004CEED 10492 0001:0004CF22 10495 0001:0004CF4C 10496 0001:0004CF62
 10497 0001:0004CF6A 10498 0001:0004CF72 10501 0001:0004CF78 10508 0001:0004CFEE
 10509 0001:0004CFF3 10513 0001:0004D001 10514 0001:0004D037 10516 0001:0004D041
 10517 0001:0004D048 10518 0001:0004D074 10520 0001:0004D088 10521 0001:0004D0A9
 10522 0001:0004D0AB 10524 0001:0004D0B2 10526 0001:0004D0BC 10528 0001:0004D0C9
 10530 0001:0004D0CB 10531 0001:0004D0D2 10532 0001:0004D0E5 10533 0001:0004D108
 10534 0001:0004D115 10535 0001:0004D125 10536 0001:0004D135 10538 0001:0004D150
 10540 0001:0004D162 10541 0001:0004D168 10543 0001:0004D171 10544 0001:0004D178
 10545 0001:0004D181 10546 0001:0004D18B 10548 0001:0004D198 10550 0001:0004D1CE
 10555 0001:0004D1D4 10556 0001:0004D1F6 10558 0001:0004D200 10560 0001:0004D20A
 10563 0001:0004D20E 10564 0001:0004D231 10561 0001:0004D232 10567 0001:0004D23E
 10568 0001:0004D259 10569 0001:0004D28D 10571 0001:0004D294 10572 0001:0004D2B8
 10573 0001:0004D2BC 10574 0001:0004D2C3 10575 0001:0004D2CD 10576 0001:0004D2D7
 10577 0001:0004D2DC 10578 0001:0004D2E1 10579 0001:0004D2EF 10580 0001:0004D2F9
 10581 0001:0004D307 10582 0001:0004D30C 10583 0001:0004D31A 10585 0001:0004D31C
 10587 0001:0004D327 10588 0001:0004D32E 10589 0001:0004D339 10592 0001:0004D342
 10594 0001:0004D34D 10595 0001:0004D363 10596 0001:0004D36A 10597 0001:0004D375
 10600 0001:0004D37E 10602 0001:0004D38D 10604 0001:0004D397 10607 0001:0004D3A8
 10611 0001:0004D3E4 10617 0001:0004D41A 10620 0001:0004D429 10621 0001:0004D450
 10624 0001:0004D46B 10626 0001:0004D488 10629 0001:0004D4AD 10632 0001:0004D4DB
 10634 0001:0004D522 10639 0001:0004D528 10640 0001:0004D529 10643 0001:0004D540
 10645 0001:0004D54F 10646 0001:0004D55F 10647 0001:0004D563 10648 0001:0004D56C
 10650 0001:0004D575 10651 0001:0004D57A 10660 0001:0004D57C 10662 0001:0004D595
 10664 0001:0004D5A5 10666 0001:0004D5C4 10669 0001:0004D634 10671 0001:0004D66E
 10675 0001:0004D678 10676 0001:0004D682 10677 0001:0004D689 10681 0001:0004D68C
 10682 0001:0004D695 10688 0001:0004D6A6 10695 0001:0004D6A8 10696 0001:0004D6AB
 10697 0001:0004D6B5 10698 0001:0004D6C3 10699 0001:0004D6C8 10700 0001:0004D6CD
 10701 0001:0004D6D2 10702 0001:0004D6D7 10704 0001:0004D6EE 10706 0001:0004D700
 10714 0001:0004D704 10715 0001:0004D70A 10717 0001:0004D70E 10718 0001:0004D72F
 10719 0001:0004D742 10721 0001:0004D754 10722 0001:0004D772 10723 0001:0004D77A
 10724 0001:0004D79C 10725 0001:0004D7B4 10726 0001:0004D7EE 10731 0001:0004D7F4
 10732 0001:0004D7FB 10733 0001:0004D80A 10735 0001:0004D810 10736 0001:0004D819
 10738 0001:0004D81D 10740 0001:0004D831 10743 0001:0004D840 10751 0001:0004D844
 10752 0001:0004D869 10753 0001:0004D870 10754 0001:0004D87B 10756 0001:0004D887
 10757 0001:0004D895 10758 0001:0004D89B 10763 0001:0004D8CF 10765 0001:0004D8F5
 10766 0001:0004D92E 10769 0001:0004D954 10771 0001:0004D957 10781 0001:0004D95C
 10782 0001:0004D97B 10784 0001:0004D98E 10785 0001:0004D99D 10787 0001:0004D9A7
 10788 0001:0004D9AF 10789 0001:0004D9B1 10790 0001:0004D9B5 10792 0001:0004D9BA
 10794 0001:0004D9CA 10795 0001:0004D9CC 10797 0001:0004D9D0 10798 0001:0004D9D4
 10800 0001:0004D9D6 10801 0001:0004D9DD 10802 0001:0004D9F2 10790 0001:0004D9F3
 10806 0001:0004D9F6 10807 0001:0004DA15 10810 0001:0004DA50 10824 0001:0004DA84
 10825 0001:0004DA87 10827 0001:0004DA90 10828 0001:0004DAA3 10830 0001:0004DAAA
 10832 0001:0004DABC 10833 0001:0004DAE2 10835 0001:0004DAEA 10838 0001:0004DAFE
 10839 0001:0004DB05 10840 0001:0004DB16 10842 0001:0004DB17 10843 0001:0004DB1B
 10844 0001:0004DB1C 10845 0001:0004DB1E 10847 0001:0004DB22 10849 0001:0004DB30
 10850 0001:0004DB37 10852 0001:0004DB3C 10845 0001:0004DB3D 10854 0001:0004DB41
 10857 0001:0004DB45 10859 0001:0004DB4B 10860 0001:0004DB51 10862 0001:0004DB55
 10864 0001:0004DB63 10865 0001:0004DB6A 10867 0001:0004DB6D 10860 0001:0004DB6E
 10872 0001:0004DB72 10873 0001:0004DB7A 10876 0001:0004DB8E 10877 0001:0004DB96
 10878 0001:0004DB9E 10879 0001:0004DBA3 10880 0001:0004DBA8 10881 0001:0004DBB7
 10882 0001:0004DBC6 10883 0001:0004DBD0 10884 0001:0004DBDA 10885 0001:0004DBE4
 10886 0001:0004DBEE 10887 0001:0004DBF8 10888 0001:0004DC06 10889 0001:0004DC0A
 10890 0001:0004DC0C 10892 0001:0004DC15 10893 0001:0004DC1D 10894 0001:0004DC24
 10895 0001:0004DC28 10896 0001:0004DC72 10897 0001:0004DC82 10898 0001:0004DCB0
 10899 0001:0004DCBB 10900 0001:0004DCD3 10902 0001:0004DCD7 10903 0001:0004DCDE
 10905 0001:0004DCEB 10906 0001:0004DCF8 10908 0001:0004DD08 10909 0001:0004DD2C
 10911 0001:0004DD73 10913 0001:0004DD80 10914 0001:0004DD8B 10915 0001:0004DD96
 10917 0001:0004DDA5 10919 0001:0004DDB2 10920 0001:0004DDBD 10921 0001:0004DDE2
 10925 0001:0004DDED 10927 0001:0004DDF7 10928 0001:0004DDFF 10929 0001:0004DE1D
 10930 0001:0004DE36 10931 0001:0004DE57 10933 0001:0004DE78 10936 0001:0004DE83
 10939 0001:0004DE89 10940 0001:0004DE95 10890 0001:0004DE98 10944 0001:0004DEA1
 10947 0001:0004DEB7 10950 0001:0004DEEF 10951 0001:0004DEF3 10953 0001:0004DF09
 10954 0001:0004DF2C 10956 0001:0004DF42 10957 0001:0004DF7E 10958 0001:0004DFA5
 10960 0001:0004DFC6 10951 0001:0004DFC7 10962 0001:0004DFCE 10963 0001:0004DFEF
 10964 0001:0004E001 10963 0001:0004E040 10966 0001:0004E043 10968 0001:0004E074
 10970 0001:0004E08D 10972 0001:0004E0A5 10973 0001:0004E0AD 10976 0001:0004E0F7
 11005 0001:0004E1A8 11006 0001:0004E1D1 11007 0001:0004E1D8 11009 0001:0004E1E4
 11010 0001:0004E1F8 11011 0001:0004E20E 11013 0001:0004E224 11009 0001:0004E231
 11015 0001:0004E25B 11020 0001:0004E270 11021 0001:0004E288 11022 0001:0004E28F
 11024 0001:0004E29F 11025 0001:0004E2B0 11026 0001:0004E2D5 11022 0001:0004E2D6
 11027 0001:0004E2F6 11032 0001:0004E314 11033 0001:0004E31C 11034 0001:0004E323
 11035 0001:0004E32F 11036 0001:0004E341 11037 0001:0004E363 11040 0001:0004E370
 11041 0001:0004E373 11042 0001:0004E38D 11048 0001:0004E390 11049 0001:0004E39D
 11050 0001:0004E3A2 11051 0001:0004E3B9 11053 0001:0004E3CD 11054 0001:0004E3D4
 11060 0001:0004E3DC 11061 0001:0004E3FF 11062 0001:0004E404 11063 0001:0004E41D
 11065 0001:0004E442 11066 0001:0004E469 11069 0001:0004E470 11070 0001:0004E476
 11071 0001:0004E483 11074 0001:0004E488 11075 0001:0004E48E 11076 0001:0004E49B
 11079 0001:0004E4A0 11080 0001:0004E4A3 11081 0001:0004E4AD 11083 0001:0004E4BD
 11084 0001:0004E4D0 11087 0001:0004E4D4 11088 0001:0004E4D7 11089 0001:0004E4E5
 11109 0001:0004E4E8 11110 0001:0004E4F4 11111 0001:0004E4FD 11112 0001:0004E510
 11113 0001:0004E522 11121 0001:0004E528 11122 0001:0004E53A 11123 0001:0004E541
 11125 0001:0004E564 11127 0001:0004E56C 11128 0001:0004E587 11129 0001:0004E58E
 11130 0001:0004E598 11132 0001:0004E59F 11133 0001:0004E5A4 11134 0001:0004E5DF
 11135 0001:0004E5EB 11137 0001:0004E5F1 11138 0001:0004E5FD 11140 0001:0004E609
 11141 0001:0004E616 11144 0001:0004E640 11146 0001:0004E654 11147 0001:0004E657
 11148 0001:0004E661 11149 0001:0004E66D 11150 0001:0004E67A 11152 0001:0004E67C
 11153 0001:0004E67F 11154 0001:0004E686 11157 0001:0004E688 11158 0001:0004E68B
 11159 0001:0004E69B 11162 0001:0004E6A0 11163 0001:0004E6A3 11164 0001:0004E6B6
 11167 0001:0004E6B8 11168 0001:0004E6BE 11169 0001:0004E6C7 11171 0001:0004E6E0
 11172 0001:0004E6E7 11177 0001:0004E6EC 11178 0001:0004E706 11179 0001:0004E723
 11180 0001:0004E744 11181 0001:0004E787 11186 0001:0004E7A8 11187 0001:0004E7C0
 11188 0001:0004E802 11191 0001:0004E808 11192 0001:0004E814 11194 0001:0004E823
 11195 0001:0004E838 11197 0001:0004E84A 11199 0001:0004E86C 11200 0001:0004E878
 11201 0001:0004E884 11213 0001:0004E8AC 11214 0001:0004E8FF 11215 0001:0004E909
 11217 0001:0004E925 11218 0001:0004E927 11220 0001:0004E93C 11222 0001:0004E941
 11223 0001:0004E956 11224 0001:0004E963 11225 0001:0004E969 11226 0001:0004E978
 11229 0001:0004E9A2 11233 0001:0004EA35 11234 0001:0004EA45 11239 0001:0004EAEB
 11243 0001:0004EB71 11246 0001:0004EB78 11247 0001:0004EB8E 11249 0001:0004EBA3
 11253 0001:0004EBBF 11254 0001:0004EBCB 11255 0001:0004EBEC 11256 0001:0004EC15
 11261 0001:0004EC48 11262 0001:0004EC64 11263 0001:0004EC6B 11264 0001:0004EC74
 11265 0001:0004ECC3 11270 0001:0004ECD8 11271 0001:0004ECF4 11272 0001:0004ECFB
 11273 0001:0004ED04 11274 0001:0004ED53 11282 0001:0004ED68 11283 0001:0004ED89
 11284 0001:0004ED8B 11285 0001:0004ED97 11287 0001:0004ED9B 11288 0001:0004EDA8
 11290 0001:0004EDAC 11291 0001:0004EDD4 11294 0001:0004EE13 11299 0001:0004EE4C
 11300 0001:0004EE68 11301 0001:0004EE6F 11302 0001:0004EE7E 11303 0001:0004EEC7
 11308 0001:0004EEEC 11309 0001:0004EF08 11310 0001:0004EF0F 11311 0001:0004EF1E
 11312 0001:0004EF67 11315 0001:0004EF8C 11316 0001:0004EF8F 11317 0001:0004EFA2
 11322 0001:0004EFA4 11323 0001:0004EFBE 11324 0001:0004EFD7 11325 0001:0004EFF4
 11326 0001:0004F037 11331 0001:0004F058 11332 0001:0004F073 11334 0001:0004F095
 11336 0001:0004F09E 11338 0001:0004F0C1 11340 0001:0004F0E4 11341 0001:0004F0F4
 11342 0001:0004F0FA 11343 0001:0004F115 11345 0001:0004F148 11350 0001:0004F1FC
 11351 0001:0004F205 11352 0001:0004F21F 11353 0001:0004F22C 11358 0001:0004F238
 11359 0001:0004F241 11360 0001:0004F24B 11361 0001:0004F259 11364 0001:0004F2A7
 11366 0001:0004F2BA 11425 0001:0004F2D8 11426 0001:0004F301 11428 0001:0004F307
 11429 0001:0004F313 11432 0001:0004F318 11433 0001:0004F31F 11435 0001:0004F32C
 11436 0001:0004F33B 11438 0001:0004F33F 11439 0001:0004F353 11440 0001:0004F362
 11441 0001:0004F388 11443 0001:0004F39E 11445 0001:0004F3A2 11446 0001:0004F3DB
 11448 0001:0004F414 11449 0001:0004F436 11450 0001:0004F43F 11452 0001:0004F457
 11454 0001:0004F46D 11455 0001:0004F473 11457 0001:0004F477 11458 0001:0004F4B2
 11461 0001:0004F4ED 11462 0001:0004F4F3 11463 0001:0004F4F7 11465 0001:0004F532
 11466 0001:0004F537 11468 0001:0004F555 11469 0001:0004F560 11470 0001:0004F56E
 11472 0001:0004F585 11473 0001:0004F58A 11476 0001:0004F595 11477 0001:0004F5D7
 11478 0001:0004F612 11479 0001:0004F613 11474 0001:0004F615 11481 0001:0004F622
 11483 0001:0004F65E 11486 0001:0004F690 11491 0001:0004F6DC 11492 0001:0004F6F3
 11493 0001:0004F6FF 11494 0001:0004F74B 11496 0001:0004F75C 11497 0001:0004F76D
 11498 0001:0004F775 11499 0001:0004F77D 11500 0001:0004F785 11501 0001:0004F78D
 11502 0001:0004F795 11504 0001:0004F79D 11505 0001:0004F7AA 11506 0001:0004F7B4
 11507 0001:0004F7C2 11508 0001:0004F7D2 11509 0001:0004F7E3 11511 0001:0004F7ED
 11512 0001:0004F7F2 11514 0001:0004F7FF 11515 0001:0004F80A 11516 0001:0004F80D
 11517 0001:0004F81B 11519 0001:0004F826 11521 0001:0004F82A 11522 0001:0004F833
 11519 0001:0004F835 11526 0001:0004F846 11531 0001:0004F863 11533 0001:0004F874
 11534 0001:0004F87C 11535 0001:0004F884 11536 0001:0004F88C 11537 0001:0004F894
 11538 0001:0004F89C 11539 0001:0004F8A4 11553 0001:0004F8E0 11554 0001:0004F906
 11555 0001:0004F90D 11556 0001:0004F912 11557 0001:0004F928 11559 0001:0004F932
 11560 0001:0004F93D 11561 0001:0004F94B 11563 0001:0004F963 11565 0001:0004F981
 11569 0001:0004F9C5 11570 0001:0004F9CA 11571 0001:0004F9EE 11575 0001:0004FA0F
 11578 0001:0004FA44 11596 0001:0004FAA0 11597 0001:0004FAA2 11599 0001:0004FAB2
 11600 0001:0004FABF 11603 0001:0004FAC2 11604 0001:0004FACF 11607 0001:0004FAD1
 11613 0001:0004FAD4 11614 0001:0004FAFD 11615 0001:0004FB04 11616 0001:0004FB24
 11618 0001:0004FB42 11619 0001:0004FB4E 11620 0001:0004FB58 11621 0001:0004FB7A
 11623 0001:0004FB86 11624 0001:0004FB8D 11626 0001:0004FBB3 11633 0001:0004FBBC
 11634 0001:0004FBE9 11635 0001:0004FBEE 11636 0001:0004FC0E 11638 0001:0004FC2C
 11639 0001:0004FC56 11640 0001:0004FC6E 11642 0001:0004FC9C 11651 0001:0004FCA4
 11652 0001:0004FCC6 11653 0001:0004FCD3 11654 0001:0004FCE1 11655 0001:0004FCF1
 11657 0001:0004FD02 11659 0001:0004FD10 11660 0001:0004FD28 11661 0001:0004FD5E
 11662 0001:0004FD72 11663 0001:0004FD88 11666 0001:0004FD8F 11667 0001:0004FDAA
 11664 0001:0004FDAB 11669 0001:0004FDB7 11670 0001:0004FDD3 11674 0001:0004FDFF
 11675 0001:0004FE0C 11676 0001:0004FE19 11678 0001:0004FE1B 11679 0001:0004FE2E
 11681 0001:0004FE34 11682 0001:0004FE3F 11684 0001:0004FE40 11685 0001:0004FE46
 11686 0001:0004FE51 11687 0001:0004FE67 11688 0001:0004FE7D 11693 0001:0004FEAC
 11694 0001:0004FEBE 11695 0001:0004FEC8 11696 0001:0004FED7 11697 0001:0004FEEA
 11699 0001:0004FEF8 11700 0001:0004FF21 11701 0001:0004FF52 11702 0001:0004FF7E
 11704 0001:0004FF84 11705 0001:0004FF9E 11709 0001:0004FFB4 11710 0001:0004FFCC
 11711 0001:00050002 11713 0001:00050016 11715 0001:00050042 11719 0001:0005005A
 11720 0001:00050089 11724 0001:000500C6 11727 0001:0005011F 11729 0001:00050162
 11734 0001:000503FC 11735 0001:00050403 11736 0001:0005040D 11737 0001:0005041B
 11739 0001:0005043A 11741 0001:0005044D 11757 0001:00050454 11758 0001:0005045A
 11759 0001:00050461 11760 0001:0005046A 11762 0001:00050479 11763 0001:00050485
 11768 0001:000504A8 11769 0001:000504B1 11770 0001:000504BA 11771 0001:000504C9
 11770 0001:000504D5 11772 0001:000504D8 11774 0001:000504E8 11775 0001:0005050C
 11776 0001:00050513 11777 0001:0005052C 11778 0001:0005053A 11779 0001:0005054D
 11780 0001:00050558 11781 0001:00050566 11783 0001:00050585 11785 0001:00050596
 11786 0001:000505AC 11787 0001:000505BC 11788 0001:000505C1 11789 0001:000505D2
 11790 0001:000505DD 11791 0001:000505F5 11792 0001:00050600 11793 0001:00050633
 11783 0001:00050634 11796 0001:00050648 11799 0001:00050665 11801 0001:00050698
 11804 0001:000506AC 11805 0001:000506AF 11806 0001:000506BC 11809 0001:000506C0
 11810 0001:000506C3 11812 0001:000506D8 11813 0001:000506DD 11815 0001:000506F2
 11816 0001:000506F7 11818 0001:0005070C 11842 0001:000507E8 11843 0001:000507E9
 11844 0001:000507EB 11845 0001:000507F0 11847 0001:000507F4 11846 0001:000507F5
 11848 0001:000507FA 11850 0001:000507FE 11849 0001:000507FF 11851 0001:0005080A
 11853 0001:0005080F 11854 0001:00050812 11856 0001:00050813 11857 0001:00050817
 11859 0001:0005081C 11860 0001:00050828 11861 0001:0005082F 11862 0001:00050834
 11863 0001:00050839 11866 0001:00050862 11867 0001:0005086D 11869 0001:0005087B
 11870 0001:00050896 11871 0001:0005089C 11875 0001:000508AA 11876 0001:000508CA
 11877 0001:000508D3 11880 0001:000508F1 11882 0001:00050901 11884 0001:0005091C
 11885 0001:00050935 11886 0001:0005093A 11887 0001:00050942 11888 0001:0005097C
 11890 0001:00050980 11891 0001:000509A2 11892 0001:000509A9 11893 0001:000509B1
 11895 0001:000509BB 11896 0001:000509C0 11897 0001:000509CE 11898 0001:000509E7
 11899 0001:000509F2 11900 0001:00050A00 11901 0001:00050A21 11904 0001:00050A71
 11907 0001:00050A8E 11909 0001:00050AC1 11925 0001:00050AE8 11926 0001:00050AF7
 11928 0001:00050B0A 11929 0001:00050B1C 11930 0001:00050B21 11931 0001:00050B32
 11930 0001:00050B4B 11932 0001:00050B4E 11933 0001:00050B58 11926 0001:00050B5F
 11934 0001:00050B64 11935 0001:00050B76 11936 0001:00050B87 11937 0001:00050B99
 11938 0001:00050B9F 11944 0001:00050BA8 11946 0001:00050BB9 11948 0001:00050BCA
 11952 0001:00050BCC 11954 0001:00050BDD 11956 0001:00050BEE 11960 0001:00050BF0
 11962 0001:00050C01 11964 0001:00050C12 11966 0001:00050C14 11967 0001:00050C2A
 11968 0001:00050C31 11970 0001:00050C36 11971 0001:00050C44 11974 0001:00050C4E
 11975 0001:00050C53 11979 0001:00050C61 11983 0001:00050C66 11988 0001:00050C6F
 11989 0001:00050C8A 11990 0001:00050C98 11991 0001:00050CB2 11992 0001:00050CC9
 11998 0001:00050CE2 11999 0001:00050CEE 12002 0001:00050CFA 12003 0001:00050D01
 12004 0001:00050D18 12006 0001:00050D22 12008 0001:00050D2F 12010 0001:00050D34
 12011 0001:00050D42 12012 0001:00050D69 12019 0001:00050D7C 12020 0001:00050D7F
 12024 0001:00050E10 12026 0001:00050E14 12027 0001:00050E1A 12028 0001:00050E1D
 12030 0001:00050E35 12032 0001:00050E55 12033 0001:00050E58 12035 0001:00050E5A
 12028 0001:00050E5D 12036 0001:00050E62 12040 0001:00050E68 12042 0001:00050E79
 12044 0001:00050E8A 12048 0001:00050E8C 12050 0001:00050E9D 12052 0001:00050EAE
 12056 0001:00050EB0 12057 0001:00050EBA 12063 0001:00050EBC 12064 0001:00050EE6
 12065 0001:00050F05 12068 0001:00050F0B 12069 0001:00050F1C 12070 0001:00050F2A
 12071 0001:00050F41 12072 0001:00050F47 12074 0001:00050F75 12075 0001:00050F7B
 12077 0001:00050FA9 12078 0001:00050FAF 12080 0001:00050FDD 12081 0001:00050FE3
 12083 0001:00051011 12084 0001:00051017 12086 0001:00051045 12088 0001:00051073
 12089 0001:00051079 12090 0001:00051090 12092 0001:000510BE 12093 0001:000510C4
 12095 0001:000510F7 12096 0001:000510FD 12098 0001:00051130 12100 0001:00051163
 12101 0001:00051169 12103 0001:0005119C 12104 0001:000511A2 12106 0001:000511DB
 12108 0001:00051208 12110 0001:00051234 12112 0001:00051260 12115 0001:00051289
 12116 0001:000512A6 12118 0001:000512E0 12120 0001:0005131A 12122 0001:00051354
 12124 0001:0005138E 12127 0001:000513CD 12128 0001:000513D3 12129 0001:000513F0
 12133 0001:00051442 12134 0001:00051448 12137 0001:0005149A 12138 0001:000514A0
 12142 0001:000514F7 12143 0001:000514FD 12147 0001:00051554 12148 0001:0005155A
 12149 0001:00051577 12151 0001:000515B1 12152 0001:000515B7 12153 0001:000515BD
 12155 0001:000515F7 12156 0001:000515FD 12158 0001:00051637 12159 0001:0005163D
 12161 0001:00051677 12162 0001:0005167D 12164 0001:000516B7 12165 0001:000516BD
 12167 0001:000516F7 12168 0001:000516FD 12170 0001:00051737 12171 0001:0005173D
 12173 0001:00051777 12175 0001:000517B1 12177 0001:000517EB 12179 0001:00051825
 12180 0001:0005182B 12181 0001:00051848 12183 0001:00051882 12184 0001:00051888
 12186 0001:000518C2 12187 0001:000518C8 12189 0001:00051902 12190 0001:00051908
 12192 0001:00051942 12194 0001:0005197C 12195 0001:00051982 12196 0001:0005199F
 12198 0001:000519C9 12199 0001:000519CF 12201 0001:000519F9 12202 0001:000519FF
 12204 0001:00051A29 12205 0001:00051A2F 12207 0001:00051A59 12208 0001:00051A5F
 12210 0001:00051A89 12211 0001:00051A8F 12213 0001:00051AB9 12214 0001:00051ABF
 12216 0001:00051AE2 12218 0001:00051AF5 12221 0001:00051B2A 12230 0001:00051B64
 12231 0001:00051B6B 12232 0001:00051B78 12234 0001:00051B96 12235 0001:00051BA2
 12238 0001:00051BBC 12239 0001:00051BC3 12240 0001:00051BD0 12242 0001:00051BEE
 12243 0001:00051BFA 12246 0001:00051C14 12247 0001:00051C1B 12248 0001:00051C28
 12250 0001:00051C46 12251 0001:00051C52 12254 0001:00051C6C 12255 0001:00051C73
 12256 0001:00051C80 12258 0001:00051C9E 12259 0001:00051CAA 12262 0001:00051CC4
 12263 0001:00051CCB 12264 0001:00051CD8 12266 0001:00051CF6 12267 0001:00051D02
 12270 0001:00051D1C 12271 0001:00051D23 12272 0001:00051D30 12274 0001:00051D4E
 12275 0001:00051D5A 12278 0001:00051D74 12279 0001:00051D7B 12280 0001:00051D88
 12282 0001:00051DA6 12283 0001:00051DB2 12286 0001:00051DCC 12287 0001:00051DD3
 12288 0001:00051DE0 12290 0001:00051DFE 12291 0001:00051E0A 12299 0001:00051E24
 12300 0001:00051E51 12301 0001:00051E5D 12302 0001:00051E66 12303 0001:00051E6D
 12306 0001:00051E96 12308 0001:00051E9D 12311 0001:00051F18 12312 0001:00051F1C
 12314 0001:00051F21 12315 0001:00051F48 12312 0001:00051F49 12317 0001:00051F4C
 12318 0001:00051F58 12319 0001:00051F5B 12321 0001:00051F60 12322 0001:00051F6A
 12324 0001:00051F6F 12325 0001:00051F73 12326 0001:00051F88 12319 0001:00051F89
 12328 0001:00051F8C 12306 0001:00051F98 12330 0001:00051FCB 12335 0001:00052004
 12336 0001:0005201B 12337 0001:00052039 12338 0001:00052047 12337 0001:00052053
 12339 0001:00052076 12345 0001:00052094 12346 0001:000520AE 12347 0001:000520B6
 12348 0001:000520D4 12349 0001:0005210B 12351 0001:0005213C 12355 0001:00052162
 12356 0001:0005216C 12358 0001:0005218E 12359 0001:00052198 12360 0001:000521A3
 12361 0001:000521AD 12362 0001:000521B7 12364 0001:000521C1 12365 0001:000521CB
 12367 0001:000521D5 12369 0001:000521E7 12371 0001:00052202 12389 0001:0005234C
 12391 0001:0005237D 12392 0001:000523A1 12391 0001:000523B0 12394 0001:000523B3
 12397 0001:000523E6 12398 0001:00052409 12399 0001:0005241C 12400 0001:0005243F
 12401 0001:00052462 12402 0001:00052485 12403 0001:000524A8 12405 0001:000524CB
 12406 0001:000524D8 12407 0001:000524EC 12409 0001:00052517 12410 0001:00052549
 12413 0001:00052568 12415 0001:000525AF 12416 0001:000525C0 12418 0001:000525F0
 12419 0001:000525FB 12420 0001:0005260E 12421 0001:0005261F 12422 0001:00052637
 12423 0001:0005264D 12424 0001:00052668 12425 0001:00052681 12426 0001:0005269C
 12427 0001:000526B5 12428 0001:000526C8 12429 0001:000526D9 12406 0001:000526DA
 12431 0001:000526E1 12432 0001:000526EB 12433 0001:000526F6 12434 0001:00052721
 12433 0001:00052734 12436 0001:00052737 12437 0001:00052741 12448 0001:00052913
 12449 0001:0005291D 12451 0001:0005292A 12452 0001:00052957 12453 0001:00052962
 12455 0001:00052985 12457 0001:000529B8 12458 0001:000529C2 12459 0001:000529DC
 12460 0001:000529E6 12461 0001:000529EE 12462 0001:000529F5 12463 0001:000529FC
 12464 0001:00052A03 12465 0001:00052A0D 12466 0001:00052A21 12468 0001:00052A4C
 12469 0001:00052A56 12473 0001:00052AA3 12474 0001:00052AAD 12476 0001:00052ACC
 12477 0001:00052B0B 12480 0001:00052B46 12481 0001:00052B4F 12482 0001:00052B8E
 12483 0001:00052B98 12484 0001:00052BC7 12485 0001:00052BD1 12486 0001:00052C0E
 12487 0001:00052C4D 12489 0001:00052C57 12490 0001:00052C6C 12491 0001:00052C81
 12492 0001:00052C96 12493 0001:00052CC8 12496 0001:00052CE7 12498 0001:00052D2E
 12499 0001:00052D38 12500 0001:00052D49 12502 0001:00052D79 12503 0001:00052D84
 12504 0001:00052D8E 12509 0001:00052EB7 12510 0001:00052EBE 12511 0001:00052EC8
 12465 0001:00052EC9 12512 0001:00052ED0 12513 0001:00052EE2 12514 0001:00052F03
 12517 0001:00052F0D 12519 0001:00052F33 12522 0001:00052F45 12525 0001:00052F7D
 12526 0001:00052FA0 12527 0001:00052FB3 12528 0001:00052FD6 12529 0001:00052FF9
 12530 0001:0005301F 12531 0001:00053045 12532 0001:0005306B 12534 0001:00053091
 12536 0001:000530A5 12537 0001:000530D2 12538 0001:000530FD 12539 0001:00053119
 12540 0001:00053133 12541 0001:00053152 12542 0001:0005316F 12543 0001:000531A3
 12544 0001:000531D5 12545 0001:00053205 12546 0001:00053233 12547 0001:00053266
 12548 0001:00053297 12534 0001:00053298 12550 0001:0005329F 12552 0001:000532AA
 12551 0001:000532FA 12554 0001:000532FD 12568 0001:000534FB 12570 0001:0005353A
 12571 0001:00053554 12572 0001:0005356E 12573 0001:00053578 12575 0001:0005358C
 12584 0001:00053706 12573 0001:00053707 12585 0001:0005370E 12586 0001:00053720
 12589 0001:0005374C 12592 0001:00053784 12593 0001:000537AA 12594 0001:000537D0
 12595 0001:000537F6 12596 0001:0005381C 12597 0001:00053842 12598 0001:00053868
 12599 0001:0005388E 12601 0001:000538B4 12603 0001:000538C5 12604 0001:000538F5
 12605 0001:00053923 12606 0001:00053950 12607 0001:0005397B 12608 0001:00053997
 12609 0001:000539B1 12610 0001:000539CD 12611 0001:000539E7 12612 0001:00053A18
 12613 0001:00053A47 12614 0001:00053A74 12615 0001:00053A9F 12616 0001:00053ACC
 12617 0001:00053AF7 12618 0001:00053B24 12619 0001:00053B4F 12601 0001:00053B50
 12621 0001:00053B57 12623 0001:00053B62 12622 0001:00053BC4 12625 0001:00053BC7
 12637 0001:00053E0D 12639 0001:00053E5E 12640 0001:00053E75 12641 0001:00053E8F
 12642 0001:00053E99 12644 0001:00053EAA 12654 0001:00054041 12642 0001:00054042
 12655 0001:00054049 12656 0001:0005405B 12660 0001:00054089 12662 0001:000540C0
 12666 0001:000540F7 12668 0001:0005411F 12670 0001:0005415B 12674 0001:00054283
 12677 0001:0005442C 12678 0001:00054446 12680 0001:0005444F 12681 0001:00054461
 12684 0001:00054470 12686 0001:0005447D 12687 0001:000544AA 12688 0001:000544D9
 12690 0001:000544EE 12692 0001:00054523 12696 0001:000545CC 12700 0001:0005460A
 12704 0001:0005460C 12705 0001:0005460F 12710 0001:00054660 12716 0001:00054664
 12717 0001:00054671 12720 0001:00054675 12721 0001:0005469E 12722 0001:000546A9
 12718 0001:000546AA 12724 0001:000546B4 12728 0001:000546BC 12729 0001:000546BE
 12732 0001:000546CA 12734 0001:000546D7 12735 0001:000546E5 12739 0001:000546EA
 12740 0001:000546F8 12742 0001:000546FD 12744 0001:00054701 12748 0001:00054704
 12750 0001:0005470A 12755 0001:00054737 12759 0001:0005473C 12760 0001:00054749
 12763 0001:0005474C 12764 0001:0005474F 12765 0001:00054766 12768 0001:00054768
 12769 0001:0005476B 12770 0001:00054774 12773 0001:00054778 12774 0001:0005477B
 12777 0001:000547B3 12780 0001:000547B8 12781 0001:000547BB 12785 0001:0005480C
 12797 0001:00054810 12798 0001:00054828 12799 0001:00054836 12801 0001:0005483A
 12802 0001:00054858 12803 0001:0005486B 12805 0001:0005487E 12806 0001:0005488B
 12808 0001:0005488F 12809 0001:000548AD 12810 0001:000548C0 12812 0001:000548D3
 12813 0001:000548F3 12814 0001:00054908 12815 0001:00054939 12817 0001:000549D4
 12820 0001:00054A21 12823 0001:00054A48 12824 0001:00054A4F 12841 0001:00054A54
 12842 0001:00054A5B 12844 0001:00054A67 12846 0001:00054A6F 12848 0001:00054A79
 12849 0001:00054A83 12850 0001:00054A91 12851 0001:00054A9D 12852 0001:00054AB2
 12854 0001:00054AC0 12858 0001:00054ACE 12859 0001:00054AD8 12864 0001:00054AE1
 12865 0001:00054AE6 12866 0001:00054AF6 12869 0001:00054AFE 12870 0001:00054B06
 12871 0001:00054B0E 12874 0001:00054B16 12876 0001:00054B24 12877 0001:00054B26
 12879 0001:00054B2C 12880 0001:00054B36 12882 0001:00054B40 12885 0001:00054B4A
 12886 0001:00054B54 12887 0001:00054B5D 12888 0001:00054B67 12891 0001:00054B75
 12893 0001:00054B7E 12894 0001:00054B8B 12897 0001:00054B9D 12898 0001:00054B9F
 12899 0001:00054BA8 12901 0001:00054BB2 12903 0001:00054BB6 12908 0001:00054BC3
 12910 0001:00054BE5 12914 0001:00054C07 12915 0001:00054C11 12917 0001:00054C1A
 12919 0001:00054C39 12921 0001:00054C4A 12924 0001:00054C5B 12928 0001:00054C68
 12929 0001:00054C72 12930 0001:00054C79 12931 0001:00054C7B 12932 0001:00054C82
 12933 0001:00054C8F 12934 0001:00054C96 12937 0001:00054CB2 12938 0001:00054CBF
 12939 0001:00054CC9 12941 0001:00054CD6 12942 0001:00054CF2 12943 0001:00054D08
 12944 0001:00054D3F 12945 0001:00054D48 12946 0001:00054D57 12947 0001:00054D60
 12948 0001:00054D69 12950 0001:00054D70 12951 0001:00054D77 12952 0001:00054DA1
 12956 0001:00054DCD 12958 0001:00054DD8 12959 0001:00054DE2 12961 0001:00054DEB
 12962 0001:00054DF1 12963 0001:00054DF9 12964 0001:00054DFF 12965 0001:00054E0D
 12966 0001:00054E21 12967 0001:00054E2F 12968 0001:00054E40 12969 0001:00054E45
 12975 0001:00054E4D 12977 0001:00054E57 12980 0001:00054E78 12981 0001:00054E8B
 12982 0001:00054E92 12985 0001:00054EB9 12988 0001:00054EBE 12989 0001:00054EDC
 12991 0001:00054EFE 12993 0001:00054F3F 12996 0001:00054FF2 12989 0001:00054FF8
 12997 0001:00055004 12998 0001:00055033 13000 0001:00055043 13001 0001:00055054
 13004 0001:00055070 13005 0001:00055090 13008 0001:000550BC 13009 0001:000550C6
 13010 0001:000550D4 13012 0001:000550F8 13014 0001:0005510A 13004 0001:00055110
 13016 0001:0005511C 13017 0001:0005512A 13018 0001:0005514A 13021 0001:0005517E
 13022 0001:0005518E 13023 0001:000551A0 13024 0001:000551AA 13027 0001:000551D0
 13030 0001:000551F9 13032 0001:00055200 13017 0001:00055206 13035 0001:0005521F
 13036 0001:0005523B 13038 0001:00055267 13035 0001:00055284 13042 0001:00055294
 13044 0001:0005529E 13047 0001:000552A8 13048 0001:000552C8 13052 0001:0005530D
 13053 0001:00055317 13054 0001:00055325 13056 0001:00055349 13058 0001:0005535B
 13047 0001:00055361 13059 0001:0005536D 13064 0001:0005537B 13065 0001:00055385
 13070 0001:0005538C 13072 0001:0005539A 13073 0001:0005539F 13079 0001:000553A4
 13080 0001:000553AE 13081 0001:000553B8 13086 0001:000553C2 13087 0001:000553CC
 13088 0001:000553D3 13089 0001:000553E3 13090 0001:000553ED 13091 0001:000553F7
 13092 0001:00055401 13093 0001:0005540B 13094 0001:00055412 13095 0001:0005541C
 13096 0001:00055421 13098 0001:0005542B 13101 0001:00055432 13102 0001:00055467
 13104 0001:00055477 13107 0001:0005548C 13108 0001:0005549E 13114 0001:000554A8
 13120 0001:000554AD 13121 0001:000554B7 13123 0001:000554C4 13125 0001:000554D2
 13126 0001:000554F9 13127 0001:00055511 13130 0001:0005551D 13131 0001:00055527
 13132 0001:00055531 13134 0001:0005554A 13138 0001:00055572 13139 0001:0005557C
 13141 0001:00055582 13142 0001:0005558C 13147 0001:000555BA 13149 0001:000555C1
 13150 0001:000555CB 13151 0001:000555D4 13152 0001:000555E1 13154 0001:000555EE
 13155 0001:000555F8 13156 0001:000555FF 13157 0001:00055604 13159 0001:0005560E
 13161 0001:00055635 13163 0001:00055649 13165 0001:00055656 13166 0001:00055660
 13167 0001:0005567A 13170 0001:0005568B 13171 0001:00055699 13172 0001:000556C7
 13174 0001:000556E0 13175 0001:000556E7 13180 0001:000556FA 13181 0001:00055708
 13182 0001:00055716 13183 0001:0005571D 13185 0001:00055727 13186 0001:0005572C
 13187 0001:0005572E 13188 0001:0005573E 13189 0001:00055747 13191 0001:0005575D
 13192 0001:00055764 13197 0001:00055775 13198 0001:0005577F 13203 0001:0005578B
 13205 0001:000557B2 13207 0001:000557C6 13210 0001:000557E7 13216 0001:000557F5
 13217 0001:00055814 13223 0001:00055819 13224 0001:00055823 13226 0001:00055835
 13227 0001:0005583A 13228 0001:00055848 13231 0001:00055878 13233 0001:00055885
 13234 0001:000558AC 13237 0001:000558DA 13238 0001:000558E5 13240 0001:000558F8
 13242 0001:0005590B 13243 0001:00055915 13245 0001:00055923 13247 0001:0005593A
 13249 0001:00055941 13252 0001:00055955 13253 0001:00055971 13256 0001:000559B6
 13252 0001:000559D3 13259 0001:000559E6 13260 0001:000559F0 13262 0001:00055A07
 13264 0001:00055A0C 13266 0001:00055A1E 13267 0001:00055A2E 13268 0001:00055A37
 13273 0001:00055A3E 13275 0001:00055A55 13277 0001:00055A61 13278 0001:00055A6B
 13281 0001:00055A88 13283 0001:00055A9A 13284 0001:00055AA2 13288 0001:00055AC5
 13302 0001:00055B6B 13308 0001:00055BE8 13310 0001:00055BF2 13311 0001:00055BFC
 13313 0001:00055C06 13314 0001:00055C0B 13315 0001:00055C20 13317 0001:00055C30
 13318 0001:00055C37 13325 0001:00055C40 13326 0001:00055C6D 13327 0001:00055C72
 13329 0001:00055C8D 13330 0001:00055C9F 13331 0001:00055CC9 13333 0001:00055CDA
 13334 0001:00055CEB 13338 0001:00055D0F 13339 0001:00055D43 13346 0001:00055D5C
 13347 0001:00055DA4 13348 0001:00055DAF 13349 0001:00055DB3 13350 0001:00055DB6
 13351 0001:00055DBC 13352 0001:00055DC2 13353 0001:00055DC8 13354 0001:00055DCE
 13355 0001:00055DD5 13357 0001:00055DDF 13358 0001:00055DE2 13359 0001:00055DE9
 13361 0001:00055DF9 13362 0001:00055DFC 13363 0001:00055E02 13364 0001:00055E0D
 13365 0001:00055E18 13366 0001:00055E1F 13368 0001:00055E2F 13369 0001:00055E32
 13370 0001:00055E38 13371 0001:00055E3E 13372 0001:00055E44 13373 0001:00055E48
 13374 0001:00055E51 13375 0001:00055E94 13378 0001:00055EA0 13379 0001:00055EA7
 13380 0001:00055EB5 13383 0001:00055EFB 13385 0001:00055F0A 13399 0001:00055F10
 13400 0001:00055F1B 13401 0001:00055F28 13402 0001:00055F35 13403 0001:00055F3C
 13409 0001:00055F40 13410 0001:00055F4C 13411 0001:00055F4E 13414 0001:00055F5E
 13427 0001:00055F87 13430 0001:00055F8E 13432 0001:00055F93 13433 0001:00055F99
 13436 0001:00055F9F 13412 0001:00055FA0 13439 0001:00055FC6 13446 0001:00055FD2
 13449 0001:00055FDC 13450 0001:00055FE0 13452 0001:0005600D 13453 0001:0005601F
 13459 0001:00056044 13460 0001:00056049 13461 0001:00056055 13462 0001:0005605D
 13466 0001:00056093 13468 0001:000560B8 13469 0001:000560EC 13470 0001:000560F0
 13472 0001:00056113 13473 0001:00056118 13474 0001:0005612C 13475 0001:00056136
 13476 0001:00056144 13478 0001:00056156 13479 0001:00056162 13480 0001:00056170
 13482 0001:00056180 13484 0001:00056192 13485 0001:00056198 13486 0001:0005619E
 13487 0001:000561A4 13488 0001:000561AA 13489 0001:000561B0 13490 0001:000561C9
 13492 0001:000561D5 13493 0001:000561DD 13494 0001:000561F0 13501 0001:00056203
 13503 0001:00056223 13504 0001:0005622A 13506 0001:00056249 13510 0001:00056253
 13511 0001:0005625A 13513 0001:0005627E 13515 0001:0005628C 13516 0001:000562AA
 13518 0001:000562B1 13520 0001:000562BA 13524 0001:000562C8 13525 0001:000562D6
 13527 0001:000562E9 13534 0001:00056307 13537 0001:0005630C 13538 0001:00056313
 13539 0001:00056320 13540 0001:0005632E 13542 0001:00056344 13543 0001:0005634C
 13546 0001:00056359 13549 0001:00056369 13551 0001:0005637A 13554 0001:0005638E
 13556 0001:0005639F 13557 0001:000563A9 13559 0001:000563E9 13639 0001:000563F4
 13640 0001:000563F8 13642 0001:00056401 13643 0001:00056406 13644 0001:0005640B
 13648 0001:00056412 13649 0001:00056417 13650 0001:0005641C 13652 0001:00056421
 13653 0001:00056434 13654 0001:00056445 13655 0001:00056453 13656 0001:00056465
 13663 0001:0005646C 13664 0001:0005646E 13665 0001:00056470 13666 0001:00056479
 13667 0001:00056491 13668 0001:00056495 13669 0001:000564A5 13671 0001:000564C8
 13672 0001:000564D4 13673 0001:000564DA 13674 0001:000564E8 13675 0001:00056502
 13676 0001:0005650B 13678 0001:00056519 13680 0001:0005653A 13682 0001:00056549
 13686 0001:00056550 13687 0001:0005655C 13688 0001:00056562 13689 0001:00056570
 13691 0001:0005658A 13692 0001:00056593 13694 0001:000565A5 13696 0001:000565B8
 13698 0001:000565C7 13702 0001:000565D0 13703 0001:000565D7 13704 0001:000565DD
 13705 0001:000565E2 13709 0001:000565E4 13711 0001:000565ED 13713 0001:00056606
 13714 0001:00056610 13728 0001:00056628 13729 0001:0005662F 13733 0001:00056630
 13734 0001:00056632 13735 0001:00056635 13737 0001:00056638 13738 0001:0005663E
 13739 0001:00056648 13740 0001:00056656 13741 0001:00056664 13742 0001:0005666F
 13743 0001:00056676 13744 0001:0005668A 13745 0001:00056692 13746 0001:0005669E
 13748 0001:000566A8 13749 0001:000566B2 13750 0001:000566BD 13751 0001:000566CF
 13752 0001:000566DC 13754 0001:000566FE 13757 0001:00056717 13759 0001:00056729
 13763 0001:00056730 13764 0001:00056732 13765 0001:00056734 13767 0001:00056736
 13771 0001:0005673A 13773 0001:0005673C 13774 0001:00056750 13776 0001:00056768
 13777 0001:00056776 13779 0001:0005677D 13780 0001:0005678A 13782 0001:00056797
 13790 0001:000567C5 13792 0001:000567CC 13795 0001:000567D1 13797 0001:000567E4
 13798 0001:00056800 13800 0001:00056812 13801 0001:00056822 13803 0001:00056826
 13804 0001:0005684A 13809 0001:0005686D 13811 0001:00056880 13814 0001:00056894
 13821 0001:000568A0 13822 0001:000568B4 13824 0001:000568C0 13826 0001:000568D4
 13827 0001:000568DA 13828 0001:000568DC 13829 0001:000568F3 13830 0001:00056901
 13831 0001:0005690F 13832 0001:00056926 13833 0001:00056933 13834 0001:00056941
 13835 0001:0005694F 13836 0001:0005695D 13837 0001:00056974 13838 0001:00056984
 13840 0001:00056993 13880 0001:000569A7 13882 0001:000569B0 13883 0001:000569C4
 13884 0001:000569C8 13886 0001:000569DF 13889 0001:00056A04 13890 0001:00056A10
 13891 0001:00056A1E 13892 0001:00056A2F 13897 0001:00056A38 13898 0001:00056A48
 13901 0001:00056A59 13902 0001:00056A61 13906 0001:00056A86 13907 0001:00056A8F
 13910 0001:00056AA9 13912 0001:00056AC3 13913 0001:00056AD0 13919 0001:00056AF8
 13920 0001:00056AFB 13921 0001:00056B06 13924 0001:00056B08 13925 0001:00056B0B
 13926 0001:00056B16 13930 0001:00056B18 13931 0001:00056B19 13932 0001:00056B1A
 13933 0001:00056B1B 13934 0001:00056B1D 13935 0001:00056B20 13936 0001:00056B25
 13937 0001:00056B27 13938 0001:00056B2C 13939 0001:00056B2D 13940 0001:00056B2E
 13941 0001:00056B2F 13943 0001:00056B34 13950 0001:00056B38 13951 0001:00056B42
 13952 0001:00056B4C 13953 0001:00056B5D 13954 0001:00056B73 13955 0001:00056B82
 13956 0001:00056B9A 13959 0001:00056BCF 13961 0001:00056BDE 13963 0001:00056BF2
 13964 0001:00056BFE 13966 0001:00056C07 13967 0001:00056C1B 13969 0001:00056C29
 13973 0001:00056C50 13976 0001:00056C57 13980 0001:00056C58 13981 0001:00056C5A
 13982 0001:00056C5D 13983 0001:00056C5F 13985 0001:00056C61 13986 0001:00056C63
 13987 0001:00056C66 13988 0001:00056C68 13989 0001:00056C6D 13992 0001:00056C6E
 13993 0001:00056C70 13994 0001:00056C73 13995 0001:00056C75 13998 0001:00056C7A
 14005 0001:00056C7C 14006 0001:00056C84 14007 0001:00056C8D 14010 0001:00056CA7
 14014 0001:00056CDF 14016 0001:00056CE7 14018 0001:00056CF0 14022 0001:00056D06
 14023 0001:00056D09 14024 0001:00056D14 14025 0001:00056D22 14027 0001:00056D3D
 14031 0001:00056D4D 14035 0001:00056D70 14036 0001:00056D71 14037 0001:00056D73
 14038 0001:00056D76 14039 0001:00056D77 14040 0001:00056D78 14041 0001:00056D7D
 14042 0001:00056D81 14043 0001:00056D85 14044 0001:00056D89 14045 0001:00056D8E
 14046 0001:00056D8F 14047 0001:00056D90 14048 0001:00056D91 14049 0001:00056D97
 14053 0001:00056D98 14054 0001:00056DA7 14055 0001:00056DB0 14058 0001:00056DCA
 14060 0001:00056DDC 14061 0001:00056DEA 14065 0001:00056DF4 14067 0001:00056E05
 14122 0001:00056E28 14123 0001:00056E2E 14125 0001:00056E36 14129 0001:00056E4A
 14130 0001:00056E66 14131 0001:00056E6D 14136 0001:00056E70 14137 0001:00056E76
 14139 0001:00056E90 14141 0001:00056EAA 14153 0001:00056EB0 14154 0001:00056EB6
 14155 0001:00056EC8 14157 0001:00056ED4 14158 0001:00056EE7 14159 0001:00056EED
 14161 0001:00056EF4 14162 0001:00056F00 14164 0001:00056F21 14165 0001:00056F26
 14167 0001:00056F2F 14168 0001:00056F39 14169 0001:00056F47 14170 0001:00056F56
 14172 0001:00056F5B 14173 0001:00056F73 14176 0001:00056F9A 14180 0001:00056FAC
 14181 0001:00056FB2 14182 0001:00056FC0 14184 0001:00056FE1 14188 0001:00056FE3
 14191 0001:00057005 14192 0001:0005700F 14193 0001:00057025 14196 0001:0005702F
 14202 0001:0005704C 14203 0001:00057055 14205 0001:0005705C 14206 0001:00057061
 14208 0001:0005706E 14209 0001:00057078 14210 0001:00057086 14211 0001:00057099
 14213 0001:0005709E 14214 0001:000570B6 14217 0001:000570DD 14221 0001:000570EF
 14222 0001:000570F5 14223 0001:00057103 14225 0001:00057127 14229 0001:00057129
 14232 0001:0005714B 14233 0001:00057155 14237 0001:00057173 14243 0001:0005717C
 14244 0001:00057185 14246 0001:0005718C 14247 0001:00057191 14249 0001:0005719E
 14250 0001:000571A8 14251 0001:000571B6 14252 0001:000571C9 14254 0001:000571CE
 14255 0001:000571E6 14258 0001:0005720D 14262 0001:0005721F 14263 0001:00057225
 14264 0001:00057233 14266 0001:00057258 14270 0001:0005725A 14273 0001:0005727C
 14274 0001:00057286 14278 0001:000572A4 14283 0001:000572B0 14284 0001:000572B8
 14285 0001:000572CA 14286 0001:000572D8 14287 0001:000572E2 14288 0001:000572F0
 14289 0001:000572FB 14290 0001:00057305 14291 0001:00057313 14293 0001:0005732C
 14295 0001:0005733E 14299 0001:00057344 14300 0001:0005734E 14302 0001:00057372
 14303 0001:0005737C 14304 0001:0005738A 14305 0001:00057398 14307 0001:0005739D
 14308 0001:000573B4 14311 0001:000573D1 14314 0001:000573E3 14318 0001:000573E8
 14319 0001:000573FA 14320 0001:00057404 14330 0001:00057408 14331 0001:00057417
 14332 0001:00057420 14335 0001:0005743A 14337 0001:00057448 14340 0001:00057455
 14343 0001:0005745F 14344 0001:0005746D 14346 0001:00057470 14348 0001:00057474
 14349 0001:00057479 14353 0001:0005747C 14355 0001:00057492 14357 0001:000574A3
 14358 0001:000574A5 14359 0001:000574AA 14360 0001:000574B0 14361 0001:000574B6
 14362 0001:000574CC 14364 0001:000574E6 14369 0001:00057501 14370 0001:00057503
 14371 0001:00057508 14372 0001:0005750E 14373 0001:00057515 14379 0001:00057530
 14380 0001:00057536 14385 0001:00057550 14387 0001:00057570 14388 0001:00057574
 14389 0001:0005757A 14390 0001:00057584 14391 0001:00057592 14392 0001:0005759E
 14394 0001:000575A7 14395 0001:000575BD 14398 0001:000575D2 14402 0001:000575E4
 14404 0001:000575F0 14407 0001:00057601 14409 0001:0005761F 14416 0001:00057664
 14418 0001:0005766B 14419 0001:0005766E 14422 0001:00057672 14423 0001:0005767B
 14426 0001:00057695 14428 0001:000576B4 14429 0001:000576BE 14430 0001:000576CC
 14431 0001:000576DB 14433 0001:000576E4 14434 0001:000576FC 14436 0001:0005770E
 14437 0001:00057733 14438 0001:00057744 14440 0001:00057755 14441 0001:00057770
 14443 0001:0005778B 14444 0001:000577B0 14448 0001:000577D8 14450 0001:000577E6
 14451 0001:000577FC 14454 0001:00057820 14457 0001:00057832 14458 0001:0005783C
 14463 0001:00057880 14464 0001:00057885 14465 0001:0005788E 14467 0001:000578A8
 14469 0001:000578BA 14470 0001:000578C4 14472 0001:000578CD 14473 0001:000578E3
 14477 0001:000578E9 14478 0001:000578F3 14482 0001:00057934 14483 0001:0005793B
 14484 0001:00057950 14485 0001:00057963 14488 0001:00057968 14489 0001:0005796E
 14490 0001:00057973 14491 0001:00057985 14492 0001:00057996 14493 0001:0005799D
 14500 0001:000579A4 14501 0001:000579AB 14502 0001:000579B7 14503 0001:000579BB
 14504 0001:000579C1 14505 0001:000579C7 14506 0001:000579D4 14507 0001:000579E7
 14508 0001:000579FA 14509 0001:00057A06 14510 0001:00057A0F 14515 0001:00057A14
 14516 0001:00057A18 14517 0001:00057A2D 14518 0001:00057A34 14524 0001:00057A38
 14525 0001:00057A3E 14527 0001:00057A47 14528 0001:00057A51 14529 0001:00057A5A
 14532 0001:00057A60 14533 0001:00057A6B 14534 0001:00057A72 14535 0001:00057A89
 14538 0001:00057A8C 14539 0001:00057A92 14540 0001:00057A9B 14547 0001:00057AA0
 14548 0001:00057AA4 14549 0001:00057AB9 14550 0001:00057AC0 14556 0001:00057AC4
 14557 0001:00057ACB 14558 0001:00057AD4 14559 0001:00057AD6 14560 0001:00057ADE
 14561 0001:00057AE6 14562 0001:00057AED 14563 0001:00057AF2 14564 0001:00057AF9
 14565 0001:00057AFE 14566 0001:00057B0B 14567 0001:00057B14 14570 0001:00057B18
 14571 0001:00057B23 14572 0001:00057B2A 14573 0001:00057B41 14576 0001:00057B44
 14577 0001:00057B4A 14578 0001:00057B53 14585 0001:00057B58 14586 0001:00057B5C
 14587 0001:00057B71 14588 0001:00057B78 14594 0001:00057B7C 14595 0001:00057B82
 14597 0001:00057B8B 14598 0001:00057B96 14599 0001:00057B9F 14602 0001:00057BA4
 14603 0001:00057BAF 14604 0001:00057BB6 14605 0001:00057BCD 14608 0001:00057BD0
 14609 0001:00057BD6 14610 0001:00057BDF 14618 0001:00057BE4 14619 0001:00057C02
 14620 0001:00057C0C 14621 0001:00057C19 14624 0001:00057C31 14625 0001:00057C39
 14626 0001:00057C47 14628 0001:00057C55 14629 0001:00057C61 14630 0001:00057C7C
 14631 0001:00057C86 14626 0001:00057C87 14633 0001:00057C97 14636 0001:00057CC2
 14639 0001:00057CCC 14640 0001:00057CD7 14641 0001:00057CDE 14642 0001:00057CEC
 14643 0001:00057D03 14648 0001:00057D08 14649 0001:00057D0C 14650 0001:00057D21
 14651 0001:00057D28 14657 0001:00057D2C 14658 0001:00057D33 14659 0001:00057D3C
 14660 0001:00057D3E 14661 0001:00057D4A 14662 0001:00057D55 14663 0001:00057D61
 14664 0001:00057D6A 14669 0001:00057D70 14670 0001:00057D77 14671 0001:00057D7F
 14672 0001:00057D8D 14673 0001:00057D9C 14675 0001:00057DB8 14677 0001:00057DC8
 14682 0001:00057DCC 14685 0001:00057DD3 14686 0001:00057DD9 14687 0001:00057DEC
 14688 0001:00057DF4 14689 0001:00057DF7 14694 0001:00057DFC 14697 0001:00057E03
 14698 0001:00057E09 14699 0001:00057E1C 14700 0001:00057E24 14701 0001:00057E27
 14706 0001:00057E2C 14709 0001:00057E33 14710 0001:00057E39 14711 0001:00057E4B
 14712 0001:00057E53 14713 0001:00057E56 14716 0001:00057E5C 14717 0001:00057E62
 14718 0001:00057E6B 14722 0001:00057E70 14723 0001:00057E78 14727 0001:00057E7C
 14728 0001:00057E84 14732 0001:00057E88 14733 0001:00057E90 14737 0001:00057E94
 14738 0001:00057E9C 14741 0001:00057EA0 14742 0001:00057EA7 14743 0001:00057EB3
 14744 0001:00057EC1 14745 0001:00057EC8 14746 0001:00057ED7 14751 0001:00057EDC
 14752 0001:00057EE4 14753 0001:00057EEC 14756 0001:00057EFA 14757 0001:00057F01
 14759 0001:00057F05 14761 0001:00057F1B 14762 0001:00057F25 14764 0001:00057F26
 14757 0001:00057F27 14767 0001:00057F38 14769 0001:00057F48 14773 0001:00057F4C
 14774 0001:00057F56 14775 0001:00057F5A 14776 0001:00057F65 14777 0001:00057F73
 14778 0001:00057F84 14780 0001:00057FA8 14782 0001:00057FBE 14785 0001:00057FC4
 14786 0001:00057FC5 14788 0001:00057FE7 14789 0001:00058000 14793 0001:00058004
 14794 0001:00058013 14795 0001:0005801E 14796 0001:0005802C 14797 0001:00058038
 14799 0001:0005805A 14801 0001:0005806D 14808 0001:00058074 14809 0001:00058078
 14810 0001:00058081 14809 0001:0005808A 14811 0001:0005808D 14812 0001:00058094
 14818 0001:00058098 14819 0001:0005809E 14821 0001:000580A7 14822 0001:000580B2
 14823 0001:000580BB 14826 0001:000580C0 14827 0001:000580CB 14828 0001:000580D2
 14829 0001:000580E9 14832 0001:000580EC 14833 0001:000580F2 14834 0001:000580FB
 14843 0001:00058100 14844 0001:00058103 14845 0001:00058121 14847 0001:00058124
 14849 0001:0005813C 14851 0001:00058141 14852 0001:00058142 14853 0001:00058145
 14855 0001:00058148 14856 0001:00058163 14862 0001:0005816C 14863 0001:00058171
 14873 0001:00058174 14874 0001:00058175 14875 0001:00058192 14876 0001:0005819E
 14877 0001:000581B6 14878 0001:000581B9 14886 0001:0005829C 14887 0001:0005829F
 14889 0001:000582AD 14890 0001:000582B8 14892 0001:000582C5 14896 0001:000582C8
 14897 0001:000582CF 14899 0001:000582D1 14900 0001:000582D2 14901 0001:000582D3
 14902 0001:000582D5 14903 0001:000582D8 14904 0001:000582DD 14905 0001:000582DE
 14906 0001:000582DF 14907 0001:000582E4 14908 0001:000582E6 14909 0001:000582E7
 14910 0001:000582E8 14911 0001:000582EA 14912 0001:000582EC 14913 0001:000582EE
 14914 0001:000582F0 14915 0001:000582F6 14916 0001:000582F8 14917 0001:000582FA
 14918 0001:000582FC 14919 0001:00058301 14920 0001:00058306 14923 0001:00058307
 14926 0001:0005830C 14932 0001:00058310 14933 0001:00058312 14934 0001:00058315
 14937 0001:00058318 14938 0001:0005832C 14939 0001:0005833D 14944 0001:00058340
 14945 0001:00058346 14946 0001:00058357 14947 0001:00058365 14949 0001:0005837F
 14951 0001:00058392 14958 0001:00058398 14959 0001:000583CE 14960 0001:000583DD
 14961 0001:000583EB 14962 0001:000583F6 14964 0001:00058410 14966 0001:00058420
 14967 0001:0005842E 14968 0001:00058444 14969 0001:00058452 14971 0001:0005847A
 14973 0001:000584AC 14976 0001:000584CC 14977 0001:000584D1 14978 0001:000584D8
 14980 0001:000584DC 14981 0001:000584E3 14982 0001:000584EC 14984 0001:000584FB
 14986 0001:0005850A 14990 0001:00058510 14991 0001:00058515 14994 0001:00058518
 14995 0001:0005851B 14996 0001:00058528 15000 0001:0005852C 15001 0001:00058531
 15002 0001:00058532 15003 0001:00058534 15004 0001:00058536 15005 0001:00058538
 15006 0001:0005853A 15007 0001:0005853C 15008 0001:00058541 15009 0001:00058543
 15010 0001:00058545 15011 0001:00058548 15012 0001:0005854D 15013 0001:00058552
 15016 0001:00058554 15017 0001:00058558 15018 0001:0005855D 15020 0001:00058566
 15021 0001:00058570 15022 0001:0005857E 15027 0001:000585BE 15029 0001:000585D3
 15036 0001:000585DC 15038 0001:000585EB 15039 0001:000585ED 15040 0001:000585F0
 15043 0001:000585F3 15044 0001:000585F5 15045 0001:000585FC 15047 0001:00058600
 15048 0001:00058609 15050 0001:00058631 15058 0001:00058638 15059 0001:0005865D
 15061 0001:00058665 15062 0001:0005866D 15064 0001:00058677 15065 0001:0005867B
 15066 0001:00058682 15067 0001:00058687 15068 0001:0005868C 15069 0001:00058691
 15070 0001:00058696 15071 0001:0005869B 15073 0001:000586AA 15075 0001:000586BF
 15076 0001:000586D6 15077 0001:000586EE 15078 0001:00058700 15079 0001:00058710
 15080 0001:00058725 15081 0001:00058738 15082 0001:0005874D 15083 0001:00058760
 15084 0001:0005877B 15085 0001:000587B3 15087 0001:000587CB 15071 0001:000587CC
 15089 0001:000587D3 15090 0001:000587ED 15091 0001:00058805 15092 0001:0005881F
 15093 0001:00058837 15094 0001:00058851 15095 0001:00058869 15096 0001:00058883
 15097 0001:0005889B 15098 0001:000588B5 15099 0001:000588CD 15100 0001:000588E7
 15102 0001:000588FF 15103 0001:00058914 15104 0001:0005891E 15106 0001:0005892F
 15108 0001:0005893E 15110 0001:00058953 15112 0001:0005895D 15119 0001:00058AAB
 15120 0001:00058AB6 15121 0001:00058AC1 15123 0001:00058ACC 15124 0001:00058AE7
 15126 0001:00058AF6 15128 0001:00058B36 15129 0001:00058B3E 15136 0001:00058C9A
 15137 0001:00058CA5 15139 0001:00058CA9 15106 0001:00058CAA 15140 0001:00058CB1
 15141 0001:00058D01 15144 0001:00058D48 15145 0001:00058D4F 15146 0001:00058D59
 15147 0001:00058D67 15149 0001:00058D85 15151 0001:00058D9A 15156 0001:00058DA0
 15157 0001:00058DA9 15158 0001:00058DB3 15159 0001:00058DC1 15160 0001:00058DCD
 15161 0001:00058DD6 15163 0001:00058DE4 15164 0001:00058DEB 15166 0001:00058E04
 15168 0001:00058E16 15172 0001:00058E1C 15173 0001:00058E21 15177 0001:00058E24
 15178 0001:00058E29 15182 0001:00058E2C 15183 0001:00058E33 15187 0001:00058E34
 15188 0001:00058E3B 15193 0001:00058E3C 15194 0001:00058E46 15195 0001:00058E48
 15196 0001:00058E4D 15198 0001:00058E51 15199 0001:00058E5C 15200 0001:00058E7A
 15202 0001:00058E7E 15214 0001:00058E88 15215 0001:00058E8A 15216 0001:00058E8D
 15218 0001:00058E90 15219 0001:00058E9E 15220 0001:00058EA8 15221 0001:00058EB6
 15223 0001:00058EBF 15224 0001:00058ED3 15226 0001:00058ED7 15227 0001:00058EE9
 15231 0001:00058EF3 15233 0001:00058EF7 15240 0001:00058F2B 15242 0001:00058F36
 15243 0001:00058F3C 15245 0001:00058F42 15246 0001:00058F64 15250 0001:00058F97
 15252 0001:00058FAC 15278 0001:00058FC8 15279 0001:00058FCE 15280 0001:00058FEB
 15281 0001:00058FF5 15286 0001:00058FF8 15287 0001:00058FFE 15288 0001:0005901B
 15289 0001:00059025 15295 0001:00059028 15296 0001:00059031 15299 0001:00059057
 15300 0001:00059061 15301 0001:0005906F 15303 0001:00059086 15306 0001:00059095
 15309 0001:0005909C 15310 0001:000590A2 15312 0001:000590CE 15313 0001:000590D8
 15318 0001:000590DC 15319 0001:000590E2 15320 0001:000590FF 15321 0001:00059109
 15324 0001:0005910C 15325 0001:00059112 15327 0001:00059129 15328 0001:00059143
 15330 0001:00059150 15331 0001:0005915A 15340 0001:00059160 15341 0001:00059175
 15342 0001:0005917D 15344 0001:00059183 15345 0001:0005919B 15347 0001:0005919F
 15348 0001:000591B0 15351 0001:000591C7 15352 0001:000591DF 15353 0001:000591E3
 15355 0001:00059201 15356 0001:00059210 15357 0001:00059226 15358 0001:0005924A
 15369 0001:00059294 15370 0001:000592A8 15372 0001:000592FC 15386 0001:00059314
 15387 0001:00059334 15388 0001:00059343 15390 0001:00059349 15391 0001:00059357
 15393 0001:0005936D 15394 0001:00059387 15395 0001:00059392 15396 0001:000593A0
 15397 0001:000593B5 15398 0001:000593BD 15400 0001:000593C9 15401 0001:000593DB
 15402 0001:000593E9 15404 0001:00059404 15407 0001:00059424 15409 0001:00059454
 15411 0001:0005945C 15412 0001:0005947C 15414 0001:0005948B 15415 0001:0005949A
 15416 0001:000594A8 15417 0001:000594B6 15418 0001:000594C4 15419 0001:000594D3
 15420 0001:000594EB 15421 0001:00059502 15424 0001:00059520 15425 0001:0005954A
 15427 0001:00059557 15428 0001:00059566 15429 0001:00059574 15430 0001:00059590
 15431 0001:0005959C 15432 0001:000595AB 15433 0001:000595B9 15434 0001:000595C4
 15435 0001:000595D0 15436 0001:000595E1 15438 0001:00059609 15441 0001:00059626
 15444 0001:00059636 15447 0001:00059650 15450 0001:00059676 15453 0001:00059686
 15454 0001:000596B1 15462 0001:000596C4 15463 0001:000596E7 15466 0001:00059708
 15467 0001:0005970C 15470 0001:00059723 15471 0001:0005973C 15473 0001:0005976E
 15478 0001:00059778 15479 0001:0005977E 15480 0001:00059798 15481 0001:000597A2
 15487 0001:000597A8 15488 0001:000597AF 15490 0001:000597B1 15491 0001:000597B6
 15492 0001:000597B8 15494 0001:000597BA 15495 0001:000597BF 15496 0001:000597C5
 15497 0001:000597C6 15498 0001:000597CC 15499 0001:000597CE 15500 0001:000597D0
 15501 0001:000597D6 15502 0001:000597D8 15503 0001:000597DA 15504 0001:000597DC
 15505 0001:000597E1 15506 0001:000597E3 15507 0001:000597E8 15508 0001:000597EA
 15509 0001:000597EB 15510 0001:000597F0 15511 0001:000597F1 15514 0001:000597F6
 15515 0001:000597FC 15520 0001:00059800 15521 0001:00059812 15522 0001:00059834
 15533 0001:00059838 15534 0001:0005985B 15536 0001:00059860 15539 0001:00059869
 15540 0001:00059876 15541 0001:00059883 15545 0001:00059892 15547 0001:00059894
 15548 0001:0005989D 15552 0001:000598CD 15553 0001:000598D4 15555 0001:000598D9
 15558 0001:000598E2 15560 0001:000598E4 15561 0001:000598EB 15562 0001:000598EC
 15563 0001:000598FA 15565 0001:000598FC 15566 0001:00059919 15567 0001:00059938
 15569 0001:00059940 15570 0001:0005994B 15571 0001:00059957 15572 0001:00059965
 15573 0001:00059977 15574 0001:00059981 15577 0001:000599AB 15579 0001:000599D2
 15582 0001:000599E0 15584 0001:00059A19 15588 0001:00059A36 15589 0001:00059A41
 15592 0001:00059A55 15593 0001:00059A82 15598 0001:00059A88 15599 0001:00059A8B
 15602 0001:00059AA6 15603 0001:00059AAD 15604 0001:00059ABB 15605 0001:00059AD8
 15607 0001:00059ADF 15608 0001:00059AF0 15609 0001:00059AF9 15610 0001:00059B05
 15612 0001:00059B0F 15614 0001:00059B23 15616 0001:00059B32 15620 0001:00059B34
 15622 0001:00059B46 15623 0001:00059B50 15624 0001:00059B5E 15626 0001:00059B70
 15627 0001:00059B80 15628 0001:00059B8A 15629 0001:00059B91 15636 0001:00059B94
 15637 0001:00059B9A 15639 0001:00059BA3 15641 0001:00059BAB 15642 0001:00059BB4
 15643 0001:00059BBE 15645 0001:00059BC5 15649 0001:00059BCD 15650 0001:00059BD6
 15653 0001:00059BDC 15654 0001:00059BE2 15656 0001:00059BEB 15658 0001:00059BF0
 15659 0001:00059BF9 15660 0001:00059C06 15662 0001:00059C0D 15666 0001:00059C15
 15667 0001:00059C1E 15673 0001:00059C24 15674 0001:00059C2E 15675 0001:00059C35
 15676 0001:00059C44 15677 0001:00059C52 15678 0001:00059C56 15679 0001:00059C66
 15680 0001:00059C70 15681 0001:00059C7F 15684 0001:00059CA1 15686 0001:00059CC8
 15688 0001:00059CD8 15695 0001:00059CF0 15696 0001:00059D14 15699 0001:00059D50
 15700 0001:00059D67 15704 0001:00059D76 15705 0001:00059D8D 15709 0001:00059D9C
 15710 0001:00059DB3 15714 0001:00059DC2 15715 0001:00059DD9 15719 0001:00059DE8
 15720 0001:00059DFF 15724 0001:00059E0E 15725 0001:00059E25 15729 0001:00059E4A
 15730 0001:00059E61 15734 0001:00059E83 15738 0001:00059E9C 15742 0001:00059EB5
 15745 0001:00059EFB 15760 0001:00059F08 15761 0001:00059F22 15766 0001:00059F6D
 15768 0001:00059F74 15769 0001:00059FC8 15770 0001:00059FCB 15772 0001:00059FD4
 15774 0001:0005A01E 15775 0001:0005A028 15776 0001:0005A03B 15777 0001:0005A03D
 15780 0001:0005A042 15781 0001:0005A047 15782 0001:0005A04F 15783 0001:0005A052
 15786 0001:0005A05C 15788 0001:0005A05E 15790 0001:0005A072 15791 0001:0005A075
 15792 0001:0005A087 15794 0001:0005A09C 15795 0001:0005A09F 15796 0001:0005A0A7
 15797 0001:0005A0DA 15798 0001:0005A0DD 15799 0001:0005A0DE 15800 0001:0005A0E1
 15801 0001:0005A0E2 15802 0001:0005A0EC 15804 0001:0005A0F9 15806 0001:0005A101
 15807 0001:0005A107 15808 0001:0005A124 15809 0001:0005A12D 15810 0001:0005A159
 15812 0001:0005A15F 15813 0001:0005A16A 15814 0001:0005A1B8 15816 0001:0005A1D5
 15818 0001:0005A1DC 15819 0001:0005A1EA 15820 0001:0005A1F0 15821 0001:0005A222
 15824 0001:0005A23F 15825 0001:0005A25A 15827 0001:0005A25F 15828 0001:0005A272
 15829 0001:0005A274 15832 0001:0005A277 15784 0001:0005A27A 15834 0001:0005A287
 15836 0001:0005A29B 15838 0001:0005A2A7 15839 0001:0005A2B1 15842 0001:0005A30E
 15848 0001:0005A3B0 15849 0001:0005A3CB 15850 0001:0005A3D9 15851 0001:0005A3E2
 15853 0001:0005A3EC 15854 0001:0005A400 15851 0001:0005A403 15855 0001:0005A423
 15865 0001:0005A42C 15866 0001:0005A444 15868 0001:0005A451 15870 0001:0005A45F
 15871 0001:0005A466 15873 0001:0005A47D 15877 0001:0005A498 15878 0001:0005A4A6
 15879 0001:0005A4AD 15881 0001:0005A4C4 15885 0001:0005A4DF 15886 0001:0005A4ED
 15887 0001:0005A4F4 15888 0001:0005A4FB 15890 0001:0005A507 15891 0001:0005A50E
 15893 0001:0005A51F 15894 0001:0005A53D 15896 0001:0005A545 15899 0001:0005A556
 15900 0001:0005A562 15902 0001:0005A580 15904 0001:0005A593 15905 0001:0005A5A4
 15906 0001:0005A5B7 15907 0001:0005A5CC 15908 0001:0005A5DD 15909 0001:0005A5E7
 15910 0001:0005A5F1 15911 0001:0005A5FB 15912 0001:0005A605 15913 0001:0005A614
 15914 0001:0005A61B 15916 0001:0005A63D 15918 0001:0005A64B 15919 0001:0005A654
 15920 0001:0005A65C 15922 0001:0005A664 15923 0001:0005A675 15924 0001:0005A686
 15925 0001:0005A697 15926 0001:0005A69C 15927 0001:0005A6AD 15928 0001:0005A6BE
 15929 0001:0005A6CF 15931 0001:0005A6E3 15933 0001:0005A714 15941 0001:0005A798
 15942 0001:0005A7BF 15944 0001:0005A7CC 15945 0001:0005A7D0 15946 0001:0005A7DE
 15948 0001:0005A7E6 15949 0001:0005A7F2 15950 0001:0005A805 15953 0001:0005A81F
 15955 0001:0005A825 15956 0001:0005A829 15958 0001:0005A82D 15959 0001:0005A839
 15962 0001:0005A846 15963 0001:0005A84A 15964 0001:0005A86D 15965 0001:0005A873
 15966 0001:0005A879 15968 0001:0005A885 15946 0001:0005A889 15970 0001:0005A892
 15971 0001:0005A89B 15972 0001:0005A8A4 15974 0001:0005A8C0 15976 0001:0005A8E4
 15978 0001:0005A8F3 15984 0001:0005A918 15985 0001:0005A93A 15987 0001:0005A947
 15989 0001:0005A954 15993 0001:0005A962 15995 0001:0005A969 15998 0001:0005A988
 16002 0001:0005AA05 16004 0001:0005AA13 16006 0001:0005AA48 16009 0001:0005AA67
 16014 0001:0005AA78 16015 0001:0005AA82 16018 0001:0005AA89 16019 0001:0005AA97
 16020 0001:0005AA9E 16021 0001:0005AAA8 16022 0001:0005AAAF 16023 0001:0005AAB9
 16024 0001:0005AAC0 16025 0001:0005AACA 16026 0001:0005AAD1 16027 0001:0005AADB
 16028 0001:0005AAE5 16029 0001:0005AAEF 16030 0001:0005AAF9 16031 0001:0005AB03
 16032 0001:0005AB0A 16033 0001:0005AB14 16034 0001:0005AB1B 16035 0001:0005AB25
 16036 0001:0005AB2C 16037 0001:0005AB36 16038 0001:0005AB3D 16039 0001:0005AB47
 16040 0001:0005AB4E 16041 0001:0005AB58 16042 0001:0005AB5F 16043 0001:0005AB69
 16044 0001:0005AB70 16045 0001:0005AB7A 16046 0001:0005AB81 16047 0001:0005AB8B
 16048 0001:0005AB92 16049 0001:0005AB9D 16050 0001:0005ABAC 16053 0001:0005ABB1
 16054 0001:0005ABBB 16055 0001:0005ABC5 16056 0001:0005ABCF 16057 0001:0005ABD9
 16058 0001:0005ABE3 16059 0001:0005ABED 16060 0001:0005ABF7 16061 0001:0005AC01
 16062 0001:0005AC0B 16063 0001:0005AC15 16064 0001:0005AC1F 16065 0001:0005AC29
 16066 0001:0005AC33 16067 0001:0005AC3D 16068 0001:0005AC47 16069 0001:0005AC51
 16070 0001:0005AC5B 16071 0001:0005AC65 16072 0001:0005AC6F 16073 0001:0005AC79
 16074 0001:0005AC83 16075 0001:0005AC8D 16076 0001:0005AC97 16077 0001:0005ACA1
 16078 0001:0005ACAB 16079 0001:0005ACB5 16080 0001:0005ACBF 16081 0001:0005ACC9
 16082 0001:0005ACD3 16083 0001:0005ACDD 16084 0001:0005ACE7 16086 0001:0005ACEC
 16089 0001:0005AD05 16093 0001:0005AD20 16095 0001:0005AD2E 16096 0001:0005AD35
 16098 0001:0005AD4C 16102 0001:0005AD67 16103 0001:0005AD75 16104 0001:0005AD7C
 16106 0001:0005AD93 16109 0001:0005ADD0 16113 0001:0005AE88 16114 0001:0005AE9F
 16118 0001:0005AEA0 16119 0001:0005AEB7 16126 0001:0005AEB8 16127 0001:0005AEC2
 16130 0001:0005AEC4 16132 0001:0005AED7 16133 0001:0005AEE2 16134 0001:0005AEED
 16137 0001:0005AEF8 16138 0001:0005AF03 16141 0001:0005AF0E 16142 0001:0005AF2A
 16143 0001:0005AF52 16160 0001:0005AF58 16164 0001:0005AF5C 16165 0001:0005AF63
 16166 0001:0005AF68 16171 0001:0005AF6C 16172 0001:0005AF73 16174 0001:0005AF90
 16176 0001:0005AF95 16178 0001:0005AF9A 16179 0001:0005AF9B 16180 0001:0005AF9E
 16182 0001:0005AFA1 16183 0001:0005AFB1 16188 0001:0005AFB8 16189 0001:0005AFBF
 16194 0001:0005AFED 16196 0001:0005AFF2 16197 0001:0005AFF3 16198 0001:0005AFF6
 16200 0001:0005AFF9 16201 0001:0005B009 16206 0001:0005B010 16207 0001:0005B016
 16208 0001:0005B025 16209 0001:0005B033 16211 0001:0005B058 16213 0001:0005B06B
 16218 0001:0005B070 16219 0001:0005B077 16221 0001:0005B094 16223 0001:0005B099
 16225 0001:0005B09E 16226 0001:0005B09F 16227 0001:0005B0A2 16229 0001:0005B0A5
 16230 0001:0005B0B5 16242 0001:0005B0BC 16243 0001:0005B0C5 16246 0001:0005B0CC
 16247 0001:0005B0DB 16248 0001:0005B0E9 16249 0001:0005B0F3 16250 0001:0005B102
 16252 0001:0005B10D 16253 0001:0005B117 16254 0001:0005B126 16256 0001:0005B131
 16257 0001:0005B13B 16258 0001:0005B14A 16260 0001:0005B155 16263 0001:0005B15F
 16267 0001:0005B166 16268 0001:0005B175 16269 0001:0005B17F 16260 0001:0005B180
 16271 0001:0005B183 16274 0001:0005B18D 16275 0001:0005B1A7 16276 0001:0005B1B8
 16271 0001:0005B1B9 16278 0001:0005B1C9 16280 0001:0005B1D9 16290 0001:0005B1E0
 16292 0001:0005B1E3 16293 0001:0005B1E9 16296 0001:0005B1F0 16298 0001:0005B203
 16299 0001:0005B219 16300 0001:0005B226 16301 0001:0005B241 16305 0001:0005B256
 16306 0001:0005B263 16310 0001:0005B268 16311 0001:0005B26F 16312 0001:0005B275
 16314 0001:0005B278 16315 0001:0005B27E 16317 0001:0005B285 16318 0001:0005B28A
 16319 0001:0005B298 16321 0001:0005B2A2 16322 0001:0005B2A7 16324 0001:0005B2C0
 16325 0001:0005B2D0 16327 0001:0005B2DD 16328 0001:0005B2E2 16329 0001:0005B2F1
 16331 0001:0005B2FC 16332 0001:0005B301 16334 0001:0005B31B 16336 0001:0005B327
 16346 0001:0005B32C 16347 0001:0005B347 16348 0001:0005B354 16349 0001:0005B370
 16350 0001:0005B3BD 16352 0001:0005B40C 16354 0001:0005B42A 16365 0001:0005B445
 16375 0001:0005B460 16385 0001:0005B46D 16388 0001:0005B47E 16395 0001:0005B48F
 16399 0001:0005B4AA 16405 0001:0005B4C5 16408 0001:0005B4CA 16412 0001:0005B4EA
 16415 0001:0005B50A 16416 0001:0005B50B 16418 0001:0005B515 16423 0001:0005B535
 16428 0001:0005B550 16433 0001:0005B56B 16435 0001:0005B579 16438 0001:0005B5B6
 16442 0001:0005B864 16443 0001:0005B87F 16446 0001:0005B880 16447 0001:0005B883
 16448 0001:0005B894 16451 0001:0005B898 16455 0001:0005B89B 16457 0001:0005B8A2
 16472 0001:0005B8A4 16473 0001:0005B8A7 16475 0001:0005B8AE 16480 0001:0005B8B0
 16481 0001:0005B8B8 16483 0001:0005B8C7 16484 0001:0005B8CC 16486 0001:0005B8D9
 16489 0001:0005B901 16490 0001:0005B914 16492 0001:0005B916 16484 0001:0005B917
 16493 0001:0005B91A 16504 0001:0005B920 16505 0001:0005B927 16506 0001:0005B93A
 16507 0001:0005B948 16509 0001:0005B95F 16511 0001:0005B96F 16513 0001:0005B974
 16514 0001:0005B991 16515 0001:0005B995 16517 0001:0005B9B2 16518 0001:0005B9C1
 16519 0001:0005B9CF 16520 0001:0005B9E7 16522 0001:0005B9FB 16523 0001:0005BA0D
 16524 0001:0005BA10 16525 0001:0005BA15 16526 0001:0005BA29 16528 0001:0005BA3C
 16530 0001:0005BA71 16532 0001:0005BA78 16533 0001:0005BA97 16534 0001:0005BAB5
 16536 0001:0005BABF 16538 0001:0005BACA 16541 0001:0005BAF4 16544 0001:0005BB11
 16545 0001:0005BB18 16546 0001:0005BB1F 16547 0001:0005BB26 16548 0001:0005BB2D
 16549 0001:0005BB42 16550 0001:0005BB49 16551 0001:0005BB50 16552 0001:0005BB57
 16553 0001:0005BB5E 16554 0001:0005BB65 16555 0001:0005BB6C 16556 0001:0005BB73
 16557 0001:0005BB7A 16558 0001:0005BB81 16559 0001:0005BB8E 16560 0001:0005BB95
 16561 0001:0005BB9F 16562 0001:0005BBA6 16563 0001:0005BBB5 16564 0001:0005BBBC
 16565 0001:0005BBCD 16566 0001:0005BBD7 16568 0001:0005BBDE 16569 0001:0005BBE8
 16570 0001:0005BBF2 16572 0001:0005BBFC 16574 0001:0005BC01 16577 0001:0005BC0A
 16580 0001:0005BC0F 16582 0001:0005BC1D 16583 0001:0005BC24 16587 0001:0005BC29
 16588 0001:0005BC3A 16590 0001:0005BC4B 16591 0001:0005BC69 16593 0001:0005BC71
 16622 0001:0005BC86 16624 0001:0005BC8B 16625 0001:0005BC9C 16626 0001:0005BCAD
 16627 0001:0005BCBE 16628 0001:0005BCCF 16630 0001:0005BCE0 16631 0001:0005BCE7
 16632 0001:0005BCF3 16633 0001:0005BCFA 16634 0001:0005BD01 16635 0001:0005BD0B
 16636 0001:0005BD12 16637 0001:0005BD19 16640 0001:0005BD3B 16641 0001:0005BD4E
 16643 0001:0005BD5C 16644 0001:0005BD65 16645 0001:0005BD6D 16648 0001:0005BD75
 16649 0001:0005BD7A 16650 0001:0005BD84 16651 0001:0005BD8E 16653 0001:0005BD9F
 16654 0001:0005BDB0 16655 0001:0005BDB5 16656 0001:0005BDBC 16657 0001:0005BDC6
 16658 0001:0005BDD0 16659 0001:0005BDD7 16660 0001:0005BDDE 16661 0001:0005BDE5
 16662 0001:0005BDEC 16663 0001:0005BDF3 16665 0001:0005BDFA 16666 0001:0005BE01
 16667 0001:0005BE08 16669 0001:0005BE0F 16671 0001:0005BE16 16674 0001:0005BE1E
 16676 0001:0005BE28 16678 0001:0005BE42 16679 0001:0005BE4E 16680 0001:0005BE59
 16681 0001:0005BE65 16683 0001:0005BE70 16686 0001:0005BE75 16692 0001:0005BEC2
 16698 0001:0005BF0F 16704 0001:0005BF5C 16705 0001:0005BF71 16707 0001:0005BF7A
 16721 0001:0005BF93 16727 0001:0005BFE0 16733 0001:0005C02D 16739 0001:0005C07A
 16741 0001:0005C088 16743 0001:0005C096 16745 0001:0005C0A4 16746 0001:0005C0A9
 16750 0001:0005C0D3 16752 0001:0005C0E0 16755 0001:0005C0F4 16756 0001:0005C126
 16760 0001:0005C162 16764 0001:0005C169 16765 0001:0005C16E 16768 0001:0005C19D
 16775 0001:0005C280 16776 0001:0005C294 16777 0001:0005C2A2 16779 0001:0005C2B5
 16780 0001:0005C2BF 16782 0001:0005C2C9 16783 0001:0005C2DC 16785 0001:0005C2E3
 16786 0001:0005C2ED 16787 0001:0005C2F4 16788 0001:0005C2FE 16789 0001:0005C305
 16790 0001:0005C30F 16791 0001:0005C316 16792 0001:0005C320 16793 0001:0005C327
 16794 0001:0005C331 16796 0001:0005C338 16797 0001:0005C33D 16799 0001:0005C348
 16801 0001:0005C35A 16802 0001:0005C367 16805 0001:0005C374 16806 0001:0005C37D
 16808 0001:0005C38C 16809 0001:0005C396 16810 0001:0005C39D 16811 0001:0005C3A7
 16812 0001:0005C3AE 16813 0001:0005C3B8 16815 0001:0005C3BF 16816 0001:0005C3C9
 16817 0001:0005C3D3 16818 0001:0005C3DD 16819 0001:0005C3E7 16822 0001:0005C3EE
 16824 0001:0005C3F7 16825 0001:0005C403 16826 0001:0005C40D 16829 0001:0005C420
 16830 0001:0005C42A 16831 0001:0005C431 16832 0001:0005C43B 16833 0001:0005C442
 16834 0001:0005C44C 16836 0001:0005C453 16837 0001:0005C462 16839 0001:0005C469
 16840 0001:0005C46E 16842 0001:0005C482 16843 0001:0005C48C 16844 0001:0005C493
 16846 0001:0005C4C2 16873 0001:0005C4D8 16874 0001:0005C504 16876 0001:0005C66A
 16868 0001:0005C688 16869 0001:0005C6AC 16870 0001:0005C6BB 16872 0001:0005C6D5

Line numbers for EDesign(EDesign.pas) segment .text

    48 0001:0005C6F4    49 0001:0005C6F7    50 0001:0005C6F9    51 0001:0005C705
    53 0001:0005C70C    54 0001:0005C72C    55 0001:0005C731    56 0001:0005C73A
    57 0001:0005C749    58 0001:0005C754    59 0001:0005C769    60 0001:0005C791
    62 0001:0005C798    63 0001:0005C7B5    65 0001:0005C7BD    66 0001:0005C7D1
    85 0001:0005C854    87 0001:0005C85C    88 0001:0005C861    89 0001:0005C868
    91 0001:0005C879    92 0001:0005C891    93 0001:0005C89F    89 0001:0005C8A0
    94 0001:0005C8A3   103 0001:0005C8A8   104 0001:0005C8B0   105 0001:0005C8CD
   107 0001:0005C8DE   108 0001:0005C8E0   109 0001:0005C8F1   108 0001:0005C905
   111 0001:0005C908   114 0001:0005C910   115 0001:0005C916   117 0001:0005C91D
   119 0001:0005C926   124 0001:0005C92C   125 0001:0005C95A   126 0001:0005C96F
   127 0001:0005C974   130 0001:0005C982   131 0001:0005C999   132 0001:0005C9BC
   133 0001:0005C9C5   135 0001:0005CA25   140 0001:0005CA64   141 0001:0005CA86
   142 0001:0005CA9D   143 0001:0005CAE0   148 0001:0005CAE8   149 0001:0005CAFE
   150 0001:0005CB32   152 0001:0005CB68   153 0001:0005CB80   154 0001:0005CB8B
   156 0001:0005CBCF   157 0001:0005CC07   162 0001:0005CC48   163 0001:0005CC5E
   164 0001:0005CC92   166 0001:0005CCB0   167 0001:0005CCDA   168 0001:0005CD00
   170 0001:0005CD78   173 0001:0005CDB8   174 0001:0005CDCB   176 0001:0005CE18
   178 0001:0005CE74   178 0001:0005CE7B

Line numbers for EBorlandDebug(EBorlandDebug.pas) segment .text

   132 0001:0005CEE4   133 0001:0005CEEA   134 0001:0005CEF7   135 0001:0005CF19
   140 0001:0005CF28   141 0001:0005CF34   142 0001:0005CF4B   143 0001:0005CF65
   153 0001:0005CF6C   154 0001:0005CF90   155 0001:0005CF9F   156 0001:0005CFA4
   159 0001:0005CFA8   158 0001:0005CFA9   160 0001:0005CFBD   161 0001:0005CFD9
   162 0001:0005CFDA   163 0001:0005CFDC   164 0001:0005CFE7   165 0001:0005CFFD
   166 0001:0005D01D   167 0001:0005D057   169 0001:0005D0A7   170 0001:0005D0D1
   172 0001:0005D0E4   173 0001:0005D107   174 0001:0005D112   176 0001:0005D11C
   178 0001:0005D128   180 0001:0005D144   181 0001:0005D153   182 0001:0005D157
   183 0001:0005D16B   184 0001:0005D17A   185 0001:0005D17E   186 0001:0005D192
   187 0001:0005D1AA   188 0001:0005D1C1   190 0001:0005D1C7   191 0001:0005D1D9
   192 0001:0005D1E8   193 0001:0005D1F8   196 0001:0005D1FF   198 0001:0005D209
   199 0001:0005D216   201 0001:0005D217   194 0001:0005D218   203 0001:0005D224
   207 0001:0005D22D   210 0001:0005D252   215 0001:0005D27C   216 0001:0005D283
   217 0001:0005D28C   218 0001:0005D29E   217 0001:0005D2B4   219 0001:0005D2B7
   222 0001:0005D2BC   223 0001:0005D2BF   224 0001:0005D2C8   225 0001:0005D2EC
   226 0001:0005D2FA   227 0001:0005D308   228 0001:0005D316   229 0001:0005D324
   231 0001:0005D330   233 0001:0005D3C4   234 0001:0005D403   235 0001:0005D420
   236 0001:0005D42C   239 0001:0005D47C   240 0001:0005D487   241 0001:0005D495
   242 0001:0005D4A4   243 0001:0005D4AE   244 0001:0005D4BD   245 0001:0005D4C7
   246 0001:0005D4D5   248 0001:0005D4EF   249 0001:0005D510   251 0001:0005D51D
   254 0001:0005D536   255 0001:0005D544   256 0001:0005D552   257 0001:0005D560
   260 0001:0005D57D   263 0001:0005D597   264 0001:0005D59F   267 0001:0005D5AA
   269 0001:0005D5BE   273 0001:0005D63D   274 0001:0005D651   275 0001:0005D665
   276 0001:0005D679   277 0001:0005D68D   281 0001:0005D6B2   282 0001:0005D6B7
   284 0001:0005D6D7   285 0001:0005D6EB   287 0001:0005D6FF   290 0001:0005D720
   292 0001:0005D735   293 0001:0005D73B   295 0001:0005D74C   296 0001:0005D74F
   298 0001:0005D7A1   299 0001:0005D7A7   301 0001:0005D7B0   302 0001:0005D7BE
   303 0001:0005D7C6   306 0001:0005D7D1   290 0001:0005D7D2   308 0001:0005D7D9
   310 0001:0005D7ED   312 0001:0005D7FA   317 0001:0005D8A6   318 0001:0005D8B4
   319 0001:0005D8BF   323 0001:0005D8D7   326 0001:0005D8ED   327 0001:0005D8F5
   328 0001:0005D8FD   282 0001:0005D900   330 0001:0005D90C   331 0001:0005D914
   332 0001:0005D91C   333 0001:0005D924   335 0001:0005D92C   337 0001:0005D943
   338 0001:0005D955   339 0001:0005D968   260 0001:0005D96B   341 0001:0005D977
   342 0001:0005D97F   343 0001:0005D987   346 0001:0005D994   348 0001:0005D9A1
   350 0001:0005D9BA   351 0001:0005D9D3   352 0001:0005D9EB   356 0001:0005DA00
   357 0001:0005DA69   358 0001:0005DA9E   359 0001:0005DAA4   361 0001:0005DAEF
   364 0001:0005DAFC   366 0001:0005DB09   368 0001:0005DB22   369 0001:0005DB3B
   370 0001:0005DB53   372 0001:0005DB65   374 0001:0005DB9D   375 0001:0005DBD2
   376 0001:0005DBD8   378 0001:0005DC23   380 0001:0005DC2B   246 0001:0005DC2E
   382 0001:0005DC47   386 0001:0005DCBA   387 0001:0005DCC2   388 0001:0005DCCA
   390 0001:0005DD49   395 0001:0005DEDC   396 0001:0005DEF8   397 0001:0005DF07
   398 0001:0005DF15   399 0001:0005DF2F   401 0001:0005DF46   403 0001:0005DF73
   437 0001:0005DF88   438 0001:0005DFBC   439 0001:0005DFE1   440 0001:0005DFF6
   443 0001:0005E018   444 0001:0005E02F   445 0001:0005E053   447 0001:0005E07A
   449 0001:0005E0D7   452 0001:0005E144   453 0001:0005E161   454 0001:0005E179
   455 0001:0005E1B2   456 0001:0005E1C4   457 0001:0005E1D6   458 0001:0005E1E8
   459 0001:0005E1FA   460 0001:0005E20C   461 0001:0005E21E   462 0001:0005E230
   463 0001:0005E242   464 0001:0005E254   465 0001:0005E266   466 0001:0005E278
   467 0001:0005E28A   468 0001:0005E2BE   472 0001:0005E47C   473 0001:0005E487
   479 0001:0005E488   481 0001:0005E4BB   475 0001:0005E4C0   476 0001:0005E4C9
   478 0001:0005E4CE

Line numbers for EResource(EResource.pas) segment .text

   419 0001:0005EA34   420 0001:0005EA37   433 0001:0005EA38   434 0001:0005EA3B
   435 0001:0005EA44   440 0001:0005EA48   441 0001:0005EA52   442 0001:0005EA72
   443 0001:0005EA7E   449 0001:0005EA84   450 0001:0005EA8A   451 0001:0005EA8F
   452 0001:0005EA97   453 0001:0005EA9B   454 0001:0005EAA5   455 0001:0005EAB4
   453 0001:0005EAB8   456 0001:0005EABE   459 0001:0005EAC4   460 0001:0005EAC9
   461 0001:0005EAD3   463 0001:0005EAD8   464 0001:0005EAE6   465 0001:0005EAF5
   466 0001:0005EB00   467 0001:0005EB06   469 0001:0005EB10   472 0001:0005EB29
   475 0001:0005EB4A   476 0001:0005EB59   478 0001:0005EB62   480 0001:0005EB76
   482 0001:0005EB83   484 0001:0005EB96   485 0001:0005EBA2   486 0001:0005EBAE
   487 0001:0005EBB5   488 0001:0005EBBC   489 0001:0005EBC3   491 0001:0005EBCA
   492 0001:0005EBD8   494 0001:0005EBEB   491 0001:0005EBF6   496 0001:0005EBF9
   497 0001:0005EC04   499 0001:0005EC17   500 0001:0005EC1E   501 0001:0005EC25
   502 0001:0005EC2C   503 0001:0005EC33   504 0001:0005EC3A   505 0001:0005EC41
   496 0001:0005EC42   508 0001:0005EC45   510 0001:0005EC51   512 0001:0005EC5C
   515 0001:0005EC6E   516 0001:0005EC79   518 0001:0005EC86   520 0001:0005EC95
   521 0001:0005EC9B   523 0001:0005ECA1   516 0001:0005ECA4   525 0001:0005ECA7
   527 0001:0005ECA9   510 0001:0005ECAA   530 0001:0005ECAD   531 0001:0005ECB6
   532 0001:0005ECBF   538 0001:0005ECC8   539 0001:0005ECEE   540 0001:0005ECFD
   541 0001:0005ED0B   542 0001:0005ED1E   543 0001:0005ED41   544 0001:0005ED49
   546 0001:0005ED60   548 0001:0005ED8D   562 0001:0005EDA4   563 0001:0005EDAC
   564 0001:0005EDB1   565 0001:0005EDBD   566 0001:0005EDC0   567 0001:0005EDDE
   568 0001:0005EDE4   569 0001:0005EDF4   582 0001:0005EDFC   583 0001:0005EE01
   584 0001:0005EE0D   585 0001:0005EE1D   587 0001:0005EE29   588 0001:0005EE2B
   589 0001:0005EE2D   584 0001:0005EE2E   591 0001:0005EE31   592 0001:0005EE35
   594 0001:0005EE3E   595 0001:0005EE41   613 0001:0005EE48   614 0001:0005EE4B
   615 0001:0005EE4D   617 0001:0005EE4F   618 0001:0005EE59   620 0001:0005EE61
   621 0001:0005EE65   622 0001:0005EE69   624 0001:0005EE6F   626 0001:0005EE76
   627 0001:0005EE7A   630 0001:0005EE7F   632 0001:0005EE8A   634 0001:0005EE8E
   635 0001:0005EE98   637 0001:0005EEA0   638 0001:0005EEA4   639 0001:0005EEA8
   641 0001:0005EEAE   643 0001:0005EEB5   644 0001:0005EEB9   646 0001:0005EEBE
   648 0001:0005EEC9   649 0001:0005EECD   651 0001:0005EED3   662 0001:0005EED8
   663 0001:0005EEDE   664 0001:0005EEE6   665 0001:0005EEF4   675 0001:0005EEF8
   676 0001:0005EF11   677 0001:0005EF1A   678 0001:0005EF1D   679 0001:0005EF23
   680 0001:0005EF2E   681 0001:0005EF39   682 0001:0005EF3D   683 0001:0005EF46
   684 0001:0005EF57   685 0001:0005EF7D   692 0001:0005EF84   693 0001:0005EF8F
   694 0001:0005EF97   695 0001:0005EFAE   705 0001:0005EFB4   706 0001:0005EFB7
   707 0001:0005EFC3   718 0001:0005EFD4   727 0001:0005EFD8   728 0001:0005EFDE
   729 0001:0005EFE8   730 0001:0005EFEC   743 0001:0005EFF0   745 0001:0005EFF3
   750 0001:0005EFF4   751 0001:0005EFF9   752 0001:0005EFFD   753 0001:0005F00D
   754 0001:0005F01A   752 0001:0005F01B   754 0001:0005F01E   766 0001:0005F024
   767 0001:0005F028   782 0001:0005F02C   783 0001:0005F032   784 0001:0005F037
   785 0001:0005F03B   786 0001:0005F04B   788 0001:0005F05A   789 0001:0005F05C
   791 0001:0005F05E   785 0001:0005F05F   791 0001:0005F064   797 0001:0005F06C
   808 0001:0005F070   809 0001:0005F077   810 0001:0005F08A   811 0001:0005F098
   813 0001:0005F0AF   815 0001:0005F0BF   825 0001:0005F0C4   826 0001:0005F0D7
   827 0001:0005F115   832 0001:0005F118   833 0001:0005F11F   834 0001:0005F135
   835 0001:0005F143   836 0001:0005F14D   838 0001:0005F161   840 0001:0005F171
   843 0001:0005F178   844 0001:0005F18B   845 0001:0005F1C9   850 0001:0005F1CC
   859 0001:0005F1D0   860 0001:0005F1E2   861 0001:0005F1EB   862 0001:0005F1FA
   863 0001:0005F209   864 0001:0005F22F   879 0001:0005F234   880 0001:0005F25E
   881 0001:0005F26C   880 0001:0005F27C   882 0001:0005F27F   885 0001:0005F287
   886 0001:0005F291   889 0001:0005F2B2   891 0001:0005F2BE   892 0001:0005F2C4
   895 0001:0005F2D6   896 0001:0005F2E3   899 0001:0005F304   900 0001:0005F308
   902 0001:0005F319   907 0001:0005F31D   908 0001:0005F329   911 0001:0005F34A
   912 0001:0005F356   915 0001:0005F364   917 0001:0005F36B   918 0001:0005F370
   925 0001:0005F380   927 0001:0005F389   929 0001:0005F38F   930 0001:0005F39A
   933 0001:0005F3AA   935 0001:0005F3B4   936 0001:0005F3BA   938 0001:0005F3D9
   933 0001:0005F3DD   941 0001:0005F3E0   946 0001:0005F3E8   947 0001:0005F3F0
   949 0001:0005F3F4   950 0001:0005F3FE   952 0001:0005F430   963 0001:0005F438
   964 0001:0005F445   965 0001:0005F44F   966 0001:0005F45D   965 0001:0005F46D
   967 0001:0005F470   968 0001:0005F478   969 0001:0005F480   970 0001:0005F48A
   971 0001:0005F494   972 0001:0005F49C   973 0001:0005F4B3   985 0001:0005F4B8
   999 0001:0005F4BC  1000 0001:0005F4C3  1001 0001:0005F4CA  1003 0001:0005F4D3
  1004 0001:0005F4E4  1006 0001:0005F4F5  1007 0001:0005F4F8  1009 0001:0005F4FA
  1003 0001:0005F4FB  1009 0001:0005F501  1018 0001:0005F508  1019 0001:0005F50A
  1020 0001:0005F514  1032 0001:0005F518  1033 0001:0005F531  1035 0001:0005F53C
  1036 0001:0005F542  1037 0001:0005F549  1040 0001:0005F54D  1041 0001:0005F58D
  1051 0001:0005F594  1052 0001:0005F59A  1061 0001:0005F59C  1062 0001:0005F59E
  1063 0001:0005F5AA  1072 0001:0005F5B0  1073 0001:0005F5B6  1074 0001:0005F5C0
  1084 0001:0005F5C4  1085 0001:0005F5CA  1096 0001:0005F5CC  1097 0001:0005F5D3
  1098 0001:0005F5E6  1099 0001:0005F5F4  1101 0001:0005F60B  1103 0001:0005F61B
  1112 0001:0005F620  1113 0001:0005F624  1114 0001:0005F62C  1115 0001:0005F641
  1126 0001:0005F644  1127 0001:0005F64B  1128 0001:0005F661  1129 0001:0005F66F
  1131 0001:0005F686  1133 0001:0005F696  1142 0001:0005F69C  1143 0001:0005F6A2
  1144 0001:0005F6AC  1145 0001:0005F6B6  1150 0001:0005F6BC  1151 0001:0005F6D0
  1152 0001:0005F6DC  1156 0001:0005F6E2  1160 0001:0005F6EC  1161 0001:0005F6F0
  1163 0001:0005F706  1168 0001:0005F710  1169 0001:0005F72D  1170 0001:0005F73B
  1174 0001:0005F74A  1178 0001:0005F754  1179 0001:0005F758  1181 0001:0005F75B
  1187 0001:0005F76E  1189 0001:0005F797  1192 0001:0005F7A0  1193 0001:0005F7AB
  1194 0001:0005F7B3  1195 0001:0005F7CA  1210 0001:0005F7D0  1211 0001:0005F7D3
  1212 0001:0005F7DF  1213 0001:0005F7E4  1215 0001:0005F7E8  1216 0001:0005F7F1
  1227 0001:0005F7F4  1228 0001:0005F7FB  1229 0001:0005F806  1230 0001:0005F80F
  1231 0001:0005F81A  1233 0001:0005F81F  1234 0001:0005F82E  1236 0001:0005F838
  1245 0001:0005F83C  1246 0001:0005F84E  1247 0001:0005F857  1248 0001:0005F87D
  1259 0001:0005F880  1260 0001:0005F88D  1261 0001:0005F89B  1260 0001:0005F8AB
  1262 0001:0005F8AE  1263 0001:0005F8B6  1264 0001:0005F8CD  1283 0001:0005F8D4
  1284 0001:0005F8DF  1285 0001:0005F8E3  1288 0001:0005F8F2  1289 0001:0005F900
  1291 0001:0005F90A  1303 0001:0005F914  1304 0001:0005F939  1305 0001:0005F946
  1306 0001:0005F948  1308 0001:0005F954  1310 0001:0005F95C  1312 0001:0005F96F
  1313 0001:0005F97A  1314 0001:0005F989  1316 0001:0005F9AD  1319 0001:0005F9D1
  1320 0001:0005F9D7  1322 0001:0005F9F8  1326 0001:0005FA00  1327 0001:0005FA0B
  1331 0001:0005FA22  1332 0001:0005FA32  1335 0001:0005FA72  1336 0001:0005FA7B
  1337 0001:0005FA80  1341 0001:0005FA90  1343 0001:0005FA93  1310 0001:0005FA96
  1343 0001:0005FABF  1345 0001:0005FAC8  1346 0001:0005FAE8  1347 0001:0005FAF0
  1348 0001:0005FAFB  1349 0001:0005FB01  1350 0001:0005FB2E  1360 0001:0005FB34
  1361 0001:0005FB3A  1371 0001:0005FB3C  1372 0001:0005FB42  1373 0001:0005FB4C
  1383 0001:0005FB50  1384 0001:0005FB58  1395 0001:0005FB5C  1396 0001:0005FB64
  1429 0001:0005FB68  1430 0001:0005FB71  1431 0001:0005FB78  1433 0001:0005FB7F
  1435 0001:0005FB91  1436 0001:0005FB98  1438 0001:0005FB9F  1439 0001:0005FBB0
  1441 0001:0005FBC6  1442 0001:0005FBD0  1445 0001:0005FBE3  1446 0001:0005FBEA
  1447 0001:0005FBF1  1450 0001:0005FC11  1433 0001:0005FC12  1450 0001:0005FC1B
  1468 0001:0005FC24  1469 0001:0005FC2C  1470 0001:0005FC43  1474 0001:0005FC5F
  1475 0001:0005FC7C  1476 0001:0005FC93  1477 0001:0005FCAB  1478 0001:0005FCCF
  1479 0001:0005FCD9  1480 0001:0005FD07  1483 0001:0005FD19  1485 0001:0005FD2D
  1486 0001:0005FD45  1487 0001:0005FD5D  1488 0001:0005FD73  1489 0001:0005FD7E
  1490 0001:0005FD98  1493 0001:0005FDBE  1495 0001:0005FDF0  1496 0001:0005FDFA
  1497 0001:0005FE1E  1501 0001:0005FE3C  1502 0001:0005FE50  1503 0001:0005FE6C
  1504 0001:0005FE83  1505 0001:0005FE9D  1507 0001:0005FEB6  1509 0001:0005FEBC
  1510 0001:0005FEDA  1511 0001:0005FEDF  1512 0001:0005FEE8  1513 0001:0005FEF3
  1514 0001:0005FEFE  1515 0001:0005FF04  1518 0001:0005FF0A  1519 0001:0005FF18
  1520 0001:0005FF2C  1522 0001:0005FF32  1518 0001:0005FF37  1524 0001:0005FF3A
  1525 0001:0005FF50  1527 0001:0005FF66  1533 0001:0005FF80  1534 0001:0005FF8E
  1535 0001:0005FFA2  1533 0001:0005FFAC  1537 0001:0005FFAF  1538 0001:0005FFBD
  1539 0001:0005FFD1  1537 0001:0005FFDB  1541 0001:0005FFDE  1542 0001:0006000F
  1544 0001:00060018  1545 0001:00060026  1546 0001:00060031  1547 0001:00060048
  1549 0001:00060056  1550 0001:0006005B  1551 0001:00060060  1552 0001:00060065
  1554 0001:0006006A  1555 0001:00060078  1557 0001:00060089  1558 0001:00060096
  1559 0001:0006009C  1562 0001:000600C0  1564 0001:000600DA  1555 0001:000600DB
  1567 0001:000600DE  1568 0001:000600EC  1569 0001:000600FA  1571 0001:00060106
  1574 0001:00060111  1575 0001:00060116  1576 0001:0006011B  1577 0001:00060120
  1578 0001:00060125  1580 0001:0006012A  1585 0001:00060134  1588 0001:00060146
  1589 0001:0006014B  1590 0001:00060150  1591 0001:00060155  1593 0001:0006015A
  1594 0001:00060165  1595 0001:00060170  1597 0001:0006017B  1600 0001:00060185
  1601 0001:00060196  1605 0001:000601A7  1607 0001:000601B7  1608 0001:000601D1
  1609 0001:000601E9  1613 0001:00060205  1616 0001:00060223  1617 0001:0006022D
  1618 0001:00060235  1619 0001:0006023D  1620 0001:00060245  1623 0001:00060255
  1625 0001:00060270  1627 0001:00060280  1635 0001:00060288  1637 0001:0006028C
  1638 0001:00060291  1640 0001:000602A8  1644 0001:000602AC  1645 0001:000602B6
  1651 0001:000602B8  1652 0001:000602B9  1654 0001:000602BE  1655 0001:000602C3
  1656 0001:000602C8  1657 0001:000602CD  1658 0001:000602D4  1663 0001:000602D9
  1670 0001:000602DC  1671 0001:000602ED  1672 0001:000602F8  1674 0001:0006030F
  1675 0001:00060330  1676 0001:00060335  1671 0001:00060336  1678 0001:00060339
  1680 0001:0006033C  1681 0001:00060346  1682 0001:0006035F  1683 0001:0006037B
  1684 0001:0006038D  1685 0001:000603B9  1690 0001:000603C4  1691 0001:000603EB
  1692 0001:000603F6  1694 0001:00060418  1695 0001:00060429  1696 0001:0006042E
  1691 0001:0006042F  1698 0001:00060432  1700 0001:00060435  1701 0001:0006043F
  1702 0001:00060463  1703 0001:00060475  1704 0001:00060487  1705 0001:0006049B
  1706 0001:000604D1  1712 0001:000604DC  1713 0001:000604ED  1714 0001:000604F8
  1716 0001:0006050F  1717 0001:0006052C  1718 0001:00060531  1713 0001:00060532
  1720 0001:00060535  1722 0001:00060538  1723 0001:00060542  1724 0001:0006055B
  1725 0001:00060577  1726 0001:00060589  1727 0001:000605B1  1731 0001:000605BC
  1732 0001:000605D4  1734 0001:000605DB  1735 0001:000605E2  1736 0001:000605EC
  1737 0001:00060608  1738 0001:0006060F  1739 0001:00060647  1743 0001:00060650
  1744 0001:00060678  1746 0001:0006067F  1747 0001:00060686  1748 0001:0006069B
  1749 0001:000606AD  1750 0001:000606B4  1751 0001:000606BD  1752 0001:000606FA
  1756 0001:00060704  1757 0001:0006071C  1759 0001:00060723  1760 0001:0006072A
  1761 0001:00060734  1763 0001:00060750  1764 0001:00060757  1765 0001:0006078B
  1770 0001:00060794  1771 0001:000607A1  1772 0001:000607AC  1773 0001:000607BD
  1771 0001:000607CA  1774 0001:000607CD  1775 0001:000607E4  1780 0001:000607EC
  1781 0001:0006080C  1782 0001:00060810  1784 0001:00060820  1785 0001:00060824
  1788 0001:00060826  1789 0001:0006083A  1791 0001:00060853  1792 0001:00060857
  1793 0001:00060859  1788 0001:0006085A  1795 0001:0006085D  1796 0001:00060863
  1797 0001:000608AF  1801 0001:000608B8  1802 0001:000608C0  1806 0001:000608C4
  1807 0001:000608D1  1809 0001:00060904  1809 0001:0006090B

Line numbers for EBaseModule(EBaseModule.pas) segment .text

   303 0001:00060F98   318 0001:00060F9C   320 0001:00060F9E   325 0001:00060FA0
   326 0001:00060FCE   327 0001:00060FE5   330 0001:00061062   337 0001:00061068
   338 0001:0006108D   339 0001:00061091   341 0001:000610A7   343 0001:000610B3
   344 0001:000610C5   345 0001:000610D3   347 0001:000610F9   349 0001:00061131
   351 0001:00061164   352 0001:00061188   354 0001:00061194   355 0001:00061196
   358 0001:00061198   361 0001:00061218   369 0001:00061220   371 0001:00061223
   372 0001:0006122B   376 0001:00061230   377 0001:0006125A   378 0001:0006129D
   383 0001:000612A8   384 0001:000612AA   390 0001:000612AC   391 0001:000612AE
   395 0001:000612B0   396 0001:000612B3   414 0001:000612EB   415 0001:000612FA
   416 0001:00061309   425 0001:00061318   427 0001:00061327   428 0001:00061336
   429 0001:00061345   441 0001:00061354   455 0001:0006135E   459 0001:00061366
   467 0001:000613BC   468 0001:000613BE   472 0001:000613C0   473 0001:000613C3
   491 0001:000613FB   492 0001:0006140A   493 0001:00061419   502 0001:00061428
   504 0001:00061437   505 0001:00061446   506 0001:00061455   507 0001:00061464
   508 0001:00061473   510 0001:00061480   518 0001:00061518   519 0001:0006152D
   521 0001:00061536   522 0001:0006153A   523 0001:00061545   524 0001:00061550
   525 0001:0006155B   526 0001:00061566   527 0001:00061571   528 0001:00061580
   530 0001:0006159E   535 0001:000615A4   536 0001:000615AF   537 0001:000615BC
   538 0001:000615C4   539 0001:000615DB   542 0001:000615E0   543 0001:000615EB
   544 0001:000615FA   545 0001:00061608   547 0001:00061624   549 0001:00061634
   554 0001:0006163C   555 0001:00061641   556 0001:00061653   555 0001:00061663
   557 0001:00061666   558 0001:0006166E   564 0001:00061674   565 0001:0006169C
   566 0001:000616A4   567 0001:000616B2   569 0001:000616D1   570 0001:00061707
   571 0001:00061718   572 0001:00061746   573 0001:00061750   567 0001:00061753
   575 0001:00061769   577 0001:0006179B   583 0001:000617BC   584 0001:000617E7
   585 0001:000617EF   586 0001:000617FE   587 0001:0006180C   588 0001:00061816
   589 0001:0006183D   591 0001:00061846   592 0001:0006184B   595 0001:0006184E
   593 0001:0006184F   596 0001:000618A9   597 0001:000618AF   598 0001:000618BE
   599 0001:000618CC   600 0001:000618F7   602 0001:0006190F   606 0001:0006192C
   608 0001:0006195E   616 0001:00061980   617 0001:000619A3   618 0001:000619AB
   619 0001:000619BA   620 0001:000619C8   622 0001:000619D4   623 0001:000619E3
   624 0001:000619FE   625 0001:00061A05   627 0001:00061A10   628 0001:00061A30
   630 0001:00061A36   631 0001:00061A4D   633 0001:00061A6D   634 0001:00061A78
   635 0001:00061A82   636 0001:00061A8C   638 0001:00061AA3   640 0001:00061AD5
   653 0001:00061ADC   654 0001:00061AEB   658 0001:00061AEC   659 0001:00061AF1
   660 0001:00061B17   662 0001:00061B1B   665 0001:00061B22   667 0001:00061B29
   669 0001:00061B32   670 0001:00061B51   672 0001:00061B55   663 0001:00061B56
   675 0001:00061B66   677 0001:00061B84   678 0001:00061BAA   679 0001:00061BBA
   681 0001:00061BDA   682 0001:00061BE5   683 0001:00061BF5   684 0001:00061C03
   685 0001:00061C1A   687 0001:00061C5C   688 0001:00061C61   691 0001:00061C73
   693 0001:00061C81   694 0001:00061C8A   696 0001:00061D05   698 0001:00061D06
   689 0001:00061D07   700 0001:00061D1A   701 0001:00061D27   684 0001:00061D28
   702 0001:00061D31   704 0001:00061D6C   706 0001:00061DAB   714 0001:00061DF4
   715 0001:00061E1A   717 0001:00061E29   718 0001:00061E53   719 0001:00061E6E
   721 0001:00061EB0   722 0001:00061EB5   725 0001:00061EC4   727 0001:00061ED9
   728 0001:00061F36   730 0001:00061F3B   723 0001:00061F3C   732 0001:00061F4C
   733 0001:00061F59   718 0001:00061F5C   734 0001:00061F8F   740 0001:00061FB0
   741 0001:00061FD0   742 0001:00061FDA   744 0001:00061FDE   745 0001:00061FEA
   746 0001:00061FF6   748 0001:00061FFA   749 0001:00062026   752 0001:00062028
   753 0001:00062050   760 0001:00062058   761 0001:0006207D   762 0001:00062085
   763 0001:0006208A   765 0001:0006209C   766 0001:000620A9   767 0001:000620B7
   768 0001:000620D1   770 0001:000620FF   771 0001:00062110   763 0001:00062111
   772 0001:00062139   779 0001:00062140   780 0001:00062163   781 0001:00062170
   782 0001:00062174   783 0001:00062182   784 0001:0006218E   785 0001:000621A4
   786 0001:000621AF   787 0001:000621E8   802 0001:00062200   803 0001:0006222D
   804 0001:00062232   806 0001:00062240   807 0001:00062241   808 0001:0006225B
   810 0001:00062265   811 0001:0006229D   815 0001:000622BD   817 0001:000622D7
   818 0001:000622D8   819 0001:000622F2   821 0001:000622F8   822 0001:0006234C
   825 0001:00062385   827 0001:00062390   828 0001:000623B1   829 0001:000623C0
   830 0001:000623CE   831 0001:000623D9   832 0001:0006241C   833 0001:0006242A
   834 0001:0006243A   835 0001:00062445   837 0001:0006245D   840 0001:0006246D
   841 0001:000624A3   844 0001:000624D1   845 0001:000624E0   846 0001:000624EE
   847 0001:0006250B   848 0001:00062516   850 0001:00062532   851 0001:00062545
   852 0001:00062558   853 0001:00062571   857 0001:0006258C   859 0001:00062595
   860 0001:000625A6   861 0001:000625BC   865 0001:000625D6   867 0001:000625EE
   869 0001:000625F9   870 0001:00062607   872 0001:00062610   873 0001:00062622
   874 0001:0006263D   877 0001:00062651   879 0001:00062683   884 0001:000626A0
   888 0001:000626A4   892 0001:000626A8   896 0001:000626AC   900 0001:000626B0
   906 0001:000626B4   907 0001:000626D9   908 0001:000626EF   911 0001:00062703
   912 0001:0006270D   914 0001:00062765   917 0001:00062778   918 0001:00062790
   919 0001:000627DD   922 0001:000627F4   923 0001:00062810   924 0001:00062832
   925 0001:00062858   940 0001:00062860   941 0001:00062882   942 0001:000628A2
   943 0001:000628A6   944 0001:000628B5   947 0001:00062908   948 0001:0006291F
   949 0001:00062923   950 0001:00062948   951 0001:00062957   953 0001:00062980
   955 0001:000629B0   956 0001:000629D3   957 0001:000629D8   959 0001:000629E4
   958 0001:000629F4   960 0001:00062A01   961 0001:00062A28   968 0001:00062A30
   969 0001:00062A6C   970 0001:00062A74   971 0001:00062A83   972 0001:00062A91
   973 0001:00062A9C   975 0001:00062ABF   977 0001:00062ACF   979 0001:00062ADB
   980 0001:00062AF5   984 0001:00062B04   985 0001:00062B1E   987 0001:00062B2B
   988 0001:00062B38   990 0001:00062B3C   991 0001:00062B46   993 0001:00062B9F
  1000 0001:00062BE8  1001 0001:00062C07  1002 0001:00062C16  1003 0001:00062C24
  1004 0001:00062C3E  1006 0001:00062C7C  1008 0001:00062CB1  1014 0001:00062D0C
  1015 0001:00062D13  1016 0001:00062D19  1017 0001:00062D21  1019 0001:00062D29
  1034 0001:00062D2C  1035 0001:00062D2F  1036 0001:00062D38  1041 0001:00062D3C
  1042 0001:00062D48  1043 0001:00062D4D  1044 0001:00062D5F  1047 0001:00062D7B
  1048 0001:00062D95  1049 0001:00062D97  1043 0001:00062D98  1050 0001:00062D9E
  1056 0001:00062DA8  1057 0001:00062DC2  1059 0001:00062DE0  1060 0001:00062DF2
  1063 0001:00062DFB  1064 0001:00062E22  1061 0001:00062E25  1066 0001:00062E4D
  1068 0001:00062E54  1069 0001:00062E95  1070 0001:00062EAB  1072 0001:00062EC1
  1074 0001:00062ED0  1077 0001:00062EDB  1078 0001:00062EEA  1080 0001:00062EF8
  1083 0001:00062F0D  1088 0001:00062F1F  1090 0001:00062F3B  1092 0001:00062F52
  1096 0001:00062F7D  1097 0001:00062F8B  1101 0001:00062FBD  1103 0001:00062FCF
  1106 0001:00062FEC  1108 0001:00062FFB  1109 0001:00063019  1112 0001:0006303F
  1113 0001:00063044  1115 0001:0006305D  1118 0001:00063061  1123 0001:0006307D
  1126 0001:00063089  1088 0001:0006308C  1127 0001:00063093  1086 0001:0006309C
  1129 0001:000630D7  1136 0001:000630E0  1138 0001:0006310B  1141 0001:00063121
  1143 0001:00063147  1146 0001:00063165  1148 0001:0006316C  1147 0001:00063188
  1151 0001:00063194  1153 0001:000631B3  1154 0001:000631DB  1155 0001:00063216
  1164 0001:00063220  1165 0001:0006325A  1167 0001:0006325E  1170 0001:00063265
  1173 0001:0006327F  1175 0001:00063283  1174 0001:00063284  1179 0001:000632AE
  1181 0001:000632B7  1182 0001:000632BC  1184 0001:000632C8  1183 0001:000632CA
  1185 0001:00063303  1187 0001:00063313  1188 0001:00063321  1190 0001:0006332B
  1191 0001:0006334A  1193 0001:0006338F  1194 0001:000633D2  1196 0001:000633F7
  1198 0001:000633FE  1197 0001:00063432  1199 0001:0006343E  1201 0001:0006344D
  1202 0001:00063452  1203 0001:00063456  1209 0001:00063458  1210 0001:0006346E
  1211 0001:000634A6  1217 0001:000634FC  1218 0001:0006354A  1219 0001:00063559
  1220 0001:00063564  1221 0001:0006357B  1223 0001:0006358D  1224 0001:000635DE
  1221 0001:000635DF  1225 0001:000635E2  1226 0001:00063626  1234 0001:0006363C
  1235 0001:00063689  1236 0001:00063697  1237 0001:000636A7  1238 0001:000636AF
  1240 0001:000636C2  1241 0001:000636F0  1242 0001:00063715  1243 0001:00063733
  1245 0001:0006373D  1238 0001:00063740  1246 0001:00063749  1247 0001:00063753
  1248 0001:00063768  1249 0001:000637A4  1250 0001:000637BE  1251 0001:00063801
  1259 0001:00063818  1260 0001:0006384D  1261 0001:00063855  1262 0001:00063875
  1264 0001:00063897  1267 0001:000638C2  1268 0001:000638D0  1270 0001:000638DF
  1271 0001:000638E6  1272 0001:00063905  1273 0001:00063942  1274 0001:0006395F
  1268 0001:00063960  1276 0001:00063967  1278 0001:0006399A  1283 0001:000639B0
  1284 0001:000639B6  1285 0001:000639C3  1288 0001:000639C8  1289 0001:000639CE
  1290 0001:000639DB  1293 0001:000639E0  1294 0001:000639E6  1295 0001:000639F3
  1298 0001:000639F8  1299 0001:000639FE  1300 0001:00063A0B  1305 0001:00063A10
  1306 0001:00063A28  1307 0001:00063A35  1309 0001:00063A58  1310 0001:00063A9B
  1313 0001:00063AD8  1314 0001:00063AEE  1315 0001:00063B22  1321 0001:00063B38
  1322 0001:00063B55  1323 0001:00063B67  1324 0001:00063B6F  1325 0001:00063B75
  1326 0001:00063B83  1329 0001:00063B88  1330 0001:00063B92  1331 0001:00063B9D
  1327 0001:00063BB6  1334 0001:00063BC8  1336 0001:00063BD9  1337 0001:00063C34
  1346 0001:00063C84  1347 0001:00063CBA  1348 0001:00063CC5  1350 0001:00063CEB
  1351 0001:00063CFA  1352 0001:00063D02  1355 0001:00063D15  1356 0001:00063D24
  1357 0001:00063D4E  1359 0001:00063D52  1360 0001:00063D64  1361 0001:00063D72
  1353 0001:00063DC1  1365 0001:00063DD6  1366 0001:00063E01  1368 0001:00063E19
  1370 0001:00063E60  1486 0001:000643C4  1487 0001:000643C9  1488 0001:000643CB
  1489 0001:000643D0  1491 0001:000643D5  1492 0001:000643DD  1493 0001:000643F9
  1494 0001:000643FD  1495 0001:00064401  1497 0001:00064403  1498 0001:00064406
  1499 0001:00064411  1489 0001:00064417  1501 0001:0006441C  1510 0001:00064420
  1511 0001:00064425  1512 0001:00064427  1513 0001:0006442C  1515 0001:00064431
  1516 0001:00064439  1518 0001:0006443D  1519 0001:0006443F  1521 0001:00064448
  1522 0001:00064455  1513 0001:0006445B  1524 0001:00064460  1535 0001:00064464
  1536 0001:00064478  1538 0001:0006447F  1539 0001:00064490  1543 0001:00064494
  1544 0001:000644A5  1547 0001:000644DF  1549 0001:000644E5  1550 0001:000644FD
  1552 0001:00064506  1553 0001:0006450A  1554 0001:0006451C  1555 0001:00064529
  1561 0001:00064550  1563 0001:0006456E  1564 0001:0006457C  1566 0001:00064580
  1567 0001:0006459E  1568 0001:000645C6  1569 0001:000645D8  1571 0001:000645E3
  1572 0001:0006460E  1577 0001:00064624  1578 0001:00064640  1579 0001:0006464E
  1580 0001:00064652  1582 0001:00064664  1584 0001:0006466D  1585 0001:0006467B
  1586 0001:0006467F  1588 0001:00064691  1589 0001:000646D4  1608 0001:000646F8
  1610 0001:00064703  1609 0001:00064705  1611 0001:00064712  1613 0001:00064719
  1614 0001:0006471B  1617 0001:0006471F  1618 0001:00064721  1625 0001:00064724
  1626 0001:0006472B  1628 0001:0006472F  1627 0001:00064730  1629 0001:00064742
  1630 0001:00064747  1638 0001:0006474C  1639 0001:00064775  1640 0001:00064777
  1643 0001:0006477F  1644 0001:00064784  1647 0001:00064787  1651 0001:000647AD
  1652 0001:000647C2  1654 0001:000647D0  1641 0001:000647D1  1657 0001:000647DD
  1659 0001:000647E1  1660 0001:000647E8  1661 0001:000647EE  1663 0001:000647FA
  1665 0001:0006482F  1673 0001:00064838  1674 0001:0006483E  1675 0001:00064842
  1677 0001:00064848  1679 0001:00064857  1680 0001:0006485B  1685 0001:00064863
  1684 0001:00064864  1686 0001:0006486F  1687 0001:00064874  1689 0001:00064875
  1690 0001:00064886  1697 0001:0006488C  1698 0001:000648BA  1699 0001:000648C9
  1700 0001:000648DC  1702 0001:000648E2  1703 0001:000648ED  1704 0001:000648FC
  1705 0001:00064918  1709 0001:00064933  1710 0001:00064949  1713 0001:00064964
  1714 0001:00064971  1717 0001:00064980  1718 0001:0006498B  1719 0001:000649A7
  1722 0001:000649BD  1724 0001:000649F8  1729 0001:00064A0C  1730 0001:00064A13
  1731 0001:00064A21  1732 0001:00064A37  1733 0001:00064A40  1736 0001:00064A50
  1737 0001:00064A6C  1738 0001:00064AC4  1743 0001:00064B48  1744 0001:00064B6F
  1745 0001:00064B85  1746 0001:00064B88  1747 0001:00064B97  1749 0001:00064BBB
  1750 0001:00064BBD  1751 0001:00064BBF  1746 0001:00064BC0  1752 0001:00064BE7
  1757 0001:00064BF0  1758 0001:00064BFB  1759 0001:00064C02  1760 0001:00064C04
  1761 0001:00064C13  1763 0001:00064C18  1764 0001:00064C1F  1766 0001:00064C5B
  1768 0001:00064C5F  1769 0001:00064C6E  1770 0001:00064C72  1773 0001:00064C77
  1774 0001:00064C7D  1775 0001:00064C81  1761 0001:00064C84  1778 0001:00064C8C
  1784 0001:00064C94  1785 0001:00064CC0  1786 0001:00064CC3  1787 0001:00064CEF
  1788 0001:00064D18  1790 0001:00064D1B  1791 0001:00064D2D  1793 0001:00064D36
  1795 0001:00064D5D  1796 0001:00064D73  1798 0001:00064D80  1799 0001:00064D86
  1800 0001:00064DA6  1802 0001:00064DAF  1804 0001:00064DC6  1806 0001:00064DF4
  1807 0001:00064DF9  1802 0001:00064DFC  1826 0001:00064E01  1831 0001:00064E1D
  1833 0001:00064E30  1835 0001:00064E79  1843 0001:00064E8C  1844 0001:00064E94
  1846 0001:00064E98  1847 0001:00064E9A  1848 0001:00064EAA  1850 0001:00064EB1
  1851 0001:00064EB2  1853 0001:00064EB7  1854 0001:00064EBB  1856 0001:00064EBD
  1847 0001:00064EBE  1858 0001:00064EC4  1861 0001:00064ECC  1862 0001:00064ECD
  1863 0001:00064EE5  1864 0001:00064EFC  1884 0001:00064F44  1885 0001:00064F53
  1886 0001:00064F58  1887 0001:00064F66  1888 0001:00064F68  1890 0001:00064F6D
  1892 0001:00064F79  1893 0001:00064F89  1895 0001:00064F9B  1896 0001:00064FA7
  1897 0001:00064FB7  1899 0001:00064FC7  1900 0001:00064FD6  1901 0001:00064FE6
  1903 0001:00064FF9  1904 0001:00065009  1906 0001:0006501C  1908 0001:0006502A
  1909 0001:0006502F  1911 0001:00065044  1912 0001:00065057  1914 0001:0006506C
  1915 0001:0006507F  1917 0001:00065089  1918 0001:0006508C  1919 0001:00065094
  1920 0001:0006509C  1921 0001:000650A4  1922 0001:000650B6  1923 0001:000650CD
  1925 0001:000650D9  1926 0001:000650E2  1928 0001:000650F0  1929 0001:000650F3
  1930 0001:000650F9  1931 0001:000650FE  1933 0001:00065100  1923 0001:00065101
  1934 0001:00065104  1936 0001:00065112  1938 0001:00065122  1940 0001:0006512E
  1942 0001:00065137  1943 0001:0006513C  1944 0001:00065142  1945 0001:00065147
  1946 0001:0006514D  1948 0001:0006515D  1938 0001:0006515E  1949 0001:00065161
  1951 0001:00065177  1952 0001:00065183  1953 0001:00065191  1954 0001:000651A0
  1955 0001:000651AE  1956 0001:000651BB  1957 0001:000651C9  1958 0001:000651CB
  1960 0001:000651CF  1961 0001:000651D1  1962 0001:000651DE  1963 0001:000651EB
  1964 0001:000651F8  1958 0001:000651FA  1966 0001:000651FE  1967 0001:00065220
  1968 0001:00065233  1970 0001:00065237  1971 0001:00065239  1972 0001:00065246
  1973 0001:00065253  1974 0001:00065260  1968 0001:00065262  1976 0001:00065266
  1977 0001:00065278  1978 0001:00065288  1979 0001:0006529B  1981 0001:000652B2
  1982 0001:000652BE  1983 0001:000652CA  1984 0001:000652DE  1986 0001:000652FC
  1989 0001:00065319  1993 0001:00065338  1995 0001:0006534A  1997 0001:0006535A
  2002 0001:00065364  2003 0001:00065368  2005 0001:00065372  2006 0001:00065381
  2007 0001:00065386  2008 0001:00065399  2010 0001:0006539C  2011 0001:000653BF
  2012 0001:000653C3  2014 0001:000653E4  2016 0001:000653F1  2017 0001:000653F6
  2018 0001:0006540F  2022 0001:0006541E  2023 0001:00065423  2027 0001:00065430
  2029 0001:00065454  2030 0001:00065468  2031 0001:0006546E  2032 0001:0006547A
  2033 0001:00065480  2034 0001:00065492  2038 0001:00065499  2042 0001:000654D2
  2043 0001:000654E0  2048 0001:000654E8  2050 0001:000654FE  2051 0001:00065505
  2052 0001:00065513  2057 0001:00065527  2058 0001:0006552B  2059 0001:0006553D
  2060 0001:00065547  2061 0001:0006554A  2062 0001:00065554  2063 0001:00065557
  2064 0001:00065564  2066 0001:00065582  2067 0001:000655AF  2068 0001:000655B4
  2069 0001:000655B9  2070 0001:000655C3  2055 0001:000655CA  2077 0001:000655D8
  2079 0001:000655EC  2080 0001:000655F1  2081 0001:000655F8  2082 0001:00065606
  2084 0001:00065615  2085 0001:0006562E  2087 0001:00065656  2088 0001:0006565C
  2089 0001:00065665  2090 0001:00065672  2091 0001:0006567B  2092 0001:00065688
  2093 0001:0006568E  2095 0001:0006569F  2097 0001:000656A4  2105 0001:000656CB
  2111 0001:000656E7  2112 0001:000656EB  2116 0001:000656F5  2117 0001:000656F9
  2122 0001:00065706  2124 0001:00065723  2131 0001:00065733  2128 0001:00065736
  2133 0001:00065763  2134 0001:00065793  2135 0001:00065799  2138 0001:000657A7
  2103 0001:000657AE  2141 0001:000657C8  2147 0001:000657DA  2149 0001:000657EA
  2150 0001:000657F1  2152 0001:00065801  2154 0001:00065821  2155 0001:0006582C
  2156 0001:00065831  2158 0001:0006583F  2159 0001:00065848  2161 0001:00065876
  2152 0001:0006587F  2163 0001:00065887  2164 0001:00065899  2165 0001:000658A7
  2166 0001:000658AC  2167 0001:000658BF  2169 0001:000658C9  2170 0001:000658D4
  2173 0001:000658D9  2174 0001:000658EC  2175 0001:000658F9  2176 0001:0006590C
  2177 0001:00065911  2179 0001:00065924  2180 0001:0006592E  2182 0001:00065941
  2167 0001:00065947  2184 0001:00065951  2185 0001:00065960  2186 0001:00065970
  2193 0001:00065983  2195 0001:00065991  2196 0001:00065996  2198 0001:000659A1
  2199 0001:000659A9  2200 0001:000659B1  2201 0001:000659C2  2204 0001:000659DD
  2205 0001:000659E3  2206 0001:00065A00  2207 0001:00065A1D  2209 0001:00065A2A
  2210 0001:00065A33  2214 0001:00065A3C  2215 0001:00065A44  2217 0001:00065A4B
  2218 0001:00065A56  2219 0001:00065A61  2221 0001:00065A85  2222 0001:00065AAE
  2223 0001:00065ABA  2224 0001:00065AC7  2225 0001:00065ACB  2226 0001:00065ADB
  2227 0001:00065ADE  2228 0001:00065AE2  2229 0001:00065AF4  2230 0001:00065B0A
  2231 0001:00065B1D  2232 0001:00065B2B  2233 0001:00065B30  2234 0001:00065B43
  2235 0001:00065B48  2238 0001:00065B5B  2239 0001:00065B67  2240 0001:00065B6D
  2242 0001:00065B75  2243 0001:00065B82  2244 0001:00065B86  2246 0001:00065B95
  2250 0001:00065BA8  2254 0001:00065BB7  2252 0001:00065BBA  2256 0001:00065BD2
  2259 0001:00065BEF  2260 0001:00065C03  2262 0001:00065C0B  2264 0001:00065C2D
  2265 0001:00065C4D  2270 0001:00065C57  2272 0001:00065C60  2273 0001:00065C6D
  2274 0001:00065C6F  2276 0001:00065C78  2281 0001:00065C7A  2282 0001:00065C90
  2284 0001:00065C9F  2287 0001:00065CC0  2288 0001:00065CD9  2291 0001:00065CF4
  2294 0001:00065D15  2296 0001:00065D31  2299 0001:00065D4C  2302 0001:00065D69
  2304 0001:00065D8B  2305 0001:00065D8F  2306 0001:00065D97  2311 0001:00065DB2
  2313 0001:00065DC7  2315 0001:00065DE5  2316 0001:00065DE9  2317 0001:00065DF0
  2321 0001:00065E08  2322 0001:00065E18  2323 0001:00065E22  2324 0001:00065E38
  2325 0001:00065E4E  2326 0001:00065E5C  2331 0001:00065E72  2333 0001:00065E76
  2334 0001:00065E85  2336 0001:00065E89  2337 0001:00065EA5  2338 0001:00065EB2
  2339 0001:00065EC5  2341 0001:00065ED0  2343 0001:00065EE2  2344 0001:00065EEE
  2346 0001:00065EF4  2347 0001:00065F07  2348 0001:00065F0B  2349 0001:00065F26
  2352 0001:00065F2A  2353 0001:00065F37  2354 0001:00065F49  2355 0001:00065F56
  2356 0001:00065F69  2357 0001:00065F74  2358 0001:00065F87  2202 0001:00065F98
  2360 0001:00065FAE  2361 0001:00065FBB  2362 0001:00065FD0  2363 0001:00065FE6
  2364 0001:00065FF7  2367 0001:00066009  2368 0001:00066019  2371 0001:0006602F
  2372 0001:0006603E  2374 0001:00066058  2375 0001:00066060  2377 0001:00066065
  2378 0001:00066077  2379 0001:00066085  2381 0001:000660A4  2382 0001:000660CB
  2383 0001:000660D9  2386 0001:000660E4  2387 0001:000660EE  2390 0001:00066104
  2393 0001:0006611A  2394 0001:00066135  2395 0001:00066150  2398 0001:00066166
  2399 0001:00066175  2402 0001:0006618B  2403 0001:0006619E  2406 0001:000661B4
  2407 0001:000661C3  2410 0001:000661E0  2411 0001:000661F2  2412 0001:00066200
  2413 0001:0006620E  2414 0001:00066235  2416 0001:00066243  2417 0001:00066259
  2419 0001:0006627D  2422 0001:000662A3  2426 0001:000662B6  2427 0001:000662CC
  2430 0001:000662E2  2433 0001:000662F9  2436 0001:0006632A  2440 0001:00066343
  2441 0001:0006634F  2443 0001:0006635F  2444 0001:00066365  2448 0001:00066376
  2441 0001:0006637F  2450 0001:00066392  2451 0001:0006639B  2453 0001:000663A6
  2454 0001:000663AF  2456 0001:000663BA  2457 0001:000663C9  2458 0001:000663F0
  2459 0001:0006640F  2462 0001:00066432  2465 0001:00066445  2466 0001:00066450
  2467 0001:0006645B  2468 0001:00066463  2469 0001:00066477  2468 0001:0006648D
  2470 0001:00066495  2473 0001:0006649F  2476 0001:000664AD  2479 0001:000664BB
  2481 0001:000664C7  2484 0001:000664D7  2485 0001:00066538  2488 0001:0006668C
  2489 0001:00066692  2490 0001:0006669B  2491 0001:000666AC  2492 0001:000666BD
  2495 0001:000666C0  2496 0001:000666C3  2497 0001:000666CA  2498 0001:000666D5
  2546 0001:00066858  2547 0001:00066886  2549 0001:0006688A  2552 0001:0006688C
  2554 0001:0006689A  2557 0001:000668BF  2559 0001:000668CB  2561 0001:000668FC
  2564 0001:000668FF  2568 0001:0006690B  2570 0001:00066928  2571 0001:00066936
  2572 0001:00066954  2574 0001:00066956  2577 0001:00066970  2578 0001:0006699F
  2585 0001:000669B4  2586 0001:00066A0C  2587 0001:00066A0E  2590 0001:00066A1A
  2592 0001:00066A21  2594 0001:00066A3B  2595 0001:00066A43  2597 0001:00066A85
  2599 0001:00066A93  2601 0001:00066AD9  2602 0001:00066ADC  2604 0001:00066ADE
  2597 0001:00066AE1  2605 0001:00066AE6  2588 0001:00066AED  2607 0001:00066B3B
  2614 0001:00066B48  2615 0001:00066B69  2616 0001:00066B6E  2617 0001:00066B7F
  2618 0001:00066B86  2617 0001:00066B9F  2619 0001:00066BC2  2628 0001:00066BCC
  2629 0001:00066BE9  2631 0001:00066BEB  2634 0001:00066BF8  2637 0001:00066C08
  2639 0001:00066C1A  2641 0001:00066C4C  2642 0001:00066C7C  2643 0001:00066CA2
  2644 0001:00066CAD  2650 0001:00066CB4  2651 0001:00066CCA  2652 0001:00066CE1
  2654 0001:00066D18  2655 0001:00066D61  2656 0001:00066D68  2657 0001:00066D88
  2658 0001:00066D99  2661 0001:00066DBF  2663 0001:00066DF4  2664 0001:00066E1C
  2667 0001:00066E2D  2669 0001:00066E37  2670 0001:00066E56  2673 0001:00066E5C
  2676 0001:00066E68  2679 0001:00066E7B  2681 0001:00066E9D  2682 0001:00066EBB
  2683 0001:00066EC8  2685 0001:00066ED5  2688 0001:00066EDF  2691 0001:00066EF5
  2692 0001:00066F1A  2696 0001:00066F26  2698 0001:00066F39  2700 0001:00066F59
  2701 0001:00066F5B  2702 0001:00066F67  2706 0001:00066F6E  2704 0001:00066F70
  2707 0001:00066FB0  2708 0001:00066FBC  2702 0001:00066FBF  2709 0001:00066FC5
  2711 0001:00066FDD  2712 0001:00066FDF  2718 0001:00066FEB  2720 0001:0006700B
  2723 0001:0006700D  2725 0001:0006701C  2726 0001:00067028  2728 0001:0006704F
  2731 0001:00067052  2733 0001:00067062  2737 0001:0006706E  2738 0001:0006707C
  2739 0001:00067088  2746 0001:0006708F  2748 0001:0006709F  2749 0001:000670AB
  2750 0001:000670B0  2752 0001:000670D9  2755 0001:000670E3  2757 0001:000670FA
  2759 0001:0006710A  2762 0001:0006710F  2763 0001:0006711E  2767 0001:00067133
  2770 0001:0006714B  2772 0001:00067151  2774 0001:00067169  2780 0001:0006719F
  2781 0001:000671B5  2785 0001:000671BB  2787 0001:000671C6  2789 0001:000671E1
  2798 0001:00067233  2804 0001:0006723B  2806 0001:00067251  2807 0001:00067258
  2808 0001:00067265  2812 0001:0006726F  2813 0001:00067274  2814 0001:0006727C
  2817 0001:00067289  2818 0001:00067296  2820 0001:000672A5  2821 0001:000672B2
  2822 0001:000672BE  2825 0001:00067305  2831 0001:00067352  2838 0001:0006735F
  2839 0001:00067367  2840 0001:00067373  2843 0001:000673C6  2852 0001:00067466
  2857 0001:000676B4  2858 0001:000676E3  2859 0001:000676F1  2860 0001:000676FF
  2861 0001:00067708  2862 0001:0006774A  2883 0001:00067750  2884 0001:0006777D
  2885 0001:00067794  2887 0001:000677A4  2888 0001:000677A8  2889 0001:000677B0
  2892 0001:00067804  2893 0001:00067815  2895 0001:00067823  2898 0001:00067841
  2899 0001:00067856  2903 0001:0006786E  2904 0001:0006787D  2906 0001:00067881
  2908 0001:000678A7  2909 0001:000678AC  2910 0001:000678B5  2911 0001:000678D5
  2913 0001:000678F1  2904 0001:000678F4  2915 0001:000678FA  2916 0001:0006790B
  2918 0001:0006790F  2920 0001:00067935  2921 0001:0006793A  2922 0001:00067943
  2923 0001:0006796A  2925 0001:0006798F  2916 0001:00067992  2927 0001:0006799C
  2928 0001:000679AD  2930 0001:000679B1  2932 0001:000679D7  2933 0001:000679DC
  2934 0001:000679E7  2935 0001:00067A0A  2937 0001:00067A29  2928 0001:00067A2C
  2939 0001:00067A36  2940 0001:00067A47  2942 0001:00067A4B  2943 0001:00067A56
  2947 0001:00067A7E  2949 0001:00067A84  2950 0001:00067A9A  2951 0001:00067AA0
  2954 0001:00067AB6  2955 0001:00067ABB  2956 0001:00067AC6  2957 0001:00067AE9
  2959 0001:00067B08  2940 0001:00067B0B  2961 0001:00067B15  2962 0001:00067B24
  2964 0001:00067B28  2966 0001:00067B4E  2967 0001:00067B53  2968 0001:00067B5C
  2969 0001:00067B7C  2971 0001:00067B98  2962 0001:00067B9B  2973 0001:00067BA1
  2974 0001:00067BB2  2976 0001:00067BB6  2978 0001:00067BDC  2979 0001:00067BE1
  2980 0001:00067BEA  2981 0001:00067C0D  2983 0001:00067C2C  2974 0001:00067C2F
  2985 0001:00067C35  2986 0001:00067C44  2988 0001:00067C48  2990 0001:00067C6E
  2991 0001:00067C73  2992 0001:00067C7C  2993 0001:00067C9C  2995 0001:00067CB8
  2986 0001:00067CBB  2997 0001:00067CC1  2998 0001:00067CCA  3000 0001:00067CCE
  3002 0001:00067CF4  3003 0001:00067CF9  3004 0001:00067D02  3005 0001:00067D1C
  3007 0001:00067D32  2998 0001:00067D35  3010 0001:00067D3B  3012 0001:00067D5D
  3014 0001:00067D7F  3016 0001:00067DA1  3018 0001:00067DC4  3020 0001:00067DCF
  3022 0001:00067DDF  3024 0001:00067DEA  3026 0001:00067E0A  3027 0001:00067E25
  3029 0001:00067E3C  3031 0001:00067E58  3033 0001:00067E76  3034 0001:00067E81
  3035 0001:00067E8E  3036 0001:00067E99  3037 0001:00067EB0  3039 0001:00067ED7
  3041 0001:00067F04  3043 0001:00067F22  3045 0001:00067F4F  3047 0001:00067F7C
  3049 0001:00067F8B  3051 0001:00067FAB  3052 0001:00067FC6  3054 0001:00067FDC
  3056 0001:00067FFC  3057 0001:00068017  3059 0001:0006802D  3061 0001:0006804D
  3062 0001:00068068  3064 0001:0006807E  3067 0001:000680B1  3069 0001:000680E4
  3071 0001:00068106  3073 0001:00068129  3075 0001:0006815C  3077 0001:00068184
  3079 0001:000681A7  3081 0001:000681CC  3083 0001:000681F1  3085 0001:00068224
  3087 0001:00068257  3089 0001:0006828A  3091 0001:000682AC  3094 0001:000682DF
  3096 0001:0006830C  3098 0001:00068339  3100 0001:00068366  3102 0001:00068384
  3104 0001:000683B1  3106 0001:000683DE  3108 0001:0006840B  3110 0001:00068438
  3112 0001:00068465  3114 0001:00068492  3116 0001:000684BF  3118 0001:000684EC
  3120 0001:00068519  3122 0001:00068546  3125 0001:00068563  3127 0001:00068570
  3129 0001:00068576  3134 0001:00068597  3137 0001:000685B4  3140 0001:000685BC
  3142 0001:000685C7  3147 0001:000685E4  3150 0001:00068606  3152 0001:00068611
  3154 0001:0006862E  3157 0001:0006863B  3160 0001:00068658  3163 0001:0006867A
  3165 0001:0006868E  3168 0001:00068698  3171 0001:000686BA  3174 0001:000686ED
  3177 0001:00068720  3180 0001:00068743  3182 0001:00068757  3183 0001:00068766
  3186 0001:0006876D  3187 0001:00068775  3188 0001:00068789  3190 0001:00068798
  3191 0001:000687AB  3193 0001:000687BA  3194 0001:000687F5  3195 0001:00068801
  3196 0001:0006883B  3200 0001:00068893  3201 0001:0006889B  3203 0001:000688AF
  3205 0001:0006890D  3206 0001:00068920  3207 0001:0006892B  3201 0001:0006892E
  3208 0001:00068937  3210 0001:00068945  3212 0001:0006894E  3213 0001:00068955
  3214 0001:0006895C  3215 0001:00068963  3219 0001:0006896F  3220 0001:00068976
  3221 0001:0006897D  3222 0001:00068984  3227 0001:00068990  3229 0001:000689CD
  3230 0001:00068A08  3231 0001:00068A14  3232 0001:00068A4E  3233 0001:00068A56
  3235 0001:00068A6A  3237 0001:00068AC8  3238 0001:00068ADB  3239 0001:00068AE6
  3233 0001:00068AE9  3240 0001:00068AF2  3242 0001:00068B00  3244 0001:00068B3E
  3246 0001:00068B7C  3248 0001:00068BBA  3251 0001:00068BF8  3252 0001:00068C03
  3188 0001:00068C04  3253 0001:00068C0D  3255 0001:00068C35  3257 0001:00068C39
  3258 0001:00068C4B  3261 0001:00068C5F  3263 0001:00068C90  3265 0001:00068CDC
  3255 0001:00068CDF  3266 0001:00068CE9  3268 0001:00068D1C  3269 0001:00068D22
  3270 0001:00068D2E  3272 0001:00068D45  3273 0001:00068D4D  3276 0001:00068D5D
  3277 0001:00068DBB  3280 0001:00069460  3281 0001:00069476  3282 0001:000694A7
  3285 0001:000694AC  3286 0001:000694C2  3287 0001:000694F1  3305 0001:000694F8
  3306 0001:00069526  3307 0001:0006954C  3310 0001:0006959F  3311 0001:000695B5
  3312 0001:000695C1  3313 0001:000695DB  3314 0001:000695F3  3315 0001:0006960B
  3316 0001:00069623  3317 0001:0006963D  3318 0001:00069652  3319 0001:00069667
  3320 0001:0006967C  3321 0001:00069691  3322 0001:000696A7  3323 0001:000696BC
  3324 0001:000696D1  3325 0001:000696E9  3327 0001:00069700  3328 0001:00069718
  3330 0001:00069730  3331 0001:00069748  3332 0001:00069760  3333 0001:0006977A
  3335 0001:00069792  3336 0001:000697AA  3337 0001:000697C2  3338 0001:000697DC
  3339 0001:000697F4  3340 0001:00069811  3341 0001:0006982B  3342 0001:00069843
  3343 0001:0006985B  3344 0001:00069873  3345 0001:0006988B  3346 0001:000698A3
  3347 0001:000698BB  3349 0001:000698D3  3350 0001:000698E8  3351 0001:000698FD
  3352 0001:00069912  3353 0001:00069928  3354 0001:0006993D  3355 0001:00069952
  3356 0001:00069967  3357 0001:0006997C  3358 0001:00069991  3359 0001:000699A6
  3360 0001:000699BB  3361 0001:000699D0  3362 0001:000699E5  3363 0001:000699FA
  3365 0001:00069A11  3366 0001:00069A29  3367 0001:00069A38  3369 0001:00069A52
  3371 0001:00069A8A  3373 0001:00069AC3  3374 0001:00069AD9  3375 0001:00069B0C
  3376 0001:00069B24  3377 0001:00069B7D  3375 0001:00069B80  3378 0001:00069B85
  3380 0001:00069BBF  3382 0001:00069BF9  3384 0001:00069C33  3386 0001:00069C6D
  3367 0001:00069C70  3387 0001:00069C79  3391 0001:00069C96  3393 0001:00069C9A
  3395 0001:00069CD6  3391 0001:00069CD9  3396 0001:00069CDF  3398 0001:00069CE3
  3400 0001:00069D1C  3396 0001:00069D1F  3401 0001:00069D25  3403 0001:00069D29
  3405 0001:00069D65  3401 0001:00069D68  3406 0001:00069D6E  3408 0001:00069D72
  3410 0001:00069DAE  3406 0001:00069DB1  3411 0001:00069DB7  3413 0001:00069DBB
  3415 0001:00069DF7  3411 0001:00069DFA  3416 0001:00069E00  3418 0001:00069E04
  3420 0001:00069E40  3416 0001:00069E43  3421 0001:00069E49  3423 0001:00069E4D
  3425 0001:00069E89  3421 0001:00069E8C  3426 0001:00069E92  3428 0001:00069E96
  3430 0001:00069ECF  3426 0001:00069ED2  3431 0001:00069ED8  3433 0001:00069EDC
  3436 0001:00069F38  3431 0001:00069F3B  3437 0001:00069F41  3439 0001:00069F59
  3441 0001:00069F60  3442 0001:00069F67  3443 0001:00069F9C  3446 0001:0006A510
  3447 0001:0006A526  3448 0001:0006A566  3451 0001:0006A588  3452 0001:0006A58B
  3453 0001:0006A5AF  3464 0001:0006A5B4  3465 0001:0006A5E2  3466 0001:0006A5E9
  3467 0001:0006A603  3468 0001:0006A610  3470 0001:0006A614  3471 0001:0006A61E
  3473 0001:0006A65E  3475 0001:0006A688  3476 0001:0006A6BC  3477 0001:0006A6C9
  3479 0001:0006A6E4  3480 0001:0006A6F7  3482 0001:0006A703  3483 0001:0006A712
  3484 0001:0006A720  3485 0001:0006A72B  3487 0001:0006A74E  3490 0001:0006A75E
  3491 0001:0006A766  3492 0001:0006A776  3493 0001:0006A786  3494 0001:0006A796
  3496 0001:0006A79C  3499 0001:0006A7E6  3503 0001:0006A806  3505 0001:0006A821
  3509 0001:0006A82E  3510 0001:0006A846  3512 0001:0006A888  3522 0001:0006A8F8
  3523 0001:0006A90E  3524 0001:0006A93F  3527 0001:0006A944  3528 0001:0006A95A
  3529 0001:0006A989  3532 0001:0006A990  3533 0001:0006A9A9  3534 0001:0006A9E4
  3539 0001:0006A9EC  3540 0001:0006A9F6  3541 0001:0006A9FD  3542 0001:0006AA0C
  3543 0001:0006AA1A  3544 0001:0006AA2F  3546 0001:0006AA46  3548 0001:0006AA56
  3555 0001:0006AA5C  3556 0001:0006AA7E  3557 0001:0006AA7F  3558 0001:0006AA82
  3559 0001:0006AA8C  3560 0001:0006AA9B  3561 0001:0006AAAA  3562 0001:0006AAB8
  3563 0001:0006AAC3  3565 0001:0006AADA  3567 0001:0006AB07  3574 0001:0006AB10
  3575 0001:0006AB30  3576 0001:0006AB31  3577 0001:0006AB3B  3578 0001:0006AB53
  3579 0001:0006AB62  3580 0001:0006AB70  3581 0001:0006AB7B  3583 0001:0006AB92
  3585 0001:0006ABC4  3589 0001:0006ABD0  3603 0001:0006ABD4  3604 0001:0006ABF4
  3605 0001:0006ABFF  3606 0001:0006AC08  3607 0001:0006AC2D  3610 0001:0006AC33
  3613 0001:0006AC3F  3616 0001:0006AC52  3618 0001:0006AC61  3619 0001:0006AC71
  3622 0001:0006AC7C  3624 0001:0006AC8B  3625 0001:0006AC9B  3628 0001:0006ACA6
  3630 0001:0006ACB5  3631 0001:0006ACC5  3635 0001:0006ACCE  3636 0001:0006ACE1
  3638 0001:0006AD02  3641 0001:0006AD1F  3642 0001:0006AD2E  3644 0001:0006AD36
  3645 0001:0006AD39  3647 0001:0006AD3D  3646 0001:0006AD3F  3648 0001:0006AD63
  3650 0001:0006AD7B  3651 0001:0006ADA6  3652 0001:0006ADBE  3655 0001:0006AE1B
  3660 0001:0006AEAC  3661 0001:0006AEC3  3662 0001:0006AECC  3663 0001:0006AEF3
  3664 0001:0006AF0C  3666 0001:0006AF12  3668 0001:0006AF31  3670 0001:0006AF50
  3674 0001:0006AF73  3675 0001:0006AF8C  3678 0001:0006AFA6  3679 0001:0006AFBF
  3682 0001:0006AFD9  3683 0001:0006AFF2  3687 0001:0006B00A  3689 0001:0006B015
  3691 0001:0006B036  3693 0001:0006B057  3695 0001:0006B098  3697 0001:0006B208
  3698 0001:0006B217  3699 0001:0006B22D  3700 0001:0006B234  3705 0001:0006B238
  3707 0001:0006B252  3708 0001:0006B256  3710 0001:0006B25A  3711 0001:0006B285
  3723 0001:0006B28C  3724 0001:0006B2AC  3726 0001:0006B2BB  3727 0001:0006B2CA
  3728 0001:0006B2D8  3729 0001:0006B2E2  3731 0001:0006B2F4  3732 0001:0006B31F
  3733 0001:0006B33A  3729 0001:0006B33B  3735 0001:0006B34B  3738 0001:0006B37D
  3740 0001:0006B384  3741 0001:0006B3AF  3742 0001:0006B3B6  3745 0001:0006B3C4
  3748 0001:0006B3F2  3752 0001:0006B400  3756 0001:0006B426  3758 0001:0006B436
  3759 0001:0006B45B  3760 0001:0006B472  3756 0001:0006B473  3761 0001:0006B498
  3767 0001:0006B4C4  3768 0001:0006B4E9  3769 0001:0006B4F0  3771 0001:0006B513
  3772 0001:0006B51B  3774 0001:0006B539  3775 0001:0006B546  3777 0001:0006B548
  3779 0001:0006B573  3781 0001:0006B582  3782 0001:0006B58C  3784 0001:0006B58E
  3775 0001:0006B58F  3786 0001:0006B594  3787 0001:0006B59A  3789 0001:0006B5AD
  3792 0001:0006B5B7  3794 0001:0006B5E5  3797 0001:0006B613  3798 0001:0006B619
  3800 0001:0006B62C  3801 0001:0006B640  3803 0001:0006B646  3804 0001:0006B657
  3805 0001:0006B673  3807 0001:0006B689  3808 0001:0006B69C  3813 0001:0006B6B8
  3814 0001:0006B6D8  3815 0001:0006B6E9  3816 0001:0006B705  3818 0001:0006B73E
  3822 0001:0006B8F0  3823 0001:0006B909  3825 0001:0006B916  3826 0001:0006B921
  3828 0001:0006B931  3830 0001:0006B941  3831 0001:0006B972  3836 0001:0006B990
  3843 0001:0006B994  3845 0001:0006B9C4  3846 0001:0006B9D1  3859 0001:0006B9DE
  3860 0001:0006B9F9  3861 0001:0006BA2D  3862 0001:0006BA33  3864 0001:0006BA67
  3865 0001:0006BA93  3871 0001:0006BAE0  3872 0001:0006BB05  3873 0001:0006BB0C
  3875 0001:0006BB14  3876 0001:0006BB21  3877 0001:0006BB2E  3880 0001:0006BB37
  3882 0001:0006BB4D  3883 0001:0006BB57  3884 0001:0006BB5D  3887 0001:0006BB8C
  3888 0001:0006BBE2  3891 0001:0006BBEC  3892 0001:0006BC05  3893 0001:0006BC39
  3898 0001:0006BC40  3899 0001:0006BC43  3900 0001:0006BC4E  3901 0001:0006BC70
  3906 0001:0006BC74  3907 0001:0006BC97  3908 0001:0006BCA5  3909 0001:0006BCAE
  3910 0001:0006BCB9  3911 0001:0006BCC2  3913 0001:0006BCE6  3918 0001:0006BCF0
  3919 0001:0006BCFC  3920 0001:0006BD16  3921 0001:0006BD2D  3926 0001:0006BD34
  3927 0001:0006BD5B  3929 0001:0006BD5F  3928 0001:0006BD60  3939 0001:0006BDAF
  3940 0001:0006BDB7  3941 0001:0006BDDB  3946 0001:0006BDE4  3947 0001:0006BDF8
  3948 0001:0006BE0E  3949 0001:0006BE44  3952 0001:0006BE48  3953 0001:0006BE4E
  3954 0001:0006BE57  3959 0001:0006BE5C  3960 0001:0006BE62  3961 0001:0006BE6B
  3962 0001:0006BE70  3963 0001:0006BE79  3967 0001:0006BE7C  3968 0001:0006BE81
  3975 0001:0006BE84  3976 0001:0006BE8A  3977 0001:0006BE9A  3980 0001:0006BEC6
  3981 0001:0006BEEC  3983 0001:0006BEF0  3984 0001:0006BEFA  3985 0001:0006BF02
  3986 0001:0006BF09  3987 0001:0006BF12  3990 0001:0006BF44  3991 0001:0006BF5E
  3994 0001:0006BF85  3995 0001:0006BF92  3996 0001:0006BFA4  3999 0001:0006BFAB
  4000 0001:0006BFC5  4002 0001:0006BFFC  4007 0001:0006C004  4008 0001:0006C01A
  4010 0001:0006C07E  4012 0001:0006C084  4013 0001:0006C0A0  4017 0001:0006C0D3
  4018 0001:0006C0E0  4020 0001:0006C0F7  4021 0001:0006C0FE  4022 0001:0006C11D
  4024 0001:0006C123  4025 0001:0006C143  4030 0001:0006C15E  4031 0001:0006C17E
  4033 0001:0006C1B9  4042 0001:0006C1C0  4044 0001:0006C1C5  4050 0001:0006C1C8
  4052 0001:0006C1D2  4053 0001:0006C1DB  4054 0001:0006C1E5  4055 0001:0006C1F6
  4056 0001:0006C200  4057 0001:0006C207  4058 0001:0006C211  4062 0001:0006C214
  4063 0001:0006C21E  4064 0001:0006C225  4072 0001:0006C228  4074 0001:0006C2DC
  4068 0001:0006C2FC  4069 0001:0006C305  4071 0001:0006C314

Line numbers for EWait(EWait.pas) segment .text

    43 0001:0006C53C    44 0001:0006C552    45 0001:0006C562    46 0001:0006C59B
    48 0001:0006C5F0    48 0001:0006C5F7

Line numbers for EVariables(EVariables.pas) segment .text

    51 0001:0006C848    52 0001:0006C85C    53 0001:0006C869    55 0001:0006C86D
    56 0001:0006C8B3    62 0001:0006C8C4    63 0001:0006C8E2    64 0001:0006C8EA
    65 0001:0006C8FE    67 0001:0006C909    68 0001:0006C917    69 0001:0006C935
    70 0001:0006C953    72 0001:0006C969    73 0001:0006C973    75 0001:0006C97E
    65 0001:0006C981    76 0001:0006C9A6    79 0001:0006C9BC    80 0001:0006C9BF
    81 0001:0006C9DA    83 0001:0006CA0C    83 0001:0006CA13

Line numbers for EIDEOptions(EIDEOptions.pas) segment .text

    55 0001:0006CD10    56 0001:0006CD14    57 0001:0006CD24    58 0001:0006CD31
    59 0001:0006CD3E    60 0001:0006CD4B    61 0001:0006CD58    64 0001:0006CD5C
    65 0001:0006CD5F    66 0001:0006CD85    67 0001:0006CDAB    68 0001:0006CDCE
    69 0001:0006CDD7    70 0001:0006CDDE    73 0001:0006CE48    74 0001:0006CE4B
    75 0001:0006CE6E    76 0001:0006CE91    77 0001:0006CEB4    79 0001:0006CF50
    79 0001:0006CF57

Line numbers for EAbout(EAbout.pas) segment .text

    84 0001:0006D2DC    86 0001:0006D2F3    98 0001:0006D318    99 0001:0006D32F
   100 0001:0006D33B   101 0001:0006D351   102 0001:0006D361   103 0001:0006D371
   104 0001:0006D381   105 0001:0006D391   106 0001:0006D39E   107 0001:0006D3B9
   108 0001:0006D3C6   161 0001:0006D3E1   162 0001:0006D3F1   163 0001:0006D404
   164 0001:0006D423   165 0001:0006D436   166 0001:0006D445   167 0001:0006D452
   168 0001:0006D473   169 0001:0006D484   171 0001:0006D491   172 0001:0006D4A1
   173 0001:0006D4AE   175 0001:0006D4BB   176 0001:0006D4DF   180 0001:0006D570
   181 0001:0006D573   182 0001:0006D57E   186 0001:0006D584   188 0001:0006D59B
   197 0001:0006D5C4   205 0001:0006D5C8   207 0001:0006D5CB   211 0001:0006D5CC
   212 0001:0006D5D6   217 0001:0006D5E8   220 0001:0006D5FF   224 0001:0006D630
   226 0001:0006D647   228 0001:0006D6A4   228 0001:0006D6AB

Line numbers for ECommon(ECommon.pas) segment .text

   131 0001:0006D94C   132 0001:0006D94F   133 0001:0006D95F   135 0001:0006D971
   136 0001:0006D990   141 0001:0006D9AD   147 0001:0006D9B0   148 0001:0006D9B3
   149 0001:0006D9C3   151 0001:0006D9D5   152 0001:0006D9F4   157 0001:0006DA02
   170 0001:0006DA08   171 0001:0006DA09   172 0001:0006DA21   173 0001:0006DA38
   175 0001:0006DA70   177 0001:0006DA93   179 0001:0006DAA8   183 0001:0006DAE8
   184 0001:0006DB02   187 0001:0006DB1E   194 0001:0006DB57   195 0001:0006DB70
   197 0001:0006DB80   199 0001:0006DBC9   206 0001:0006DD34   207 0001:0006DD55
   209 0001:0006DD57   210 0001:0006DD7B   211 0001:0006DD93   212 0001:0006DD99
   213 0001:0006DD9D   207 0001:0006DD9E   214 0001:0006DDC2   221 0001:0006DDE4
   222 0001:0006DDF1   227 0001:0006DE33   229 0001:0006DE38   227 0001:0006DE78
   234 0001:0006DE7D   240 0001:0006DE88   241 0001:0006DE9A   242 0001:0006DEA3
   243 0001:0006DEB0   244 0001:0006DEBC   245 0001:0006DEDC   251 0001:0006DEE0
   252 0001:0006DF18   253 0001:0006DF22   254 0001:0006DF30   256 0001:0006DF48
   257 0001:0006DF5B   258 0001:0006DF6B   259 0001:0006DF8B   260 0001:0006DF98
   261 0001:0006DFB7   262 0001:0006DFCD   274 0001:0006E030   276 0001:0006E074
   289 0001:0006E094   290 0001:0006E0AA   292 0001:0006E0AF   293 0001:0006E0C5
   294 0001:0006E0E6   295 0001:0006E0F3   296 0001:0006E117   298 0001:0006E128
   299 0001:0006E149   300 0001:0006E151   301 0001:0006E15B   303 0001:0006E16E
   304 0001:0006E191   305 0001:0006E19B   301 0001:0006E19C   306 0001:0006E19F
   307 0001:0006E1CB   312 0001:0006E1D4   318 0001:0006E1F2   319 0001:0006E1FF
   333 0001:0006E20C   334 0001:0006E240   335 0001:0006E26E   343 0001:0006E2A4
   344 0001:0006E2BD   345 0001:0006E2DE   346 0001:0006E304   348 0001:0006E30C
   349 0001:0006E32F   350 0001:0006E333   351 0001:0006E342   352 0001:0006E350
   354 0001:0006E360   355 0001:0006E374   357 0001:0006E388   358 0001:0006E3A8
   359 0001:0006E3BE   355 0001:0006E3BF   361 0001:0006E3C2   362 0001:0006E3CC
   363 0001:0006E3EE   365 0001:0006E400   367 0001:0006E433   368 0001:0006E437
   369 0001:0006E461   371 0001:0006E463   363 0001:0006E464   373 0001:0006E474
   375 0001:0006E4A9   381 0001:0006E4C0   382 0001:0006E50D   383 0001:0006E532
   384 0001:0006E55B   386 0001:0006E563   387 0001:0006E56C   389 0001:0006E590
   390 0001:0006E5BB   392 0001:0006E5E8   384 0001:0006E5F3   394 0001:0006E5FB
   395 0001:0006E644   398 0001:0006E67C   399 0001:0006E67D   400 0001:0006E687
   406 0001:0006E68C   407 0001:0006E696   408 0001:0006E6A7   413 0001:0006E6A8
   414 0001:0006E6A9   415 0001:0006E6AB   416 0001:0006E6B5   417 0001:0006E6CA
   422 0001:0006E6CC   423 0001:0006E6F3   424 0001:0006E6F5   426 0001:0006E714
   427 0001:0006E723   429 0001:0006E726   431 0001:0006E731   433 0001:0006E76C
   435 0001:0006E785   436 0001:0006E79C   439 0001:0006E7C2   449 0001:0006E7CC
   450 0001:0006E80C   451 0001:0006E834   452 0001:0006E839   456 0001:0006E8A8
   457 0001:0006E8BF   459 0001:0006E918   461 0001:0006E980   462 0001:0006E9A3
   463 0001:0006E9B2   464 0001:0006E9C0   465 0001:0006E9CA   467 0001:0006E9E0
   474 0001:0006EA35   475 0001:0006EA79   477 0001:0006EA7E   465 0001:0006EA7F
   479 0001:0006EA93   481 0001:0006EACD   487 0001:0006EBB0   490 0001:0006EBB4
   492 0001:0006EBB7   497 0001:0006EBBC   500 0001:0006EBC0   501 0001:0006EBC3
   502 0001:0006EBCA   506 0001:0006EBCC   508 0001:0006EBCF   512 0001:0006EBD4
   513 0001:0006EBD6   518 0001:0006EBD8   522 0001:0006EBDC   523 0001:0006EBDE
   528 0001:0006EBE0   532 0001:0006EBE4   533 0001:0006EBFE   534 0001:0006EC1F
   541 0001:0006EC24   542 0001:0006EC25   543 0001:0006EC2D   546 0001:0006EC3D
   547 0001:0006EC47   549 0001:0006EC4E   555 0001:0006EC50   556 0001:0006EC57
   561 0001:0006EC58   562 0001:0006EC59   565 0001:0006EC69   566 0001:0006EC73
   568 0001:0006EC7A   573 0001:0006EC7C   574 0001:0006EC91   577 0001:0006ECA1
   578 0001:0006ECB9   579 0001:0006ECC3   581 0001:0006ECE7   584 0001:0006ECEC
   585 0001:0006ED01   586 0001:0006ED11   588 0001:0006ED48   589 0001:0006ED80
   593 0001:0006EDBC   594 0001:0006EDC1   598 0001:0006EDC4   599 0001:0006EDCB
   613 0001:0006EDCC   614 0001:0006EE01   615 0001:0006EE41   622 0001:0006EE48
   623 0001:0006EE68   624 0001:0006EE72   625 0001:0006EE88   628 0001:0006EEC9
   630 0001:0006EED6   632 0001:0006EF18   638 0001:0006EF34   639 0001:0006EF4D
   641 0001:0006EF7D   642 0001:0006EF85   644 0001:0006EFA6   645 0001:0006EFDB
   653 0001:0006EFF4   654 0001:0006EFFB   657 0001:0006F00C   658 0001:0006F020
   659 0001:0006F03C   661 0001:0006F04A   663 0001:0006F04F   667 0001:0006F06D
   671 0001:0006F08B   672 0001:0006F09E   673 0001:0006F0A8   677 0001:0006F130
   678 0001:0006F137   679 0001:0006F141   680 0001:0006F148   681 0001:0006F158
   684 0001:0006F162   686 0001:0006F167   688 0001:0006F170   689 0001:0006F17B
   692 0001:0006F185   717 0001:0006F188   718 0001:0006F18E   719 0001:0006F197
   720 0001:0006F1B9   722 0001:0006F1C8   723 0001:0006F1EC   724 0001:0006F1F1
   726 0001:0006F1F6   727 0001:0006F207   730 0001:0006F21F   731 0001:0006F230
   732 0001:0006F249   735 0001:0006F289   736 0001:0006F29F   737 0001:0006F2B2
   738 0001:0006F2CC   739 0001:0006F2CF   740 0001:0006F2D2   741 0001:0006F2DA
   742 0001:0006F31A   744 0001:0006F34C   745 0001:0006F36F   746 0001:0006F371
   747 0001:0006F37E   748 0001:0006F394   749 0001:0006F3A0   750 0001:0006F3D2
   755 0001:0006F3E8   756 0001:0006F3F1   757 0001:0006F400   758 0001:0006F40E
   759 0001:0006F418   761 0001:0006F445   763 0001:0006F458   765 0001:0006F460
   766 0001:0006F47E   767 0001:0006F4A4   768 0001:0006F4BC   769 0001:0006F4D1
   770 0001:0006F4E9   773 0001:0006F4FE   775 0001:0006F52F   779 0001:0006F569
   780 0001:0006F58E   782 0001:0006F59A   785 0001:0006F5D8   788 0001:0006F614
   796 0001:0006F764   798 0001:0006F7B5   792 0001:0006F7D0   793 0001:0006F7EA
   795 0001:0006F80E

Line numbers for EOption(EOption.pas) segment .text

   496 0001:00071930   497 0001:00071938   498 0001:00071941   500 0001:00071952
   501 0001:00071954   502 0001:00071965   501 0001:00071976   504 0001:00071979
   510 0001:00071980   511 0001:000719CB   512 0001:00071A08   513 0001:00071A15
   515 0001:00071A29   517 0001:00071A40   518 0001:00071A47   519 0001:00071A4C
   522 0001:00071A76   523 0001:00071A96   524 0001:00071AA5   526 0001:00071AEE
   538 0001:00071B1C   539 0001:00071B47   540 0001:00071B4F   542 0001:00071B6E
   543 0001:00071B80   542 0001:00071BA9   544 0001:00071BD1   546 0001:00071BE8
   547 0001:00071C04   548 0001:00071C0B   550 0001:00071C1F   552 0001:00071C37
   553 0001:00071C45   554 0001:00071C62   555 0001:00071C74   558 0001:00071C9F
   559 0001:00071CD4   564 0001:00071CFC   565 0001:00071D14   566 0001:00071D1B
   567 0001:00071D23   568 0001:00071D63   580 0001:00071DC8   581 0001:00071DDA
   582 0001:00071DE5   583 0001:00071DE9   584 0001:00071E07   594 0001:00071E0C
   595 0001:00071E1C   596 0001:00071E21   597 0001:00071E47   598 0001:00071E4E
   600 0001:00071E58   602 0001:00071E6C   603 0001:00071E73   604 0001:00071E8C
   605 0001:00071EAC   606 0001:00071EEE   610 0001:00071F0C   611 0001:00071F2F
   614 0001:00071F3F   617 0001:00071F50   619 0001:00071F63   620 0001:00071F6C
   621 0001:00071F86   622 0001:00071FA1   623 0001:00071FBC   624 0001:00071FDD
   625 0001:00071FF8   628 0001:00072013   630 0001:00072051   635 0001:00072058
   636 0001:0007205C   637 0001:00072086   638 0001:00072093   639 0001:000720A0
   640 0001:000720AD   641 0001:000720BA   642 0001:000720C7   643 0001:000720D4
   644 0001:000720E1   655 0001:000720E4   656 0001:00072102   658 0001:00072127
   660 0001:0007214A   664 0001:000721C6   666 0001:000721EC   656 0001:000721ED
   667 0001:00072216   669 0001:00072248   670 0001:00072267   672 0001:000722A3
   673 0001:000722B4   674 0001:000722EE   675 0001:0007231A   676 0001:0007233D
   677 0001:0007234D   678 0001:00072357   679 0001:0007237B   680 0001:000723BD
   685 0001:00072404   686 0001:00072421   687 0001:0007242A   690 0001:00072449
   691 0001:00072487   693 0001:0007249B   694 0001:000724D2   695 0001:000724EF
   697 0001:00072504   698 0001:00072514   702 0001:0007251F   703 0001:00072535
   704 0001:00072545   706 0001:00072552   708 0001:00072594   713 0001:000725E4
   714 0001:000725E9   715 0001:00072616   716 0001:00072645   717 0001:00072670
   718 0001:00072681   719 0001:00072692   720 0001:000726A3   721 0001:000726B4
   722 0001:000726C5   723 0001:000726D6   724 0001:000726E7   725 0001:000726F8
   726 0001:00072709   727 0001:0007271A   728 0001:00072728   729 0001:00072736
   730 0001:00072744   731 0001:00072751   732 0001:0007275E   733 0001:0007276F
   734 0001:00072780   735 0001:0007278D   736 0001:0007279A   737 0001:000727A7
   738 0001:000727B4   739 0001:000727C5   740 0001:000727D2   741 0001:000727E3
   742 0001:000727F0   743 0001:000727FD   744 0001:0007280A   747 0001:00072810
   750 0001:00072814   753 0001:0007283E   755 0001:0007285D   760 0001:00072878
   761 0001:0007287C   762 0001:000728A6   763 0001:000728B3   764 0001:000728C0
   765 0001:000728CD   766 0001:000728DA   771 0001:000728E0   772 0001:000728F9
   773 0001:00072906   777 0001:00072961   778 0001:00072977   780 0001:000729BB
   784 0001:000729D4   785 0001:000729DB   790 0001:000729DC   791 0001:000729DD
   794 0001:000729ED   798 0001:000729F8   800 0001:000729FF   805 0001:00072A04
   806 0001:00072A1D   807 0001:00072A49   809 0001:00072A71   811 0001:00072A85
   812 0001:00072A95   813 0001:00072AA2   814 0001:00072AB7   816 0001:00072AD7
   817 0001:00072AE7   818 0001:00072AF4   819 0001:00072B01   823 0001:00072B10
   824 0001:00072B1D   825 0001:00072B2A   830 0001:00072B39   831 0001:00072B49
   832 0001:00072B56   833 0001:00072B61   835 0001:00072B6E   836 0001:00072B8D
   837 0001:00072BAF   844 0001:00072BC3   845 0001:00072BCC   846 0001:00072BF7
   851 0001:00072C38   852 0001:00072C3B   853 0001:00072C61   856 0001:00072C7C
   858 0001:00072C82   859 0001:00072C9B   860 0001:00072CB8   861 0001:00072CBD
   867 0001:00072CC8   868 0001:00072CE9   869 0001:00072D10   871 0001:00072D1F
   873 0001:00072D41   874 0001:00072D57   876 0001:00072DDF   878 0001:00072DEE
   879 0001:00072E59   882 0001:00072F40   883 0001:00072F5D   885 0001:00072F7A
   886 0001:00072FC0   889 0001:00073006   892 0001:0007301F   896 0001:0007306B
   898 0001:00073084   900 0001:0007311F   902 0001:000731A0   903 0001:000731C1
   905 0001:000731CA   907 0001:000731DA   908 0001:00073201   910 0001:0007320D
   912 0001:00073232   914 0001:00073239   915 0001:00073262   917 0001:0007326E
   919 0001:00073279   921 0001:000732A8   924 0001:000732CA   926 0001:000732DA
   927 0001:000732EF   928 0001:0007330B   931 0001:00073332   933 0001:00073346
   934 0001:00073355   936 0001:00073362   937 0001:000733A5   946 0001:00073468
   947 0001:0007348D   949 0001:000734A3   950 0001:000734A6   951 0001:000734B3
   952 0001:000734C6   954 0001:000734CB   956 0001:000734E6   957 0001:0007350C
   959 0001:00073510   960 0001:0007351C   961 0001:00073529   963 0001:00073543
   964 0001:00073567   966 0001:0007357B   952 0001:0007357C   967 0001:00073585
   968 0001:00073588   969 0001:00073593   970 0001:000735AD   971 0001:000735C1
   972 0001:000735CD   973 0001:000735DA   974 0001:000735F3   975 0001:00073609
   977 0001:00073616   978 0001:00073620   981 0001:00073652   985 0001:0007368C
   986 0001:00073692   987 0001:000736AD   995 0001:000736B4   996 0001:000736D5
   997 0001:000736DE   998 0001:000736F6  1000 0001:00073725  1002 0001:00073738
  1006 0001:0007374D  1008 0001:00073760  1010 0001:00073765  1011 0001:00073791
  1013 0001:00073799  1015 0001:000737A6  1016 0001:000737AA  1018 0001:000737B2
  1019 0001:000737BB  1020 0001:000737D2  1022 0001:00073809  1024 0001:0007381C
  1025 0001:0007382C  1028 0001:00073830  1031 0001:00073846  1008 0001:00073847
  1032 0001:00073872  1042 0001:0007388C  1043 0001:000738AE  1044 0001:000738B9
  1047 0001:000738C0  1048 0001:000738D9  1049 0001:000738E8  1052 0001:000738FD
  1053 0001:00073913  1055 0001:00073932  1057 0001:00073942  1060 0001:00073982
  1101 0001:0007398E  1102 0001:000739A6  1103 0001:000739C1  1104 0001:000739DC
  1145 0001:000739EF  1146 0001:00073A00  1147 0001:00073A08  1149 0001:00073A15
  1151 0001:00073A28  1152 0001:00073A32  1154 0001:00073A38  1155 0001:00073A42
  1159 0001:00073A4E  1160 0001:00073A68  1161 0001:00073A7E  1164 0001:00073A88
  1147 0001:00073A8B  1167 0001:00073A90  1170 0001:00073AA6  1171 0001:00073AB7
  1173 0001:00073AC1  1174 0001:00073AE0  1175 0001:00073AFF  1177 0001:00073B12
  1178 0001:00073B1C  1180 0001:00073B27  1171 0001:00073B2A  1182 0001:00073B2F
  1184 0001:00073B58  1185 0001:00073B6C  1186 0001:00073B95  1189 0001:00073C54
  1190 0001:00073C57  1191 0001:00073C72  1192 0001:00073C8D  1193 0001:00073CA8
  1194 0001:00073CC3  1195 0001:00073CDE  1196 0001:00073CF9  1200 0001:00073CFC
  1201 0001:00073D0E  1206 0001:00073D10  1207 0001:00073D31  1208 0001:00073D3E
  1210 0001:00073D46  1213 0001:00073D5C  1214 0001:00073D71  1215 0001:00073DAA
  1216 0001:00073DE6  1217 0001:00073E11  1218 0001:00073E4D  1219 0001:00073E89
  1222 0001:00073E9F  1223 0001:00073EBE  1224 0001:00073EE0  1225 0001:00073F05
  1226 0001:00073F30  1227 0001:00073F55  1229 0001:00073F7A  1232 0001:00073FCA
  1236 0001:00073FD4  1237 0001:00073FD7  1238 0001:00073FF7  1242 0001:00073FFC
  1243 0001:00073FFF  1244 0001:00074020  1249 0001:00074024  1250 0001:0007402B
  1251 0001:00074052  1252 0001:00074075  1253 0001:00074096  1254 0001:000740BA
  1255 0001:000740DE  1257 0001:000740E7  1258 0001:000740F6  1259 0001:00074105
  1260 0001:00074114  1261 0001:00074123  1262 0001:00074132  1263 0001:00074141
  1265 0001:00074150  1266 0001:0007415E  1267 0001:0007416C  1268 0001:0007417A
  1269 0001:00074188  1270 0001:000741B1  1271 0001:000741BF  1272 0001:000741CD
  1273 0001:000741DB  1274 0001:000741E9  1275 0001:000741F7  1276 0001:00074205
  1277 0001:00074213  1278 0001:00074221  1280 0001:0007422F  1281 0001:0007423C
  1282 0001:00074249  1283 0001:00074256  1284 0001:00074263  1285 0001:00074270
  1286 0001:0007427D  1287 0001:0007428A  1289 0001:00074297  1290 0001:000742A4
  1291 0001:000742B1  1292 0001:000742BE  1293 0001:000742CB  1294 0001:000742D8
  1295 0001:000742E5  1296 0001:000742F2  1298 0001:000742FF  1299 0001:0007430E
  1300 0001:0007431D  1301 0001:0007432C  1302 0001:0007433B  1303 0001:0007434A
  1304 0001:00074359  1305 0001:00074368  1306 0001:00074377  1307 0001:00074390
  1308 0001:000743A0  1309 0001:000743B5  1310 0001:000743C2  1311 0001:000743D1
  1312 0001:000743E0  1313 0001:000743EF  1315 0001:000743FE  1316 0001:00074421
  1318 0001:00074451  1319 0001:0007445E  1320 0001:0007446B  1321 0001:00074478
  1322 0001:00074485  1324 0001:000744B5  1325 0001:000744C2  1326 0001:000744CF
  1327 0001:000744DC  1328 0001:000744E9  1329 0001:000744F2  1334 0001:00074518
  1340 0001:0007452E  1341 0001:00074544  1343 0001:0007456F  1348 0001:000745A0
  1349 0001:000745B3  1351 0001:000745D9  1353 0001:000745F3  1355 0001:0007460A
  1357 0001:00074621  1359 0001:00074638  1361 0001:0007464F  1363 0001:00074666
  1364 0001:0007467D  1365 0001:00074685  1366 0001:000746AA  1370 0001:00074758
  1371 0001:00074763  1372 0001:0007476A  1376 0001:0007476C  1377 0001:00074776
  1382 0001:00074794  1383 0001:000747AC  1385 0001:000747BB  1386 0001:000747C9
  1387 0001:000747DA  1388 0001:000747F5  1389 0001:00074803  1391 0001:00074832
  1396 0001:00074854  1397 0001:0007486C  1399 0001:0007487B  1400 0001:00074889
  1401 0001:0007489A  1402 0001:000748B5  1403 0001:000748C2  1405 0001:000748F2
  1414 0001:00074914  1415 0001:00074932  1417 0001:00074957  1419 0001:0007497A
  1424 0001:00074A1A  1415 0001:00074A1B  1425 0001:00074A44  1427 0001:00074A74
  1428 0001:00074A92  1429 0001:00074A9C  1431 0001:00074AB6  1432 0001:00074ACC
  1435 0001:00074AD2  1436 0001:00074AE8  1439 0001:00074AED  1440 0001:00074B27
  1441 0001:00074B53  1442 0001:00074B76  1444 0001:00074BA8  1447 0001:00074C2C
  1448 0001:00074C2F  1449 0001:00074C3D  1453 0001:00074C40  1454 0001:00074C51
  1457 0001:00074C54  1458 0001:00074C57  1459 0001:00074C65  1463 0001:00074C68
  1464 0001:00074C79  1483 0001:00074C7C  1484 0001:00074C83  1486 0001:00074C88
  1487 0001:00074C89  1484 0001:00074C8C  1489 0001:00074C91  1490 0001:00074C95
  1491 0001:00074CA2  1492 0001:00074CAD  1493 0001:00074CB4  1495 0001:00074CB8
  1496 0001:00074CDF  1498 0001:00074D0A  1501 0001:00074D1B  1502 0001:00074D3D
  1503 0001:00074D58  1504 0001:00074D71  1505 0001:00074D8D  1506 0001:00074DA9
  1507 0001:00074DCE  1508 0001:00074DEA  1509 0001:00074E06  1510 0001:00074E21
  1511 0001:00074E3C  1512 0001:00074E57  1513 0001:00074E73  1514 0001:00074E8F
  1515 0001:00074EAB  1516 0001:00074EC7  1517 0001:00074EE3  1518 0001:00074F08
  1519 0001:00074F24  1520 0001:00074F40  1521 0001:00074F5C  1522 0001:00074F78
  1523 0001:00074F94  1524 0001:00074FB0  1525 0001:00074FCC  1526 0001:00074FE8
  1527 0001:00075003  1528 0001:00075015  1529 0001:00075031  1530 0001:0007504D
  1531 0001:00075069  1532 0001:0007508E  1533 0001:000750B0  1534 0001:000750D5
  1535 0001:000750FA  1536 0001:0007511F  1537 0001:00075144  1538 0001:00075169
  1539 0001:0007518E  1540 0001:000751B3  1541 0001:000751D8  1542 0001:000751FD
  1544 0001:00075219  1545 0001:0007523B  1546 0001:00075260  1547 0001:00075285
  1548 0001:000752AA  1549 0001:000752CF  1551 0001:000752F4  1552 0001:00075319
  1553 0001:0007533E  1554 0001:00075363  1555 0001:00075385  1556 0001:000753AA
  1557 0001:000753CF  1558 0001:000753F4  1559 0001:00075419  1560 0001:0007543E
  1561 0001:00075463  1562 0001:0007547C  1563 0001:0007549E  1565 0001:000754C6
  1566 0001:000754E8  1567 0001:0007550D  1568 0001:00075532  1569 0001:00075557
  1570 0001:0007557C  1572 0001:000755A3  1573 0001:000755C5  1574 0001:000755EA
  1575 0001:0007560F  1576 0001:00075634  1577 0001:00075659  1578 0001:0007567E
  1579 0001:000756A3  1580 0001:000756C8  1582 0001:000756ED  1583 0001:0007570F
  1584 0001:00075734  1585 0001:00075759  1586 0001:0007577E  1588 0001:000757A3
  1589 0001:000757BE  1590 0001:000757D7  1592 0001:000757F0  1593 0001:00075810
  1595 0001:00075833  1596 0001:00075857  1597 0001:00075878  1599 0001:00075899
  1600 0001:000758B4  1601 0001:000758CD  1603 0001:000758DF  1604 0001:000758EE
  1605 0001:00075906  1606 0001:00075915  1607 0001:0007592D  1608 0001:0007593C
  1609 0001:00075954  1610 0001:00075963  1611 0001:0007597B  1612 0001:00075986
  1613 0001:00075994  1615 0001:000759B7  1616 0001:000759C9  1617 0001:000759E6
  1618 0001:00075A07  1620 0001:00075A3E  1622 0001:00075A78  1623 0001:00075AAF
  1625 0001:00075AE9  1627 0001:00075B23  1628 0001:00075B30  1613 0001:00075B31
  1630 0001:00075B47  1631 0001:00075B4F  1632 0001:00075B57  1634 0001:00075B67
  1635 0001:00075B74  1640 0001:00075B76  1642 0001:00075B97  1643 0001:00075BC4
  1635 0001:00075BC5  1644 0001:00075BCA  1646 0001:00075BE5  1647 0001:00075BFE
  1649 0001:00075C19  1651 0001:00075C38  1652 0001:00075C54  1654 0001:00075CA3
  1649 0001:00075CA4  1655 0001:00075CA9  1656 0001:00075CCB  1658 0001:00075D58
  1664 0001:00075D78  1665 0001:00075DA2  1666 0001:00075DB0  1668 0001:00075DB6
  1669 0001:00075DCD  1670 0001:00075DE1  1671 0001:00075DF5  1672 0001:00075E06
  1673 0001:00075E1A  1674 0001:00075E2B  1675 0001:00075E3C  1677 0001:00075E50
  1678 0001:00075E5D  1679 0001:00075E6E  1680 0001:00075E7F  1681 0001:00075E90
  1682 0001:00075EAC  1683 0001:00075EC4  1684 0001:00075EDC  1685 0001:00075EF4
  1686 0001:00075F0C  1687 0001:00075F24  1688 0001:00075F3C  1689 0001:00075F54
  1690 0001:00075F6C  1691 0001:00075F84  1692 0001:00075F9C  1694 0001:00075FAD
  1695 0001:00075FBB  1696 0001:00075FC9  1697 0001:00075FD7  1698 0001:00075FF1
  1699 0001:00075FFF  1700 0001:0007600D  1701 0001:0007601B  1702 0001:00076029
  1703 0001:00076037  1704 0001:00076045  1706 0001:00076053  1707 0001:00076061
  1708 0001:0007606F  1710 0001:0007607D  1711 0001:00076095  1712 0001:000760AD
  1713 0001:000760C5  1714 0001:000760DD  1715 0001:000760F5  1717 0001:0007610D
  1718 0001:00076125  1719 0001:0007613D  1720 0001:00076155  1721 0001:0007616D
  1722 0001:00076185  1723 0001:0007619D  1724 0001:000761B5  1725 0001:000761CD
  1726 0001:000761E5  1727 0001:000761FD  1728 0001:0007620F  1729 0001:00076220
  1731 0001:00076237  1732 0001:0007624F  1733 0001:00076267  1734 0001:0007627F
  1735 0001:00076297  1736 0001:000762AF  1738 0001:000762C0  1739 0001:000762D8
  1740 0001:000762F0  1741 0001:00076308  1742 0001:00076320  1743 0001:00076338
  1744 0001:00076350  1745 0001:00076368  1746 0001:00076380  1748 0001:00076398
  1749 0001:000763B0  1750 0001:000763C8  1751 0001:000763E0  1752 0001:000763F8
  1754 0001:00076410  1755 0001:00076425  1757 0001:0007643A  1759 0001:0007644D
  1760 0001:00076463  1761 0001:00076475  1763 0001:00076487  1764 0001:00076498
  1765 0001:000764A7  1766 0001:000764B5  1767 0001:000764C3  1768 0001:000764DD
  1769 0001:000764EB  1770 0001:000764F9  1771 0001:0007650F  1772 0001:00076528
  1773 0001:0007653A  1774 0001:0007654C  1776 0001:00076559  1777 0001:0007656A
  1779 0001:00076584  1781 0001:00076597  1782 0001:000765AB  1783 0001:000765C0
  1784 0001:000765DE  1785 0001:000765FC  1786 0001:00076612  1787 0001:00076630
  1789 0001:0007664E  1777 0001:00076651  1791 0001:0007665A  1796 0001:0007665E
  1798 0001:0007668B  1791 0001:0007668E  1800 0001:00076694  1802 0001:000766B5
  1803 0001:000766CF  1804 0001:00076713  1800 0001:00076716  1805 0001:0007671B
  1806 0001:0007673E  1808 0001:0007674F  1809 0001:00076765  1810 0001:00076787
  1813 0001:00076794  1814 0001:0007679D  1815 0001:000767A6  1816 0001:000767D1
  1820 0001:000767E8  1821 0001:000767EB  1822 0001:000767F8  1827 0001:000767FC
  1828 0001:00076800  1829 0001:0007682A  1830 0001:00076837  1831 0001:00076844
  1832 0001:00076851  1833 0001:0007685E  1834 0001:0007686B  1835 0001:00076878
  1837 0001:00076885  1839 0001:000768D3  1840 0001:000768E0  1841 0001:000768ED
  1842 0001:000768FA  1843 0001:00076907  1844 0001:00076914  1845 0001:00076921
  1850 0001:00076924  1851 0001:00076928  1852 0001:00076952  1853 0001:0007696D
  1854 0001:0007697A  1855 0001:00076987  1856 0001:00076994  1857 0001:000769A1
  1860 0001:000769A4  1861 0001:000769C0  1862 0001:000769D1  1863 0001:000769F7
  1865 0001:000769FB  1866 0001:00076A0D  1867 0001:00076A1F  1869 0001:00076A25
  1870 0001:00076A46  1874 0001:00076A4E  1875 0001:00076A5F  1878 0001:00076A88
  1881 0001:00076A90  1882 0001:00076A93  1883 0001:00076AA7  1887 0001:00076AAC
  1888 0001:00076AAF  1889 0001:00076AC0  1896 0001:00076AC4  1897 0001:00076AD1
  1899 0001:00076ADB  1900 0001:00076AE7  1902 0001:00076AF7  1903 0001:00076B0A
  1905 0001:00076B1D  1906 0001:00076B2B  1907 0001:00076B4A  1908 0001:00076B63
  1909 0001:00076B84  1911 0001:00076B8A  1922 0001:00076B98  1923 0001:00076BCC
  1924 0001:00076BD6  1925 0001:00076BDE  1927 0001:00076BE8  1929 0001:00076BFA
  1930 0001:00076C20  1931 0001:00076C46  1941 0001:00076C6E  1942 0001:00076C76
  1943 0001:00076C7E  1946 0001:00076C86  1948 0001:00076C8A  1951 0001:00076CD4
  1955 0001:00076CF4  1957 0001:00076D0F  1958 0001:00076D88  1981 0001:00076DEC
  1982 0001:00076E20  1983 0001:00076E31  1992 0001:00076E40  2009 0001:00076E4D
  2010 0001:00076E71  2011 0001:00076E7D  2013 0001:00076E85  2014 0001:00076E98
  2015 0001:00076EB7  2018 0001:00076EDF  2020 0001:00076EE7  2021 0001:00076EFF
  2022 0001:00076F0C  2023 0001:00076F16  2025 0001:00076F99  2028 0001:00076FBC
  2030 0001:00076FE1  2031 0001:00076FE9  2033 0001:00076FF3  2035 0001:00076FFB
  2037 0001:00077010  2038 0001:00077049  2039 0001:00077075  2040 0001:000770AE
  2042 0001:000770DA  2044 0001:000770E7  2045 0001:00077136  2085 0001:00077173
  2086 0001:000771BE  2087 0001:000771F6  2088 0001:00077241  2089 0001:00077279
  2090 0001:000772BF  2091 0001:000772F2  2092 0001:00077338  2096 0001:0007736B
  2098 0001:00077376  2099 0001:00077385  2100 0001:00077394  2102 0001:0007752C
  2105 0001:000775E0  2106 0001:000775E6  2107 0001:000775F4  2110 0001:000775F8
  2111 0001:000775FB  2112 0001:00077609  2115 0001:00077610  2116 0001:00077613
  2117 0001:00077621  2123 0001:00077628  2124 0001:00077652  2126 0001:00077666
  2127 0001:0007766E  2128 0001:00077671  2130 0001:00077678  2132 0001:00077682
  2154 0001:000776C2  2156 0001:000776EE  2158 0001:0007771A  2159 0001:0007774E
  2162 0001:00077753  2167 0001:000777C8  2170 0001:00077830  2171 0001:00077833
  2172 0001:0007784C  2173 0001:00077851  2184 0001:0007785C  2185 0001:00077884
  2186 0001:0007789B  2187 0001:000778F9  2194 0001:0007791C  2195 0001:0007793D
  2196 0001:00077941  2197 0001:00077949  2199 0001:00077953  2201 0001:00077969
  2204 0001:000779DE  2205 0001:000779E2  2207 0001:000779E4  2199 0001:000779E5
  2208 0001:00077A2A  2214 0001:00077A34  2215 0001:00077A49  2216 0001:00077A51
  2218 0001:00077A57  2219 0001:00077A63  2220 0001:00077A9B  2222 0001:00077AA0
  2223 0001:00077ABC  2226 0001:00077ACD  2228 0001:00077AD6  2230 0001:00077AE5
  2232 0001:00077AF2  2233 0001:00077AFA  2236 0001:00077B17  2238 0001:00077B2B
  2243 0001:00077B59  2259 0001:00077B60  2260 0001:00077B78  2261 0001:00077BAE
  2262 0001:00077BF6  2264 0001:00077C4C  2265 0001:00077C55  2267 0001:00077C62
  2268 0001:00077C6A  2269 0001:00077C76  2270 0001:00077C87  2271 0001:00077C8F
  2272 0001:00077C9B  2273 0001:00077CA9  2275 0001:00077CC0  2276 0001:00077CC8
  2277 0001:00077CD0  2279 0001:00077CE4  2281 0001:00077CEF  2282 0001:00077CFC
  2292 0001:00077D04  2294 0001:00077D29  2295 0001:00077D31  2302 0001:00077D3B
  2304 0001:00077D4C  2305 0001:00077D66  2307 0001:00077D75  2309 0001:00077D82
  2328 0001:00077DF7  2338 0001:00077E28  2340 0001:00077E46  2341 0001:00077E4E
  2343 0001:00077E54  2349 0001:00077E7A  2350 0001:00077EC0  2358 0001:00077ED8
  2359 0001:00077EEE  2360 0001:00077EF5  2361 0001:00077EFD  2362 0001:00077F2A
  2373 0001:00077F30  2374 0001:00077F33  2375 0001:00077F3A  2380 0001:00077F3C
  2381 0001:00077F40  2382 0001:00077F6A  2383 0001:00077F77  2384 0001:00077F84
  2385 0001:00077F91  2388 0001:00077F94  2389 0001:00077FAB  2390 0001:00077FC9
  2391 0001:00077FE4  2392 0001:00077FFF  2393 0001:00078008  2394 0001:00078011
  2395 0001:0007801A  2396 0001:00078023  2397 0001:0007802C  2398 0001:00078035
  2399 0001:0007803E  2400 0001:00078047  2401 0001:00078062  2402 0001:0007807D
  2403 0001:00078098  2404 0001:000780C1  2405 0001:000780DE  2406 0001:00078115
  2411 0001:0007812C  2412 0001:00078130  2413 0001:0007815A  2414 0001:00078167
  2415 0001:00078174  2416 0001:0007819E  2421 0001:000781A4  2422 0001:000781A8
  2423 0001:000781B8  2424 0001:000781C5  2425 0001:000781D2  2426 0001:000781DF
  2427 0001:000781EC  2428 0001:000781F9  2429 0001:00078206  2430 0001:00078213
  2431 0001:00078220  2436 0001:00078224  2437 0001:00078227  2438 0001:00078251
  2439 0001:0007825E  2442 0001:00078260  2443 0001:00078276  2444 0001:00078285
  2445 0001:000782BE  2448 0001:000782C4  2449 0001:000782DA  2450 0001:000782E9
  2451 0001:00078322  2454 0001:00078328  2455 0001:0007833E  2456 0001:0007834D
  2457 0001:00078386  2460 0001:0007838C  2461 0001:0007838F  2463 0001:000783B0
  2465 0001:000783D3  2467 0001:000783F8  2468 0001:0007841D  2469 0001:0007842D
  2470 0001:00078436  2474 0001:0007845C  2475 0001:00078463  2485 0001:00078464
  2486 0001:00078483  2487 0001:0007848F  2489 0001:00078499  2490 0001:000784A8
  2491 0001:000784B6  2492 0001:000784D0  2494 0001:0007850E  2505 0001:00078543
  2526 0001:0007859C  2529 0001:000785A1  2535 0001:000785A4  2536 0001:000785AF
  2537 0001:000785BA  2538 0001:000785C5  2542 0001:000785C8  2551 0001:000785CC
  2554 0001:000785D0  2555 0001:000785D3  2556 0001:000785E5  2559 0001:000785FB
  2565 0001:00078638  2567 0001:000786F5  2561 0001:00078710  2562 0001:00078719
  2564 0001:00078728

Line numbers for EMessages(EMessages.pas) segment .text

    61 0001:00078AAC    62 0001:00078AC2    63 0001:00078AFF    71 0001:00078B04
    72 0001:00078B09    73 0001:00078B19    75 0001:00078B29    76 0001:00078B37
    77 0001:00078B3F    76 0001:00078B55    78 0001:00078B59    80 0001:00078B6C
    81 0001:00078B7A    82 0001:00078B82    81 0001:00078B98    83 0001:00078B9C
    85 0001:00078BAF    86 0001:00078BBD    87 0001:00078BC5    86 0001:00078BDB
    88 0001:00078BDF    90 0001:00078BF2    91 0001:00078C00    92 0001:00078C08
    91 0001:00078C1E    93 0001:00078C22    95 0001:00078C32    96 0001:00078C39
    99 0001:00078C60   100 0001:00078C76   101 0001:00078C96   102 0001:00078CBC
   107 0001:00078CC0   108 0001:00078CD7   109 0001:00078CF5   110 0001:00078D02
   111 0001:00078D0F   112 0001:00078D1C   113 0001:00078D29   114 0001:00078D36
   115 0001:00078D43   116 0001:00078D50   117 0001:00078D5D   118 0001:00078D87
   120 0001:00078DD0   120 0001:00078DD7

Line numbers for EParser(EParser.pas) segment .text

    56 0001:00078E78    57 0001:00078E9B    59 0001:00078E9F    61 0001:00078EA6
    64 0001:00078EBC    66 0001:00078EC0    65 0001:00078EC1    69 0001:00078EF5
    71 0001:00078EFD    73 0001:00078F0D    72 0001:00078F0F    74 0001:00078F46
    76 0001:00078F5F    77 0001:00078F75    78 0001:00078FA5    83 0001:00078FAC
    84 0001:00078FCD    85 0001:00078FD6    88 0001:00078FF5    89 0001:00078FFE
    90 0001:00079014    92 0001:00079033    93 0001:00079037    94 0001:00079058
    95 0001:0007907F    96 0001:000790AC   101 0001:000790B4   102 0001:000790F5
   103 0001:000790F7   105 0001:00079100   106 0001:0007910B   107 0001:00079125
   105 0001:00079128   110 0001:0007912D   111 0001:00079138   110 0001:00079153
   113 0001:0007917F   119 0001:0007918C   120 0001:000791AD   121 0001:000791B2
   122 0001:000791C1   123 0001:000791CF   124 0001:000791D9   125 0001:000791DB
   127 0001:000791F2   128 0001:00079212   130 0001:00079217   131 0001:0007921E
   133 0001:00079220   125 0001:00079223   135 0001:00079233   137 0001:00079263
   142 0001:0007926C   144 0001:000792B4   145 0001:000792C0   146 0001:000792D0
   147 0001:00079310   153 0001:00079320   154 0001:00079340   157 0001:00079347
   159 0001:00079363   155 0001:0007937D   161 0001:000793B9   166 0001:000793C0
   167 0001:000793E0   170 0001:000793E7   172 0001:00079404   174 0001:0007941D
   175 0001:0007941F   178 0001:00079421   180 0001:00079437   181 0001:00079442
   184 0001:0007944D   186 0001:00079466   187 0001:00079468   168 0001:0007946A
   190 0001:000794A8   198 0001:000794B0   199 0001:000794D9   200 0001:000794DE
   201 0001:000794E4   202 0001:00079503   204 0001:00079508   206 0001:00079522
   207 0001:0007953A   208 0001:00079546   211 0001:0007954B   213 0001:00079565
   214 0001:00079579   217 0001:0007958A   218 0001:0007958F   220 0001:000795A0
   223 0001:000795A5   225 0001:000795AD   226 0001:000795C6   229 0001:000795D7
   232 0001:000795E1   234 0001:000795F7   236 0001:00079604   237 0001:00079606
   238 0001:00079612   239 0001:0007961E   240 0001:0007963B   244 0001:00079646
   246 0001:0007965F   247 0001:0007966B   230 0001:0007966D   251 0001:0007968C
   256 0001:0007968E   257 0001:0007969A   259 0001:000796B0   260 0001:000796BD
   254 0001:000796C9   263 0001:00079717   266 0001:00079720   267 0001:00079722
   269 0001:0007972C   270 0001:0007973B   271 0001:0007974A   272 0001:00079759
   274 0001:00079768   275 0001:00079777   276 0001:00079786   277 0001:00079795
   279 0001:000797A4   281 0001:000797B5   282 0001:000797C4   284 0001:000797D3
   285 0001:000797DA   287 0001:00079870   288 0001:00079879   289 0001:0007987E
   290 0001:00079889   298 0001:00079890   299 0001:00079892   301 0001:0007989C
   302 0001:000798AB   303 0001:000798BA   304 0001:000798C9   306 0001:000798D3
   307 0001:000798E2   308 0001:000798F1   309 0001:00079900   311 0001:0007990A
   313 0001:0007991B   314 0001:0007992A   316 0001:00079939   317 0001:00079940
   319 0001:000799B8   320 0001:000799DF   322 0001:000799E4   323 0001:000799E6
   325 0001:000799EC   329 0001:00079A03   330 0001:00079A0F   332 0001:00079A44
   333 0001:00079A4F   336 0001:00079A51   338 0001:00079A6A   339 0001:00079A75
   327 0001:00079A77   343 0001:00079A82   344 0001:00079AB8   346 0001:00079B84
   346 0001:00079B8B

Line numbers for EToolsAPI(EToolsAPI.pas) segment .text

    69 0001:00079C18    91 0001:00079D48   101 0001:00079E70   125 0001:00079F60
   130 0001:00079F64   135 0001:00079F68   140 0001:00079F6C   145 0001:00079F70
   150 0001:00079F74   163 0001:00079F78   164 0001:00079FA4   165 0001:00079FBB
   166 0001:00079FCE   168 0001:0007A036   171 0001:0007A03C   172 0001:0007A03D
   173 0001:0007A055   174 0001:0007A06C   176 0001:0007A0B0   177 0001:0007A0D9
   179 0001:0007A0E3   180 0001:0007A0EF   182 0001:0007A0F7   184 0001:0007A111
   185 0001:0007A11E   189 0001:0007A16B   190 0001:0007A18C   196 0001:0007A1B5
   197 0001:0007A216   200 0001:0007A21C   182 0001:0007A21F   202 0001:0007A226
   203 0001:0007A242   204 0001:0007A262   205 0001:0007A2B1   210 0001:0007A340
   211 0001:0007A356   213 0001:0007A364   214 0001:0007A384   215 0001:0007A3AB
   217 0001:0007A3BE   218 0001:0007A3EA   309 0001:0007A3F0   310 0001:0007A40C
   312 0001:0007A411   322 0001:0007A426   325 0001:0007A458   328 0001:0007A46B
   329 0001:0007A470   332 0001:0007A4AA   337 0001:0007A4B4   338 0001:0007A4DC
   339 0001:0007A4E5   340 0001:0007A4EF   341 0001:0007A504   342 0001:0007A53F
   345 0001:0007A548   346 0001:0007A553   347 0001:0007A55A   348 0001:0007A571
   353 0001:0007A574   355 0001:0007A58C   357 0001:0007A592   358 0001:0007A5AC
   360 0001:0007A5B1   361 0001:0007A5BF   365 0001:0007A5CB   367 0001:0007A5D3
   368 0001:0007A5DD   369 0001:0007A5F5   371 0001:0007A5FC   372 0001:0007A626
   377 0001:0007A62C   378 0001:0007A642   380 0001:0007A648   381 0001:0007A664
   382 0001:0007A699   387 0001:0007A6A0   388 0001:0007A6A7   390 0001:0007A6AD
   391 0001:0007A6BE   392 0001:0007A6DD   393 0001:0007A6E7   396 0001:0007A6EC
   397 0001:0007A704   399 0001:0007A70A   400 0001:0007A759   404 0001:0007A760
   405 0001:0007A762   410 0001:0007A764   419 0001:0007A768   424 0001:0007A76C
   429 0001:0007A770   434 0001:0007A774   439 0001:0007A778   443 0001:0007A77C
   444 0001:0007A7A5   446 0001:0007A7C3   447 0001:0007A7D1   448 0001:0007A7E4
   450 0001:0007A82F   452 0001:0007A860   462 0001:0007A868   463 0001:0007A87C
   464 0001:0007A87E   466 0001:0007A89D   467 0001:0007A8C6   473 0001:0007A8DC
   474 0001:0007A8E2   476 0001:0007A8E5   477 0001:0007A8EC   478 0001:0007A8F0
   479 0001:0007A914   480 0001:0007A925   486 0001:0007A92C   487 0001:0007A931
   488 0001:0007A933   489 0001:0007A93A   491 0001:0007A93E   492 0001:0007A945
   494 0001:0007A958   498 0001:0007A95C   499 0001:0007A966   513 0001:0007A97C
   514 0001:0007A996   515 0001:0007A9A6   516 0001:0007A9AF   518 0001:0007A9C1
   520 0001:0007A9CD   521 0001:0007A9E2   523 0001:0007A9E6   524 0001:0007A9F4
   526 0001:0007A9FD   527 0001:0007AA1C   529 0001:0007AA3B   530 0001:0007AA64
   532 0001:0007AA7C   533 0001:0007AA91   534 0001:0007AA98   536 0001:0007AAA0
   537 0001:0007AAB3   539 0001:0007AAC2   540 0001:0007AAD5   541 0001:0007AAE4
   543 0001:0007AAFF   544 0001:0007AB10   546 0001:0007AB2C   547 0001:0007AB4B
   549 0001:0007AB71   551 0001:0007AB7E   552 0001:0007AB8B   555 0001:0007AB98
   556 0001:0007AB9F   558 0001:0007ABA7   559 0001:0007ABB3   561 0001:0007ABBC
   562 0001:0007ABCF   563 0001:0007ABDE   565 0001:0007ABF1   566 0001:0007AC10
   567 0001:0007AC2A   568 0001:0007AC3A   569 0001:0007AC54   570 0001:0007AC6E
   574 0001:0007AC7E   576 0001:0007AC98   579 0001:0007ACC6   583 0001:0007AE30
   590 0001:0007AE34   591 0001:0007AE3A   593 0001:0007AE3F   594 0001:0007AE5C
   595 0001:0007AE63   597 0001:0007AE67   599 0001:0007AE6C   600 0001:0007AE70
   602 0001:0007AE80   603 0001:0007AE88   605 0001:0007AE8E   606 0001:0007AE9D
   608 0001:0007AEA6   609 0001:0007AEB0   611 0001:0007AEB7   614 0001:0007AEC6
   615 0001:0007AED0   616 0001:0007AED7   622 0001:0007AEDC   623 0001:0007AEF1
   625 0001:0007AF10   626 0001:0007AF2D   627 0001:0007AF3D   628 0001:0007AF73
   633 0001:0007AF88   634 0001:0007AF9B   636 0001:0007AFBA   637 0001:0007AFEE
   649 0001:0007B004   650 0001:0007B025   651 0001:0007B02D   653 0001:0007B04C
   654 0001:0007B059   656 0001:0007B05F   658 0001:0007B071   659 0001:0007B07E
   660 0001:0007B099   656 0001:0007B09A   661 0001:0007B0CA   670 0001:0007B0F4
   671 0001:0007B112   672 0001:0007B116   673 0001:0007B120   676 0001:0007B152
   678 0001:0007B171   679 0001:0007B17E   681 0001:0007B184   682 0001:0007B195
   683 0001:0007B1A6   685 0001:0007B1AA   686 0001:0007B1AD   687 0001:0007B1B8
   689 0001:0007B1BE   692 0001:0007B1F5   698 0001:0007B20C   699 0001:0007B22C
   700 0001:0007B230   701 0001:0007B23B   703 0001:0007B23F   704 0001:0007B24A
   706 0001:0007B250   707 0001:0007B25B   708 0001:0007B264   711 0001:0007B288
   717 0001:0007B290   718 0001:0007B2AA   720 0001:0007B2C9   721 0001:0007B2D6
   722 0001:0007B2E8   723 0001:0007B32A   731 0001:0007B340   732 0001:0007B362
   733 0001:0007B369   734 0001:0007B375   736 0001:0007B37F   737 0001:0007B38A
   738 0001:0007B394   739 0001:0007B3A2   741 0001:0007B3AA   742 0001:0007B3B7
   743 0001:0007B3DA   744 0001:0007B3E4   745 0001:0007B3EF   746 0001:0007B3F3
   748 0001:0007B40A   750 0001:0007B44C   756 0001:0007B454   757 0001:0007B472
   758 0001:0007B47E   760 0001:0007B484   761 0001:0007B48F   762 0001:0007B495
   763 0001:0007B4A3   764 0001:0007B4AD   766 0001:0007B4C5   768 0001:0007B4FA
   774 0001:0007B504   775 0001:0007B522   776 0001:0007B52E   778 0001:0007B534
   779 0001:0007B53F   780 0001:0007B545   781 0001:0007B553   782 0001:0007B55D
   784 0001:0007B575   786 0001:0007B5AA   789 0001:0007B5B4   790 0001:0007B5B7
   791 0001:0007B5C3   792 0001:0007B5CF   813 0001:0007B5D4   814 0001:0007B5ED
   815 0001:0007B60D   816 0001:0007B61A   817 0001:0007B657   820 0001:0007B680
   821 0001:0007B69B   822 0001:0007B69D   825 0001:0007B6DC   826 0001:0007B6E9
   828 0001:0007B70F   830 0001:0007B718   831 0001:0007B73C   832 0001:0007B73E
   835 0001:0007B788   836 0001:0007B7A0   840 0001:0007B7A7   841 0001:0007B7AF
   842 0001:0007B7B5   843 0001:0007B7CB   845 0001:0007B7CF   847 0001:0007B7E6
   848 0001:0007B7F4   850 0001:0007B80B   851 0001:0007B822   853 0001:0007B826
   845 0001:0007B829   856 0001:0007B860   898 0001:0007B868   899 0001:0007B8B0
   900 0001:0007B8B2   902 0001:0007B8C4   904 0001:0007B8CA   908 0001:0007B927
   915 0001:0007B947   916 0001:0007B954   918 0001:0007B95A   920 0001:0007B97D
   921 0001:0007B988   922 0001:0007B995   925 0001:0007B99F   926 0001:0007B9A7
   928 0001:0007B9B7   930 0001:0007B9BD   931 0001:0007B9D5   933 0001:0007B9E0
   934 0001:0007B9F1   936 0001:0007BA09   937 0001:0007BA1F   941 0001:0007BA28
   942 0001:0007BA34   944 0001:0007BA44   945 0001:0007BA4A   946 0001:0007BA4D
   947 0001:0007BA5A   948 0001:0007BA65   949 0001:0007BA7D   950 0001:0007BA8A
   951 0001:0007BA95   953 0001:0007BABD   954 0001:0007BAD5   955 0001:0007BAEA
   956 0001:0007BAFF   958 0001:0007BB17   959 0001:0007BB85   967 0001:0007BBA0
   968 0001:0007BBC1   970 0001:0007BBE4   972 0001:0007BC00   973 0001:0007BC0E
   975 0001:0007BC24   976 0001:0007BC31   981 0001:0007BC92   982 0001:0007BCA2
   986 0001:0007BCE4   973 0001:0007BCE5   987 0001:0007BCEC   970 0001:0007BCEF
   988 0001:0007BD3A   994 0001:0007BDE0   995 0001:0007BDE4   997 0001:0007BDF4
   998 0001:0007BE0F   999 0001:0007BE19   995 0001:0007BE1A  1000 0001:0007BE1F
  1008 0001:0007BE24  1009 0001:0007BE36  1012 0001:0007BE58  1013 0001:0007BE74
  1014 0001:0007BE7E  1015 0001:0007BE83  1017 0001:0007BE96  1018 0001:0007BEA8
  1022 0001:0007BED8  1023 0001:0007BEF4  1027 0001:0007BEF8  1028 0001:0007BF03
  1035 0001:0007BF04  1047 0001:0007BF11  1048 0001:0007BF30  1049 0001:0007BF3A
  1051 0001:0007BF3F  1056 0001:0007BF40  1057 0001:0007BF4A  1058 0001:0007BF54
  1060 0001:0007BF59  1068 0001:0007BF5C  1070 0001:0007BFAD  1064 0001:0007BFC8
  1065 0001:0007BFE2  1067 0001:0007C006

Line numbers for EMain(EMain.pas) segment .text

    60 0001:0007C0CC    65 0001:0007C0D0    66 0001:0007C0E8    68 0001:0007C0EE
    71 0001:0007C10A    73 0001:0007C12E    87 0001:0007C158    89 0001:0007C15F
    99 0001:0007C164   104 0001:0007C168   108 0001:0007C169   109 0001:0007C17F
   113 0001:0007C198   114 0001:0007C1A2   115 0001:0007C1A7   116 0001:0007C1AC
   119 0001:0007C1B1   122 0001:0007C1BC   123 0001:0007C1CF   124 0001:0007C1DE
   125 0001:0007C1EA   126 0001:0007C1FF   130 0001:0007C200   131 0001:0007C20A
   132 0001:0007C20F   134 0001:0007C214   135 0001:0007C21E   143 0001:0007C220
   145 0001:0007C25D   139 0001:0007C274   140 0001:0007C27D   142 0001:0007C28C

Line numbers for ExceptionExpert7(C:\Program Files\EurekaLog 6\Delphi7\ExceptionExpert7.dpk) segment .text

    69 0001:0007C604

Bound resource files

DIALOG.RES
EWait.dfm
EVariables.DFM
EIDEOptions.DFM
EAbout.dfm
EOption.DFM
EMessages.DFM
EurekaLog.res
ExceptionExpert7.res
ExceptionExpert7.drf


Program entry point at 0001:0007C604
